ARM GAS  /tmp/ccjNLvMu.s 			page 1


   1              		.cpu cortex-m0plus
   2              		.arch armv6s-m
   3              		.fpu softvfp
   4              		.eabi_attribute 20, 1
   5              		.eabi_attribute 21, 1
   6              		.eabi_attribute 23, 3
   7              		.eabi_attribute 24, 1
   8              		.eabi_attribute 25, 1
   9              		.eabi_attribute 26, 1
  10              		.eabi_attribute 30, 1
  11              		.eabi_attribute 34, 0
  12              		.eabi_attribute 18, 4
  13              		.file	"stm32g0xx_ll_tim.c"
  14              		.text
  15              	.Ltext0:
  16              		.cfi_sections	.debug_frame
  17              		.file 1 "Drivers/STM32G0xx_HAL_Driver/Src/stm32g0xx_ll_tim.c"
  18              		.section	.text.OC1Config,"ax",%progbits
  19              		.align	1
  20              		.syntax unified
  21              		.code	16
  22              		.thumb_func
  24              	OC1Config:
  25              	.LVL0:
  26              	.LFB296:
   1:Drivers/STM32G0xx_HAL_Driver/Src/stm32g0xx_ll_tim.c **** /**
   2:Drivers/STM32G0xx_HAL_Driver/Src/stm32g0xx_ll_tim.c ****   ******************************************************************************
   3:Drivers/STM32G0xx_HAL_Driver/Src/stm32g0xx_ll_tim.c ****   * @file    stm32g0xx_ll_tim.c
   4:Drivers/STM32G0xx_HAL_Driver/Src/stm32g0xx_ll_tim.c ****   * @author  MCD Application Team
   5:Drivers/STM32G0xx_HAL_Driver/Src/stm32g0xx_ll_tim.c ****   * @brief   TIM LL module driver.
   6:Drivers/STM32G0xx_HAL_Driver/Src/stm32g0xx_ll_tim.c ****   ******************************************************************************
   7:Drivers/STM32G0xx_HAL_Driver/Src/stm32g0xx_ll_tim.c ****   * @attention
   8:Drivers/STM32G0xx_HAL_Driver/Src/stm32g0xx_ll_tim.c ****   *
   9:Drivers/STM32G0xx_HAL_Driver/Src/stm32g0xx_ll_tim.c ****   * Copyright (c) 2018 STMicroelectronics.
  10:Drivers/STM32G0xx_HAL_Driver/Src/stm32g0xx_ll_tim.c ****   * All rights reserved.
  11:Drivers/STM32G0xx_HAL_Driver/Src/stm32g0xx_ll_tim.c ****   *
  12:Drivers/STM32G0xx_HAL_Driver/Src/stm32g0xx_ll_tim.c ****   * This software is licensed under terms that can be found in the LICENSE file
  13:Drivers/STM32G0xx_HAL_Driver/Src/stm32g0xx_ll_tim.c ****   * in the root directory of this software component.
  14:Drivers/STM32G0xx_HAL_Driver/Src/stm32g0xx_ll_tim.c ****   * If no LICENSE file comes with this software, it is provided AS-IS.
  15:Drivers/STM32G0xx_HAL_Driver/Src/stm32g0xx_ll_tim.c ****   *
  16:Drivers/STM32G0xx_HAL_Driver/Src/stm32g0xx_ll_tim.c ****   ******************************************************************************
  17:Drivers/STM32G0xx_HAL_Driver/Src/stm32g0xx_ll_tim.c ****   */
  18:Drivers/STM32G0xx_HAL_Driver/Src/stm32g0xx_ll_tim.c **** #if defined(USE_FULL_LL_DRIVER)
  19:Drivers/STM32G0xx_HAL_Driver/Src/stm32g0xx_ll_tim.c **** 
  20:Drivers/STM32G0xx_HAL_Driver/Src/stm32g0xx_ll_tim.c **** /* Includes ------------------------------------------------------------------*/
  21:Drivers/STM32G0xx_HAL_Driver/Src/stm32g0xx_ll_tim.c **** #include "stm32g0xx_ll_tim.h"
  22:Drivers/STM32G0xx_HAL_Driver/Src/stm32g0xx_ll_tim.c **** #include "stm32g0xx_ll_bus.h"
  23:Drivers/STM32G0xx_HAL_Driver/Src/stm32g0xx_ll_tim.c **** 
  24:Drivers/STM32G0xx_HAL_Driver/Src/stm32g0xx_ll_tim.c **** #ifdef  USE_FULL_ASSERT
  25:Drivers/STM32G0xx_HAL_Driver/Src/stm32g0xx_ll_tim.c **** #include "stm32_assert.h"
  26:Drivers/STM32G0xx_HAL_Driver/Src/stm32g0xx_ll_tim.c **** #else
  27:Drivers/STM32G0xx_HAL_Driver/Src/stm32g0xx_ll_tim.c **** #define assert_param(expr) ((void)0U)
  28:Drivers/STM32G0xx_HAL_Driver/Src/stm32g0xx_ll_tim.c **** #endif /* USE_FULL_ASSERT */
  29:Drivers/STM32G0xx_HAL_Driver/Src/stm32g0xx_ll_tim.c **** 
  30:Drivers/STM32G0xx_HAL_Driver/Src/stm32g0xx_ll_tim.c **** /** @addtogroup STM32G0xx_LL_Driver
  31:Drivers/STM32G0xx_HAL_Driver/Src/stm32g0xx_ll_tim.c ****   * @{
  32:Drivers/STM32G0xx_HAL_Driver/Src/stm32g0xx_ll_tim.c ****   */
ARM GAS  /tmp/ccjNLvMu.s 			page 2


  33:Drivers/STM32G0xx_HAL_Driver/Src/stm32g0xx_ll_tim.c **** 
  34:Drivers/STM32G0xx_HAL_Driver/Src/stm32g0xx_ll_tim.c **** #if defined (TIM1) || defined (TIM2) || defined (TIM3) || defined (TIM4) ||  defined (TIM14) ||  de
  35:Drivers/STM32G0xx_HAL_Driver/Src/stm32g0xx_ll_tim.c **** 
  36:Drivers/STM32G0xx_HAL_Driver/Src/stm32g0xx_ll_tim.c **** /** @addtogroup TIM_LL
  37:Drivers/STM32G0xx_HAL_Driver/Src/stm32g0xx_ll_tim.c ****   * @{
  38:Drivers/STM32G0xx_HAL_Driver/Src/stm32g0xx_ll_tim.c ****   */
  39:Drivers/STM32G0xx_HAL_Driver/Src/stm32g0xx_ll_tim.c **** 
  40:Drivers/STM32G0xx_HAL_Driver/Src/stm32g0xx_ll_tim.c **** /* Private types -------------------------------------------------------------*/
  41:Drivers/STM32G0xx_HAL_Driver/Src/stm32g0xx_ll_tim.c **** /* Private variables ---------------------------------------------------------*/
  42:Drivers/STM32G0xx_HAL_Driver/Src/stm32g0xx_ll_tim.c **** /* Private constants ---------------------------------------------------------*/
  43:Drivers/STM32G0xx_HAL_Driver/Src/stm32g0xx_ll_tim.c **** /* Private macros ------------------------------------------------------------*/
  44:Drivers/STM32G0xx_HAL_Driver/Src/stm32g0xx_ll_tim.c **** /** @addtogroup TIM_LL_Private_Macros
  45:Drivers/STM32G0xx_HAL_Driver/Src/stm32g0xx_ll_tim.c ****   * @{
  46:Drivers/STM32G0xx_HAL_Driver/Src/stm32g0xx_ll_tim.c ****   */
  47:Drivers/STM32G0xx_HAL_Driver/Src/stm32g0xx_ll_tim.c **** #define IS_LL_TIM_COUNTERMODE(__VALUE__) (((__VALUE__) == LL_TIM_COUNTERMODE_UP) \
  48:Drivers/STM32G0xx_HAL_Driver/Src/stm32g0xx_ll_tim.c ****                                           || ((__VALUE__) == LL_TIM_COUNTERMODE_DOWN) \
  49:Drivers/STM32G0xx_HAL_Driver/Src/stm32g0xx_ll_tim.c ****                                           || ((__VALUE__) == LL_TIM_COUNTERMODE_CENTER_UP) \
  50:Drivers/STM32G0xx_HAL_Driver/Src/stm32g0xx_ll_tim.c ****                                           || ((__VALUE__) == LL_TIM_COUNTERMODE_CENTER_DOWN) \
  51:Drivers/STM32G0xx_HAL_Driver/Src/stm32g0xx_ll_tim.c ****                                           || ((__VALUE__) == LL_TIM_COUNTERMODE_CENTER_UP_DOWN))
  52:Drivers/STM32G0xx_HAL_Driver/Src/stm32g0xx_ll_tim.c **** 
  53:Drivers/STM32G0xx_HAL_Driver/Src/stm32g0xx_ll_tim.c **** #define IS_LL_TIM_CLOCKDIVISION(__VALUE__) (((__VALUE__) == LL_TIM_CLOCKDIVISION_DIV1) \
  54:Drivers/STM32G0xx_HAL_Driver/Src/stm32g0xx_ll_tim.c ****                                             || ((__VALUE__) == LL_TIM_CLOCKDIVISION_DIV2) \
  55:Drivers/STM32G0xx_HAL_Driver/Src/stm32g0xx_ll_tim.c ****                                             || ((__VALUE__) == LL_TIM_CLOCKDIVISION_DIV4))
  56:Drivers/STM32G0xx_HAL_Driver/Src/stm32g0xx_ll_tim.c **** 
  57:Drivers/STM32G0xx_HAL_Driver/Src/stm32g0xx_ll_tim.c **** #define IS_LL_TIM_OCMODE(__VALUE__) (((__VALUE__) == LL_TIM_OCMODE_FROZEN) \
  58:Drivers/STM32G0xx_HAL_Driver/Src/stm32g0xx_ll_tim.c ****                                      || ((__VALUE__) == LL_TIM_OCMODE_ACTIVE) \
  59:Drivers/STM32G0xx_HAL_Driver/Src/stm32g0xx_ll_tim.c ****                                      || ((__VALUE__) == LL_TIM_OCMODE_INACTIVE) \
  60:Drivers/STM32G0xx_HAL_Driver/Src/stm32g0xx_ll_tim.c ****                                      || ((__VALUE__) == LL_TIM_OCMODE_TOGGLE) \
  61:Drivers/STM32G0xx_HAL_Driver/Src/stm32g0xx_ll_tim.c ****                                      || ((__VALUE__) == LL_TIM_OCMODE_FORCED_INACTIVE) \
  62:Drivers/STM32G0xx_HAL_Driver/Src/stm32g0xx_ll_tim.c ****                                      || ((__VALUE__) == LL_TIM_OCMODE_FORCED_ACTIVE) \
  63:Drivers/STM32G0xx_HAL_Driver/Src/stm32g0xx_ll_tim.c ****                                      || ((__VALUE__) == LL_TIM_OCMODE_PWM1) \
  64:Drivers/STM32G0xx_HAL_Driver/Src/stm32g0xx_ll_tim.c ****                                      || ((__VALUE__) == LL_TIM_OCMODE_PWM2) \
  65:Drivers/STM32G0xx_HAL_Driver/Src/stm32g0xx_ll_tim.c ****                                      || ((__VALUE__) == LL_TIM_OCMODE_RETRIG_OPM1) \
  66:Drivers/STM32G0xx_HAL_Driver/Src/stm32g0xx_ll_tim.c ****                                      || ((__VALUE__) == LL_TIM_OCMODE_RETRIG_OPM2) \
  67:Drivers/STM32G0xx_HAL_Driver/Src/stm32g0xx_ll_tim.c ****                                      || ((__VALUE__) == LL_TIM_OCMODE_COMBINED_PWM1) \
  68:Drivers/STM32G0xx_HAL_Driver/Src/stm32g0xx_ll_tim.c ****                                      || ((__VALUE__) == LL_TIM_OCMODE_COMBINED_PWM2) \
  69:Drivers/STM32G0xx_HAL_Driver/Src/stm32g0xx_ll_tim.c ****                                      || ((__VALUE__) == LL_TIM_OCMODE_ASYMMETRIC_PWM1) \
  70:Drivers/STM32G0xx_HAL_Driver/Src/stm32g0xx_ll_tim.c ****                                      || ((__VALUE__) == LL_TIM_OCMODE_ASYMMETRIC_PWM2))
  71:Drivers/STM32G0xx_HAL_Driver/Src/stm32g0xx_ll_tim.c **** 
  72:Drivers/STM32G0xx_HAL_Driver/Src/stm32g0xx_ll_tim.c **** #define IS_LL_TIM_OCSTATE(__VALUE__) (((__VALUE__) == LL_TIM_OCSTATE_DISABLE) \
  73:Drivers/STM32G0xx_HAL_Driver/Src/stm32g0xx_ll_tim.c ****                                       || ((__VALUE__) == LL_TIM_OCSTATE_ENABLE))
  74:Drivers/STM32G0xx_HAL_Driver/Src/stm32g0xx_ll_tim.c **** 
  75:Drivers/STM32G0xx_HAL_Driver/Src/stm32g0xx_ll_tim.c **** #define IS_LL_TIM_OCPOLARITY(__VALUE__) (((__VALUE__) == LL_TIM_OCPOLARITY_HIGH) \
  76:Drivers/STM32G0xx_HAL_Driver/Src/stm32g0xx_ll_tim.c ****                                          || ((__VALUE__) == LL_TIM_OCPOLARITY_LOW))
  77:Drivers/STM32G0xx_HAL_Driver/Src/stm32g0xx_ll_tim.c **** 
  78:Drivers/STM32G0xx_HAL_Driver/Src/stm32g0xx_ll_tim.c **** #define IS_LL_TIM_OCIDLESTATE(__VALUE__) (((__VALUE__) == LL_TIM_OCIDLESTATE_LOW) \
  79:Drivers/STM32G0xx_HAL_Driver/Src/stm32g0xx_ll_tim.c ****                                           || ((__VALUE__) == LL_TIM_OCIDLESTATE_HIGH))
  80:Drivers/STM32G0xx_HAL_Driver/Src/stm32g0xx_ll_tim.c **** 
  81:Drivers/STM32G0xx_HAL_Driver/Src/stm32g0xx_ll_tim.c **** #define IS_LL_TIM_ACTIVEINPUT(__VALUE__) (((__VALUE__) == LL_TIM_ACTIVEINPUT_DIRECTTI) \
  82:Drivers/STM32G0xx_HAL_Driver/Src/stm32g0xx_ll_tim.c ****                                           || ((__VALUE__) == LL_TIM_ACTIVEINPUT_INDIRECTTI) \
  83:Drivers/STM32G0xx_HAL_Driver/Src/stm32g0xx_ll_tim.c ****                                           || ((__VALUE__) == LL_TIM_ACTIVEINPUT_TRC))
  84:Drivers/STM32G0xx_HAL_Driver/Src/stm32g0xx_ll_tim.c **** 
  85:Drivers/STM32G0xx_HAL_Driver/Src/stm32g0xx_ll_tim.c **** #define IS_LL_TIM_ICPSC(__VALUE__) (((__VALUE__) == LL_TIM_ICPSC_DIV1) \
  86:Drivers/STM32G0xx_HAL_Driver/Src/stm32g0xx_ll_tim.c ****                                     || ((__VALUE__) == LL_TIM_ICPSC_DIV2) \
  87:Drivers/STM32G0xx_HAL_Driver/Src/stm32g0xx_ll_tim.c ****                                     || ((__VALUE__) == LL_TIM_ICPSC_DIV4) \
  88:Drivers/STM32G0xx_HAL_Driver/Src/stm32g0xx_ll_tim.c ****                                     || ((__VALUE__) == LL_TIM_ICPSC_DIV8))
  89:Drivers/STM32G0xx_HAL_Driver/Src/stm32g0xx_ll_tim.c **** 
ARM GAS  /tmp/ccjNLvMu.s 			page 3


  90:Drivers/STM32G0xx_HAL_Driver/Src/stm32g0xx_ll_tim.c **** #define IS_LL_TIM_IC_FILTER(__VALUE__) (((__VALUE__) == LL_TIM_IC_FILTER_FDIV1) \
  91:Drivers/STM32G0xx_HAL_Driver/Src/stm32g0xx_ll_tim.c ****                                         || ((__VALUE__) == LL_TIM_IC_FILTER_FDIV1_N2) \
  92:Drivers/STM32G0xx_HAL_Driver/Src/stm32g0xx_ll_tim.c ****                                         || ((__VALUE__) == LL_TIM_IC_FILTER_FDIV1_N4) \
  93:Drivers/STM32G0xx_HAL_Driver/Src/stm32g0xx_ll_tim.c ****                                         || ((__VALUE__) == LL_TIM_IC_FILTER_FDIV1_N8) \
  94:Drivers/STM32G0xx_HAL_Driver/Src/stm32g0xx_ll_tim.c ****                                         || ((__VALUE__) == LL_TIM_IC_FILTER_FDIV2_N6) \
  95:Drivers/STM32G0xx_HAL_Driver/Src/stm32g0xx_ll_tim.c ****                                         || ((__VALUE__) == LL_TIM_IC_FILTER_FDIV2_N8) \
  96:Drivers/STM32G0xx_HAL_Driver/Src/stm32g0xx_ll_tim.c ****                                         || ((__VALUE__) == LL_TIM_IC_FILTER_FDIV4_N6) \
  97:Drivers/STM32G0xx_HAL_Driver/Src/stm32g0xx_ll_tim.c ****                                         || ((__VALUE__) == LL_TIM_IC_FILTER_FDIV4_N8) \
  98:Drivers/STM32G0xx_HAL_Driver/Src/stm32g0xx_ll_tim.c ****                                         || ((__VALUE__) == LL_TIM_IC_FILTER_FDIV8_N6) \
  99:Drivers/STM32G0xx_HAL_Driver/Src/stm32g0xx_ll_tim.c ****                                         || ((__VALUE__) == LL_TIM_IC_FILTER_FDIV8_N8) \
 100:Drivers/STM32G0xx_HAL_Driver/Src/stm32g0xx_ll_tim.c ****                                         || ((__VALUE__) == LL_TIM_IC_FILTER_FDIV16_N5) \
 101:Drivers/STM32G0xx_HAL_Driver/Src/stm32g0xx_ll_tim.c ****                                         || ((__VALUE__) == LL_TIM_IC_FILTER_FDIV16_N6) \
 102:Drivers/STM32G0xx_HAL_Driver/Src/stm32g0xx_ll_tim.c ****                                         || ((__VALUE__) == LL_TIM_IC_FILTER_FDIV16_N8) \
 103:Drivers/STM32G0xx_HAL_Driver/Src/stm32g0xx_ll_tim.c ****                                         || ((__VALUE__) == LL_TIM_IC_FILTER_FDIV32_N5) \
 104:Drivers/STM32G0xx_HAL_Driver/Src/stm32g0xx_ll_tim.c ****                                         || ((__VALUE__) == LL_TIM_IC_FILTER_FDIV32_N6) \
 105:Drivers/STM32G0xx_HAL_Driver/Src/stm32g0xx_ll_tim.c ****                                         || ((__VALUE__) == LL_TIM_IC_FILTER_FDIV32_N8))
 106:Drivers/STM32G0xx_HAL_Driver/Src/stm32g0xx_ll_tim.c **** 
 107:Drivers/STM32G0xx_HAL_Driver/Src/stm32g0xx_ll_tim.c **** #define IS_LL_TIM_IC_POLARITY(__VALUE__) (((__VALUE__) == LL_TIM_IC_POLARITY_RISING) \
 108:Drivers/STM32G0xx_HAL_Driver/Src/stm32g0xx_ll_tim.c ****                                           || ((__VALUE__) == LL_TIM_IC_POLARITY_FALLING) \
 109:Drivers/STM32G0xx_HAL_Driver/Src/stm32g0xx_ll_tim.c ****                                           || ((__VALUE__) == LL_TIM_IC_POLARITY_BOTHEDGE))
 110:Drivers/STM32G0xx_HAL_Driver/Src/stm32g0xx_ll_tim.c **** 
 111:Drivers/STM32G0xx_HAL_Driver/Src/stm32g0xx_ll_tim.c **** #define IS_LL_TIM_ENCODERMODE(__VALUE__) (((__VALUE__) == LL_TIM_ENCODERMODE_X2_TI1) \
 112:Drivers/STM32G0xx_HAL_Driver/Src/stm32g0xx_ll_tim.c ****                                           || ((__VALUE__) == LL_TIM_ENCODERMODE_X2_TI2) \
 113:Drivers/STM32G0xx_HAL_Driver/Src/stm32g0xx_ll_tim.c ****                                           || ((__VALUE__) == LL_TIM_ENCODERMODE_X4_TI12))
 114:Drivers/STM32G0xx_HAL_Driver/Src/stm32g0xx_ll_tim.c **** 
 115:Drivers/STM32G0xx_HAL_Driver/Src/stm32g0xx_ll_tim.c **** #define IS_LL_TIM_IC_POLARITY_ENCODER(__VALUE__) (((__VALUE__) == LL_TIM_IC_POLARITY_RISING) \
 116:Drivers/STM32G0xx_HAL_Driver/Src/stm32g0xx_ll_tim.c ****                                                   || ((__VALUE__) == LL_TIM_IC_POLARITY_FALLING))
 117:Drivers/STM32G0xx_HAL_Driver/Src/stm32g0xx_ll_tim.c **** 
 118:Drivers/STM32G0xx_HAL_Driver/Src/stm32g0xx_ll_tim.c **** #define IS_LL_TIM_OSSR_STATE(__VALUE__) (((__VALUE__) == LL_TIM_OSSR_DISABLE) \
 119:Drivers/STM32G0xx_HAL_Driver/Src/stm32g0xx_ll_tim.c ****                                          || ((__VALUE__) == LL_TIM_OSSR_ENABLE))
 120:Drivers/STM32G0xx_HAL_Driver/Src/stm32g0xx_ll_tim.c **** 
 121:Drivers/STM32G0xx_HAL_Driver/Src/stm32g0xx_ll_tim.c **** #define IS_LL_TIM_OSSI_STATE(__VALUE__) (((__VALUE__) == LL_TIM_OSSI_DISABLE) \
 122:Drivers/STM32G0xx_HAL_Driver/Src/stm32g0xx_ll_tim.c ****                                          || ((__VALUE__) == LL_TIM_OSSI_ENABLE))
 123:Drivers/STM32G0xx_HAL_Driver/Src/stm32g0xx_ll_tim.c **** 
 124:Drivers/STM32G0xx_HAL_Driver/Src/stm32g0xx_ll_tim.c **** #define IS_LL_TIM_LOCK_LEVEL(__VALUE__) (((__VALUE__) == LL_TIM_LOCKLEVEL_OFF) \
 125:Drivers/STM32G0xx_HAL_Driver/Src/stm32g0xx_ll_tim.c ****                                          || ((__VALUE__) == LL_TIM_LOCKLEVEL_1)   \
 126:Drivers/STM32G0xx_HAL_Driver/Src/stm32g0xx_ll_tim.c ****                                          || ((__VALUE__) == LL_TIM_LOCKLEVEL_2)   \
 127:Drivers/STM32G0xx_HAL_Driver/Src/stm32g0xx_ll_tim.c ****                                          || ((__VALUE__) == LL_TIM_LOCKLEVEL_3))
 128:Drivers/STM32G0xx_HAL_Driver/Src/stm32g0xx_ll_tim.c **** 
 129:Drivers/STM32G0xx_HAL_Driver/Src/stm32g0xx_ll_tim.c **** #define IS_LL_TIM_BREAK_STATE(__VALUE__) (((__VALUE__) == LL_TIM_BREAK_DISABLE) \
 130:Drivers/STM32G0xx_HAL_Driver/Src/stm32g0xx_ll_tim.c ****                                           || ((__VALUE__) == LL_TIM_BREAK_ENABLE))
 131:Drivers/STM32G0xx_HAL_Driver/Src/stm32g0xx_ll_tim.c **** 
 132:Drivers/STM32G0xx_HAL_Driver/Src/stm32g0xx_ll_tim.c **** #define IS_LL_TIM_BREAK_POLARITY(__VALUE__) (((__VALUE__) == LL_TIM_BREAK_POLARITY_LOW) \
 133:Drivers/STM32G0xx_HAL_Driver/Src/stm32g0xx_ll_tim.c ****                                              || ((__VALUE__) == LL_TIM_BREAK_POLARITY_HIGH))
 134:Drivers/STM32G0xx_HAL_Driver/Src/stm32g0xx_ll_tim.c **** 
 135:Drivers/STM32G0xx_HAL_Driver/Src/stm32g0xx_ll_tim.c **** #define IS_LL_TIM_BREAK_FILTER(__VALUE__) (((__VALUE__) == LL_TIM_BREAK_FILTER_FDIV1)     \
 136:Drivers/STM32G0xx_HAL_Driver/Src/stm32g0xx_ll_tim.c ****                                            || ((__VALUE__) == LL_TIM_BREAK_FILTER_FDIV1_N2)  \
 137:Drivers/STM32G0xx_HAL_Driver/Src/stm32g0xx_ll_tim.c ****                                            || ((__VALUE__) == LL_TIM_BREAK_FILTER_FDIV1_N4)  \
 138:Drivers/STM32G0xx_HAL_Driver/Src/stm32g0xx_ll_tim.c ****                                            || ((__VALUE__) == LL_TIM_BREAK_FILTER_FDIV1_N8)  \
 139:Drivers/STM32G0xx_HAL_Driver/Src/stm32g0xx_ll_tim.c ****                                            || ((__VALUE__) == LL_TIM_BREAK_FILTER_FDIV2_N6)  \
 140:Drivers/STM32G0xx_HAL_Driver/Src/stm32g0xx_ll_tim.c ****                                            || ((__VALUE__) == LL_TIM_BREAK_FILTER_FDIV2_N8)  \
 141:Drivers/STM32G0xx_HAL_Driver/Src/stm32g0xx_ll_tim.c ****                                            || ((__VALUE__) == LL_TIM_BREAK_FILTER_FDIV4_N6)  \
 142:Drivers/STM32G0xx_HAL_Driver/Src/stm32g0xx_ll_tim.c ****                                            || ((__VALUE__) == LL_TIM_BREAK_FILTER_FDIV4_N8)  \
 143:Drivers/STM32G0xx_HAL_Driver/Src/stm32g0xx_ll_tim.c ****                                            || ((__VALUE__) == LL_TIM_BREAK_FILTER_FDIV8_N6)  \
 144:Drivers/STM32G0xx_HAL_Driver/Src/stm32g0xx_ll_tim.c ****                                            || ((__VALUE__) == LL_TIM_BREAK_FILTER_FDIV8_N8)  \
 145:Drivers/STM32G0xx_HAL_Driver/Src/stm32g0xx_ll_tim.c ****                                            || ((__VALUE__) == LL_TIM_BREAK_FILTER_FDIV16_N5) \
 146:Drivers/STM32G0xx_HAL_Driver/Src/stm32g0xx_ll_tim.c ****                                            || ((__VALUE__) == LL_TIM_BREAK_FILTER_FDIV16_N6) \
ARM GAS  /tmp/ccjNLvMu.s 			page 4


 147:Drivers/STM32G0xx_HAL_Driver/Src/stm32g0xx_ll_tim.c ****                                            || ((__VALUE__) == LL_TIM_BREAK_FILTER_FDIV16_N8) \
 148:Drivers/STM32G0xx_HAL_Driver/Src/stm32g0xx_ll_tim.c ****                                            || ((__VALUE__) == LL_TIM_BREAK_FILTER_FDIV32_N5) \
 149:Drivers/STM32G0xx_HAL_Driver/Src/stm32g0xx_ll_tim.c ****                                            || ((__VALUE__) == LL_TIM_BREAK_FILTER_FDIV32_N6) \
 150:Drivers/STM32G0xx_HAL_Driver/Src/stm32g0xx_ll_tim.c ****                                            || ((__VALUE__) == LL_TIM_BREAK_FILTER_FDIV32_N8))
 151:Drivers/STM32G0xx_HAL_Driver/Src/stm32g0xx_ll_tim.c **** 
 152:Drivers/STM32G0xx_HAL_Driver/Src/stm32g0xx_ll_tim.c **** #define IS_LL_TIM_BREAK_AFMODE(__VALUE__) (((__VALUE__) == LL_TIM_BREAK_AFMODE_INPUT)          \
 153:Drivers/STM32G0xx_HAL_Driver/Src/stm32g0xx_ll_tim.c ****                                            || ((__VALUE__) == LL_TIM_BREAK_AFMODE_BIDIRECTIONAL))
 154:Drivers/STM32G0xx_HAL_Driver/Src/stm32g0xx_ll_tim.c **** 
 155:Drivers/STM32G0xx_HAL_Driver/Src/stm32g0xx_ll_tim.c **** #define IS_LL_TIM_BREAK2_STATE(__VALUE__) (((__VALUE__) == LL_TIM_BREAK2_DISABLE) \
 156:Drivers/STM32G0xx_HAL_Driver/Src/stm32g0xx_ll_tim.c ****                                            || ((__VALUE__) == LL_TIM_BREAK2_ENABLE))
 157:Drivers/STM32G0xx_HAL_Driver/Src/stm32g0xx_ll_tim.c **** 
 158:Drivers/STM32G0xx_HAL_Driver/Src/stm32g0xx_ll_tim.c **** #define IS_LL_TIM_BREAK2_POLARITY(__VALUE__) (((__VALUE__) == LL_TIM_BREAK2_POLARITY_LOW) \
 159:Drivers/STM32G0xx_HAL_Driver/Src/stm32g0xx_ll_tim.c ****                                               || ((__VALUE__) == LL_TIM_BREAK2_POLARITY_HIGH))
 160:Drivers/STM32G0xx_HAL_Driver/Src/stm32g0xx_ll_tim.c **** 
 161:Drivers/STM32G0xx_HAL_Driver/Src/stm32g0xx_ll_tim.c **** #define IS_LL_TIM_BREAK2_FILTER(__VALUE__) (((__VALUE__) == LL_TIM_BREAK2_FILTER_FDIV1)    \
 162:Drivers/STM32G0xx_HAL_Driver/Src/stm32g0xx_ll_tim.c ****                                             || ((__VALUE__) == LL_TIM_BREAK2_FILTER_FDIV1_N2)  \
 163:Drivers/STM32G0xx_HAL_Driver/Src/stm32g0xx_ll_tim.c ****                                             || ((__VALUE__) == LL_TIM_BREAK2_FILTER_FDIV1_N4)  \
 164:Drivers/STM32G0xx_HAL_Driver/Src/stm32g0xx_ll_tim.c ****                                             || ((__VALUE__) == LL_TIM_BREAK2_FILTER_FDIV1_N8)  \
 165:Drivers/STM32G0xx_HAL_Driver/Src/stm32g0xx_ll_tim.c ****                                             || ((__VALUE__) == LL_TIM_BREAK2_FILTER_FDIV2_N6)  \
 166:Drivers/STM32G0xx_HAL_Driver/Src/stm32g0xx_ll_tim.c ****                                             || ((__VALUE__) == LL_TIM_BREAK2_FILTER_FDIV2_N8)  \
 167:Drivers/STM32G0xx_HAL_Driver/Src/stm32g0xx_ll_tim.c ****                                             || ((__VALUE__) == LL_TIM_BREAK2_FILTER_FDIV4_N6)  \
 168:Drivers/STM32G0xx_HAL_Driver/Src/stm32g0xx_ll_tim.c ****                                             || ((__VALUE__) == LL_TIM_BREAK2_FILTER_FDIV4_N8)  \
 169:Drivers/STM32G0xx_HAL_Driver/Src/stm32g0xx_ll_tim.c ****                                             || ((__VALUE__) == LL_TIM_BREAK2_FILTER_FDIV8_N6)  \
 170:Drivers/STM32G0xx_HAL_Driver/Src/stm32g0xx_ll_tim.c ****                                             || ((__VALUE__) == LL_TIM_BREAK2_FILTER_FDIV8_N8)  \
 171:Drivers/STM32G0xx_HAL_Driver/Src/stm32g0xx_ll_tim.c ****                                             || ((__VALUE__) == LL_TIM_BREAK2_FILTER_FDIV16_N5) \
 172:Drivers/STM32G0xx_HAL_Driver/Src/stm32g0xx_ll_tim.c ****                                             || ((__VALUE__) == LL_TIM_BREAK2_FILTER_FDIV16_N6) \
 173:Drivers/STM32G0xx_HAL_Driver/Src/stm32g0xx_ll_tim.c ****                                             || ((__VALUE__) == LL_TIM_BREAK2_FILTER_FDIV16_N8) \
 174:Drivers/STM32G0xx_HAL_Driver/Src/stm32g0xx_ll_tim.c ****                                             || ((__VALUE__) == LL_TIM_BREAK2_FILTER_FDIV32_N5) \
 175:Drivers/STM32G0xx_HAL_Driver/Src/stm32g0xx_ll_tim.c ****                                             || ((__VALUE__) == LL_TIM_BREAK2_FILTER_FDIV32_N6) \
 176:Drivers/STM32G0xx_HAL_Driver/Src/stm32g0xx_ll_tim.c ****                                             || ((__VALUE__) == LL_TIM_BREAK2_FILTER_FDIV32_N8))
 177:Drivers/STM32G0xx_HAL_Driver/Src/stm32g0xx_ll_tim.c **** 
 178:Drivers/STM32G0xx_HAL_Driver/Src/stm32g0xx_ll_tim.c **** #define IS_LL_TIM_BREAK2_AFMODE(__VALUE__) (((__VALUE__) == LL_TIM_BREAK2_AFMODE_INPUT)       \
 179:Drivers/STM32G0xx_HAL_Driver/Src/stm32g0xx_ll_tim.c ****                                             || ((__VALUE__) == LL_TIM_BREAK2_AFMODE_BIDIRECTIONAL))
 180:Drivers/STM32G0xx_HAL_Driver/Src/stm32g0xx_ll_tim.c **** 
 181:Drivers/STM32G0xx_HAL_Driver/Src/stm32g0xx_ll_tim.c **** #define IS_LL_TIM_AUTOMATIC_OUTPUT_STATE(__VALUE__) (((__VALUE__) == LL_TIM_AUTOMATICOUTPUT_DISABLE
 182:Drivers/STM32G0xx_HAL_Driver/Src/stm32g0xx_ll_tim.c ****                                                      || ((__VALUE__) == LL_TIM_AUTOMATICOUTPUT_ENAB
 183:Drivers/STM32G0xx_HAL_Driver/Src/stm32g0xx_ll_tim.c **** /**
 184:Drivers/STM32G0xx_HAL_Driver/Src/stm32g0xx_ll_tim.c ****   * @}
 185:Drivers/STM32G0xx_HAL_Driver/Src/stm32g0xx_ll_tim.c ****   */
 186:Drivers/STM32G0xx_HAL_Driver/Src/stm32g0xx_ll_tim.c **** 
 187:Drivers/STM32G0xx_HAL_Driver/Src/stm32g0xx_ll_tim.c **** 
 188:Drivers/STM32G0xx_HAL_Driver/Src/stm32g0xx_ll_tim.c **** /* Private function prototypes -----------------------------------------------*/
 189:Drivers/STM32G0xx_HAL_Driver/Src/stm32g0xx_ll_tim.c **** /** @defgroup TIM_LL_Private_Functions TIM Private Functions
 190:Drivers/STM32G0xx_HAL_Driver/Src/stm32g0xx_ll_tim.c ****   * @{
 191:Drivers/STM32G0xx_HAL_Driver/Src/stm32g0xx_ll_tim.c ****   */
 192:Drivers/STM32G0xx_HAL_Driver/Src/stm32g0xx_ll_tim.c **** static ErrorStatus OC1Config(TIM_TypeDef *TIMx, const LL_TIM_OC_InitTypeDef *TIM_OCInitStruct);
 193:Drivers/STM32G0xx_HAL_Driver/Src/stm32g0xx_ll_tim.c **** static ErrorStatus OC2Config(TIM_TypeDef *TIMx, const LL_TIM_OC_InitTypeDef *TIM_OCInitStruct);
 194:Drivers/STM32G0xx_HAL_Driver/Src/stm32g0xx_ll_tim.c **** static ErrorStatus OC3Config(TIM_TypeDef *TIMx, const LL_TIM_OC_InitTypeDef *TIM_OCInitStruct);
 195:Drivers/STM32G0xx_HAL_Driver/Src/stm32g0xx_ll_tim.c **** static ErrorStatus OC4Config(TIM_TypeDef *TIMx, const LL_TIM_OC_InitTypeDef *TIM_OCInitStruct);
 196:Drivers/STM32G0xx_HAL_Driver/Src/stm32g0xx_ll_tim.c **** static ErrorStatus OC5Config(TIM_TypeDef *TIMx, const LL_TIM_OC_InitTypeDef *TIM_OCInitStruct);
 197:Drivers/STM32G0xx_HAL_Driver/Src/stm32g0xx_ll_tim.c **** static ErrorStatus OC6Config(TIM_TypeDef *TIMx, const LL_TIM_OC_InitTypeDef *TIM_OCInitStruct);
 198:Drivers/STM32G0xx_HAL_Driver/Src/stm32g0xx_ll_tim.c **** static ErrorStatus IC1Config(TIM_TypeDef *TIMx, const LL_TIM_IC_InitTypeDef *TIM_ICInitStruct);
 199:Drivers/STM32G0xx_HAL_Driver/Src/stm32g0xx_ll_tim.c **** static ErrorStatus IC2Config(TIM_TypeDef *TIMx, const LL_TIM_IC_InitTypeDef *TIM_ICInitStruct);
 200:Drivers/STM32G0xx_HAL_Driver/Src/stm32g0xx_ll_tim.c **** static ErrorStatus IC3Config(TIM_TypeDef *TIMx, const LL_TIM_IC_InitTypeDef *TIM_ICInitStruct);
 201:Drivers/STM32G0xx_HAL_Driver/Src/stm32g0xx_ll_tim.c **** static ErrorStatus IC4Config(TIM_TypeDef *TIMx, const LL_TIM_IC_InitTypeDef *TIM_ICInitStruct);
 202:Drivers/STM32G0xx_HAL_Driver/Src/stm32g0xx_ll_tim.c **** /**
 203:Drivers/STM32G0xx_HAL_Driver/Src/stm32g0xx_ll_tim.c ****   * @}
ARM GAS  /tmp/ccjNLvMu.s 			page 5


 204:Drivers/STM32G0xx_HAL_Driver/Src/stm32g0xx_ll_tim.c ****   */
 205:Drivers/STM32G0xx_HAL_Driver/Src/stm32g0xx_ll_tim.c **** 
 206:Drivers/STM32G0xx_HAL_Driver/Src/stm32g0xx_ll_tim.c **** /* Exported functions --------------------------------------------------------*/
 207:Drivers/STM32G0xx_HAL_Driver/Src/stm32g0xx_ll_tim.c **** /** @addtogroup TIM_LL_Exported_Functions
 208:Drivers/STM32G0xx_HAL_Driver/Src/stm32g0xx_ll_tim.c ****   * @{
 209:Drivers/STM32G0xx_HAL_Driver/Src/stm32g0xx_ll_tim.c ****   */
 210:Drivers/STM32G0xx_HAL_Driver/Src/stm32g0xx_ll_tim.c **** 
 211:Drivers/STM32G0xx_HAL_Driver/Src/stm32g0xx_ll_tim.c **** /** @addtogroup TIM_LL_EF_Init
 212:Drivers/STM32G0xx_HAL_Driver/Src/stm32g0xx_ll_tim.c ****   * @{
 213:Drivers/STM32G0xx_HAL_Driver/Src/stm32g0xx_ll_tim.c ****   */
 214:Drivers/STM32G0xx_HAL_Driver/Src/stm32g0xx_ll_tim.c **** 
 215:Drivers/STM32G0xx_HAL_Driver/Src/stm32g0xx_ll_tim.c **** /**
 216:Drivers/STM32G0xx_HAL_Driver/Src/stm32g0xx_ll_tim.c ****   * @brief  Set TIMx registers to their reset values.
 217:Drivers/STM32G0xx_HAL_Driver/Src/stm32g0xx_ll_tim.c ****   * @param  TIMx Timer instance
 218:Drivers/STM32G0xx_HAL_Driver/Src/stm32g0xx_ll_tim.c ****   * @retval An ErrorStatus enumeration value:
 219:Drivers/STM32G0xx_HAL_Driver/Src/stm32g0xx_ll_tim.c ****   *          - SUCCESS: TIMx registers are de-initialized
 220:Drivers/STM32G0xx_HAL_Driver/Src/stm32g0xx_ll_tim.c ****   *          - ERROR: invalid TIMx instance
 221:Drivers/STM32G0xx_HAL_Driver/Src/stm32g0xx_ll_tim.c ****   */
 222:Drivers/STM32G0xx_HAL_Driver/Src/stm32g0xx_ll_tim.c **** ErrorStatus LL_TIM_DeInit(const TIM_TypeDef *TIMx)
 223:Drivers/STM32G0xx_HAL_Driver/Src/stm32g0xx_ll_tim.c **** {
 224:Drivers/STM32G0xx_HAL_Driver/Src/stm32g0xx_ll_tim.c ****   ErrorStatus result = SUCCESS;
 225:Drivers/STM32G0xx_HAL_Driver/Src/stm32g0xx_ll_tim.c **** 
 226:Drivers/STM32G0xx_HAL_Driver/Src/stm32g0xx_ll_tim.c ****   /* Check the parameters */
 227:Drivers/STM32G0xx_HAL_Driver/Src/stm32g0xx_ll_tim.c ****   assert_param(IS_TIM_INSTANCE(TIMx));
 228:Drivers/STM32G0xx_HAL_Driver/Src/stm32g0xx_ll_tim.c **** 
 229:Drivers/STM32G0xx_HAL_Driver/Src/stm32g0xx_ll_tim.c ****   if (TIMx == TIM1)
 230:Drivers/STM32G0xx_HAL_Driver/Src/stm32g0xx_ll_tim.c ****   {
 231:Drivers/STM32G0xx_HAL_Driver/Src/stm32g0xx_ll_tim.c ****     LL_APB2_GRP1_ForceReset(LL_APB2_GRP1_PERIPH_TIM1);
 232:Drivers/STM32G0xx_HAL_Driver/Src/stm32g0xx_ll_tim.c ****     LL_APB2_GRP1_ReleaseReset(LL_APB2_GRP1_PERIPH_TIM1);
 233:Drivers/STM32G0xx_HAL_Driver/Src/stm32g0xx_ll_tim.c ****   }
 234:Drivers/STM32G0xx_HAL_Driver/Src/stm32g0xx_ll_tim.c **** #if defined(TIM2)
 235:Drivers/STM32G0xx_HAL_Driver/Src/stm32g0xx_ll_tim.c ****   else if (TIMx == TIM2)
 236:Drivers/STM32G0xx_HAL_Driver/Src/stm32g0xx_ll_tim.c ****   {
 237:Drivers/STM32G0xx_HAL_Driver/Src/stm32g0xx_ll_tim.c ****     LL_APB1_GRP1_ForceReset(LL_APB1_GRP1_PERIPH_TIM2);
 238:Drivers/STM32G0xx_HAL_Driver/Src/stm32g0xx_ll_tim.c ****     LL_APB1_GRP1_ReleaseReset(LL_APB1_GRP1_PERIPH_TIM2);
 239:Drivers/STM32G0xx_HAL_Driver/Src/stm32g0xx_ll_tim.c ****   }
 240:Drivers/STM32G0xx_HAL_Driver/Src/stm32g0xx_ll_tim.c **** #endif /* TIM2 */
 241:Drivers/STM32G0xx_HAL_Driver/Src/stm32g0xx_ll_tim.c **** #if defined(TIM3)
 242:Drivers/STM32G0xx_HAL_Driver/Src/stm32g0xx_ll_tim.c ****   else if (TIMx == TIM3)
 243:Drivers/STM32G0xx_HAL_Driver/Src/stm32g0xx_ll_tim.c ****   {
 244:Drivers/STM32G0xx_HAL_Driver/Src/stm32g0xx_ll_tim.c ****     LL_APB1_GRP1_ForceReset(LL_APB1_GRP1_PERIPH_TIM3);
 245:Drivers/STM32G0xx_HAL_Driver/Src/stm32g0xx_ll_tim.c ****     LL_APB1_GRP1_ReleaseReset(LL_APB1_GRP1_PERIPH_TIM3);
 246:Drivers/STM32G0xx_HAL_Driver/Src/stm32g0xx_ll_tim.c ****   }
 247:Drivers/STM32G0xx_HAL_Driver/Src/stm32g0xx_ll_tim.c **** #endif /* TIM3 */
 248:Drivers/STM32G0xx_HAL_Driver/Src/stm32g0xx_ll_tim.c **** #if defined(TIM4)
 249:Drivers/STM32G0xx_HAL_Driver/Src/stm32g0xx_ll_tim.c ****   else if (TIMx == TIM4)
 250:Drivers/STM32G0xx_HAL_Driver/Src/stm32g0xx_ll_tim.c ****   {
 251:Drivers/STM32G0xx_HAL_Driver/Src/stm32g0xx_ll_tim.c ****     LL_APB1_GRP1_ForceReset(LL_APB1_GRP1_PERIPH_TIM4);
 252:Drivers/STM32G0xx_HAL_Driver/Src/stm32g0xx_ll_tim.c ****     LL_APB1_GRP1_ReleaseReset(LL_APB1_GRP1_PERIPH_TIM4);
 253:Drivers/STM32G0xx_HAL_Driver/Src/stm32g0xx_ll_tim.c ****   }
 254:Drivers/STM32G0xx_HAL_Driver/Src/stm32g0xx_ll_tim.c **** #endif /* TIM4 */
 255:Drivers/STM32G0xx_HAL_Driver/Src/stm32g0xx_ll_tim.c **** #if defined(TIM6)
 256:Drivers/STM32G0xx_HAL_Driver/Src/stm32g0xx_ll_tim.c ****   else if (TIMx == TIM6)
 257:Drivers/STM32G0xx_HAL_Driver/Src/stm32g0xx_ll_tim.c ****   {
 258:Drivers/STM32G0xx_HAL_Driver/Src/stm32g0xx_ll_tim.c ****     LL_APB1_GRP1_ForceReset(LL_APB1_GRP1_PERIPH_TIM6);
 259:Drivers/STM32G0xx_HAL_Driver/Src/stm32g0xx_ll_tim.c ****     LL_APB1_GRP1_ReleaseReset(LL_APB1_GRP1_PERIPH_TIM6);
 260:Drivers/STM32G0xx_HAL_Driver/Src/stm32g0xx_ll_tim.c ****   }
ARM GAS  /tmp/ccjNLvMu.s 			page 6


 261:Drivers/STM32G0xx_HAL_Driver/Src/stm32g0xx_ll_tim.c **** #endif /* TIM6 */
 262:Drivers/STM32G0xx_HAL_Driver/Src/stm32g0xx_ll_tim.c **** #if defined(TIM7)
 263:Drivers/STM32G0xx_HAL_Driver/Src/stm32g0xx_ll_tim.c ****   else if (TIMx == TIM7)
 264:Drivers/STM32G0xx_HAL_Driver/Src/stm32g0xx_ll_tim.c ****   {
 265:Drivers/STM32G0xx_HAL_Driver/Src/stm32g0xx_ll_tim.c ****     LL_APB1_GRP1_ForceReset(LL_APB1_GRP1_PERIPH_TIM7);
 266:Drivers/STM32G0xx_HAL_Driver/Src/stm32g0xx_ll_tim.c ****     LL_APB1_GRP1_ReleaseReset(LL_APB1_GRP1_PERIPH_TIM7);
 267:Drivers/STM32G0xx_HAL_Driver/Src/stm32g0xx_ll_tim.c ****   }
 268:Drivers/STM32G0xx_HAL_Driver/Src/stm32g0xx_ll_tim.c **** #endif /* TIM7 */
 269:Drivers/STM32G0xx_HAL_Driver/Src/stm32g0xx_ll_tim.c ****   else if (TIMx == TIM14)
 270:Drivers/STM32G0xx_HAL_Driver/Src/stm32g0xx_ll_tim.c ****   {
 271:Drivers/STM32G0xx_HAL_Driver/Src/stm32g0xx_ll_tim.c ****     LL_APB2_GRP1_ForceReset(LL_APB2_GRP1_PERIPH_TIM14);
 272:Drivers/STM32G0xx_HAL_Driver/Src/stm32g0xx_ll_tim.c ****     LL_APB2_GRP1_ReleaseReset(LL_APB2_GRP1_PERIPH_TIM14);
 273:Drivers/STM32G0xx_HAL_Driver/Src/stm32g0xx_ll_tim.c ****   }
 274:Drivers/STM32G0xx_HAL_Driver/Src/stm32g0xx_ll_tim.c **** #if defined(TIM15)
 275:Drivers/STM32G0xx_HAL_Driver/Src/stm32g0xx_ll_tim.c ****   else if (TIMx == TIM15)
 276:Drivers/STM32G0xx_HAL_Driver/Src/stm32g0xx_ll_tim.c ****   {
 277:Drivers/STM32G0xx_HAL_Driver/Src/stm32g0xx_ll_tim.c ****     LL_APB2_GRP1_ForceReset(LL_APB2_GRP1_PERIPH_TIM15);
 278:Drivers/STM32G0xx_HAL_Driver/Src/stm32g0xx_ll_tim.c ****     LL_APB2_GRP1_ReleaseReset(LL_APB2_GRP1_PERIPH_TIM15);
 279:Drivers/STM32G0xx_HAL_Driver/Src/stm32g0xx_ll_tim.c ****   }
 280:Drivers/STM32G0xx_HAL_Driver/Src/stm32g0xx_ll_tim.c **** #endif /* TIM15 */
 281:Drivers/STM32G0xx_HAL_Driver/Src/stm32g0xx_ll_tim.c ****   else if (TIMx == TIM16)
 282:Drivers/STM32G0xx_HAL_Driver/Src/stm32g0xx_ll_tim.c ****   {
 283:Drivers/STM32G0xx_HAL_Driver/Src/stm32g0xx_ll_tim.c ****     LL_APB2_GRP1_ForceReset(LL_APB2_GRP1_PERIPH_TIM16);
 284:Drivers/STM32G0xx_HAL_Driver/Src/stm32g0xx_ll_tim.c ****     LL_APB2_GRP1_ReleaseReset(LL_APB2_GRP1_PERIPH_TIM16);
 285:Drivers/STM32G0xx_HAL_Driver/Src/stm32g0xx_ll_tim.c ****   }
 286:Drivers/STM32G0xx_HAL_Driver/Src/stm32g0xx_ll_tim.c **** #if defined(TIM17)
 287:Drivers/STM32G0xx_HAL_Driver/Src/stm32g0xx_ll_tim.c ****   else if (TIMx == TIM17)
 288:Drivers/STM32G0xx_HAL_Driver/Src/stm32g0xx_ll_tim.c ****   {
 289:Drivers/STM32G0xx_HAL_Driver/Src/stm32g0xx_ll_tim.c ****     LL_APB2_GRP1_ForceReset(LL_APB2_GRP1_PERIPH_TIM17);
 290:Drivers/STM32G0xx_HAL_Driver/Src/stm32g0xx_ll_tim.c ****     LL_APB2_GRP1_ReleaseReset(LL_APB2_GRP1_PERIPH_TIM17);
 291:Drivers/STM32G0xx_HAL_Driver/Src/stm32g0xx_ll_tim.c ****   }
 292:Drivers/STM32G0xx_HAL_Driver/Src/stm32g0xx_ll_tim.c **** #endif /* TIM17 */
 293:Drivers/STM32G0xx_HAL_Driver/Src/stm32g0xx_ll_tim.c ****   else
 294:Drivers/STM32G0xx_HAL_Driver/Src/stm32g0xx_ll_tim.c ****   {
 295:Drivers/STM32G0xx_HAL_Driver/Src/stm32g0xx_ll_tim.c ****     result = ERROR;
 296:Drivers/STM32G0xx_HAL_Driver/Src/stm32g0xx_ll_tim.c ****   }
 297:Drivers/STM32G0xx_HAL_Driver/Src/stm32g0xx_ll_tim.c **** 
 298:Drivers/STM32G0xx_HAL_Driver/Src/stm32g0xx_ll_tim.c ****   return result;
 299:Drivers/STM32G0xx_HAL_Driver/Src/stm32g0xx_ll_tim.c **** }
 300:Drivers/STM32G0xx_HAL_Driver/Src/stm32g0xx_ll_tim.c **** 
 301:Drivers/STM32G0xx_HAL_Driver/Src/stm32g0xx_ll_tim.c **** /**
 302:Drivers/STM32G0xx_HAL_Driver/Src/stm32g0xx_ll_tim.c ****   * @brief  Set the fields of the time base unit configuration data structure
 303:Drivers/STM32G0xx_HAL_Driver/Src/stm32g0xx_ll_tim.c ****   *         to their default values.
 304:Drivers/STM32G0xx_HAL_Driver/Src/stm32g0xx_ll_tim.c ****   * @param  TIM_InitStruct pointer to a @ref LL_TIM_InitTypeDef structure (time base unit configura
 305:Drivers/STM32G0xx_HAL_Driver/Src/stm32g0xx_ll_tim.c ****   * @retval None
 306:Drivers/STM32G0xx_HAL_Driver/Src/stm32g0xx_ll_tim.c ****   */
 307:Drivers/STM32G0xx_HAL_Driver/Src/stm32g0xx_ll_tim.c **** void LL_TIM_StructInit(LL_TIM_InitTypeDef *TIM_InitStruct)
 308:Drivers/STM32G0xx_HAL_Driver/Src/stm32g0xx_ll_tim.c **** {
 309:Drivers/STM32G0xx_HAL_Driver/Src/stm32g0xx_ll_tim.c ****   /* Set the default configuration */
 310:Drivers/STM32G0xx_HAL_Driver/Src/stm32g0xx_ll_tim.c ****   TIM_InitStruct->Prescaler         = (uint16_t)0x0000;
 311:Drivers/STM32G0xx_HAL_Driver/Src/stm32g0xx_ll_tim.c ****   TIM_InitStruct->CounterMode       = LL_TIM_COUNTERMODE_UP;
 312:Drivers/STM32G0xx_HAL_Driver/Src/stm32g0xx_ll_tim.c ****   TIM_InitStruct->Autoreload        = 0xFFFFFFFFU;
 313:Drivers/STM32G0xx_HAL_Driver/Src/stm32g0xx_ll_tim.c ****   TIM_InitStruct->ClockDivision     = LL_TIM_CLOCKDIVISION_DIV1;
 314:Drivers/STM32G0xx_HAL_Driver/Src/stm32g0xx_ll_tim.c ****   TIM_InitStruct->RepetitionCounter = 0x00000000U;
 315:Drivers/STM32G0xx_HAL_Driver/Src/stm32g0xx_ll_tim.c **** }
 316:Drivers/STM32G0xx_HAL_Driver/Src/stm32g0xx_ll_tim.c **** 
 317:Drivers/STM32G0xx_HAL_Driver/Src/stm32g0xx_ll_tim.c **** /**
ARM GAS  /tmp/ccjNLvMu.s 			page 7


 318:Drivers/STM32G0xx_HAL_Driver/Src/stm32g0xx_ll_tim.c ****   * @brief  Configure the TIMx time base unit.
 319:Drivers/STM32G0xx_HAL_Driver/Src/stm32g0xx_ll_tim.c ****   * @param  TIMx Timer Instance
 320:Drivers/STM32G0xx_HAL_Driver/Src/stm32g0xx_ll_tim.c ****   * @param  TIM_InitStruct pointer to a @ref LL_TIM_InitTypeDef structure
 321:Drivers/STM32G0xx_HAL_Driver/Src/stm32g0xx_ll_tim.c ****   *         (TIMx time base unit configuration data structure)
 322:Drivers/STM32G0xx_HAL_Driver/Src/stm32g0xx_ll_tim.c ****   * @retval An ErrorStatus enumeration value:
 323:Drivers/STM32G0xx_HAL_Driver/Src/stm32g0xx_ll_tim.c ****   *          - SUCCESS: TIMx registers are de-initialized
 324:Drivers/STM32G0xx_HAL_Driver/Src/stm32g0xx_ll_tim.c ****   *          - ERROR: not applicable
 325:Drivers/STM32G0xx_HAL_Driver/Src/stm32g0xx_ll_tim.c ****   */
 326:Drivers/STM32G0xx_HAL_Driver/Src/stm32g0xx_ll_tim.c **** ErrorStatus LL_TIM_Init(TIM_TypeDef *TIMx, const LL_TIM_InitTypeDef *TIM_InitStruct)
 327:Drivers/STM32G0xx_HAL_Driver/Src/stm32g0xx_ll_tim.c **** {
 328:Drivers/STM32G0xx_HAL_Driver/Src/stm32g0xx_ll_tim.c ****   uint32_t tmpcr1;
 329:Drivers/STM32G0xx_HAL_Driver/Src/stm32g0xx_ll_tim.c **** 
 330:Drivers/STM32G0xx_HAL_Driver/Src/stm32g0xx_ll_tim.c ****   /* Check the parameters */
 331:Drivers/STM32G0xx_HAL_Driver/Src/stm32g0xx_ll_tim.c ****   assert_param(IS_TIM_INSTANCE(TIMx));
 332:Drivers/STM32G0xx_HAL_Driver/Src/stm32g0xx_ll_tim.c ****   assert_param(IS_LL_TIM_COUNTERMODE(TIM_InitStruct->CounterMode));
 333:Drivers/STM32G0xx_HAL_Driver/Src/stm32g0xx_ll_tim.c ****   assert_param(IS_LL_TIM_CLOCKDIVISION(TIM_InitStruct->ClockDivision));
 334:Drivers/STM32G0xx_HAL_Driver/Src/stm32g0xx_ll_tim.c **** 
 335:Drivers/STM32G0xx_HAL_Driver/Src/stm32g0xx_ll_tim.c ****   tmpcr1 = LL_TIM_ReadReg(TIMx, CR1);
 336:Drivers/STM32G0xx_HAL_Driver/Src/stm32g0xx_ll_tim.c **** 
 337:Drivers/STM32G0xx_HAL_Driver/Src/stm32g0xx_ll_tim.c ****   if (IS_TIM_COUNTER_MODE_SELECT_INSTANCE(TIMx))
 338:Drivers/STM32G0xx_HAL_Driver/Src/stm32g0xx_ll_tim.c ****   {
 339:Drivers/STM32G0xx_HAL_Driver/Src/stm32g0xx_ll_tim.c ****     /* Select the Counter Mode */
 340:Drivers/STM32G0xx_HAL_Driver/Src/stm32g0xx_ll_tim.c ****     MODIFY_REG(tmpcr1, (TIM_CR1_DIR | TIM_CR1_CMS), TIM_InitStruct->CounterMode);
 341:Drivers/STM32G0xx_HAL_Driver/Src/stm32g0xx_ll_tim.c ****   }
 342:Drivers/STM32G0xx_HAL_Driver/Src/stm32g0xx_ll_tim.c **** 
 343:Drivers/STM32G0xx_HAL_Driver/Src/stm32g0xx_ll_tim.c ****   if (IS_TIM_CLOCK_DIVISION_INSTANCE(TIMx))
 344:Drivers/STM32G0xx_HAL_Driver/Src/stm32g0xx_ll_tim.c ****   {
 345:Drivers/STM32G0xx_HAL_Driver/Src/stm32g0xx_ll_tim.c ****     /* Set the clock division */
 346:Drivers/STM32G0xx_HAL_Driver/Src/stm32g0xx_ll_tim.c ****     MODIFY_REG(tmpcr1, TIM_CR1_CKD, TIM_InitStruct->ClockDivision);
 347:Drivers/STM32G0xx_HAL_Driver/Src/stm32g0xx_ll_tim.c ****   }
 348:Drivers/STM32G0xx_HAL_Driver/Src/stm32g0xx_ll_tim.c **** 
 349:Drivers/STM32G0xx_HAL_Driver/Src/stm32g0xx_ll_tim.c ****   /* Write to TIMx CR1 */
 350:Drivers/STM32G0xx_HAL_Driver/Src/stm32g0xx_ll_tim.c ****   LL_TIM_WriteReg(TIMx, CR1, tmpcr1);
 351:Drivers/STM32G0xx_HAL_Driver/Src/stm32g0xx_ll_tim.c **** 
 352:Drivers/STM32G0xx_HAL_Driver/Src/stm32g0xx_ll_tim.c ****   /* Set the Autoreload value */
 353:Drivers/STM32G0xx_HAL_Driver/Src/stm32g0xx_ll_tim.c ****   LL_TIM_SetAutoReload(TIMx, TIM_InitStruct->Autoreload);
 354:Drivers/STM32G0xx_HAL_Driver/Src/stm32g0xx_ll_tim.c **** 
 355:Drivers/STM32G0xx_HAL_Driver/Src/stm32g0xx_ll_tim.c ****   /* Set the Prescaler value */
 356:Drivers/STM32G0xx_HAL_Driver/Src/stm32g0xx_ll_tim.c ****   LL_TIM_SetPrescaler(TIMx, TIM_InitStruct->Prescaler);
 357:Drivers/STM32G0xx_HAL_Driver/Src/stm32g0xx_ll_tim.c **** 
 358:Drivers/STM32G0xx_HAL_Driver/Src/stm32g0xx_ll_tim.c ****   if (IS_TIM_REPETITION_COUNTER_INSTANCE(TIMx))
 359:Drivers/STM32G0xx_HAL_Driver/Src/stm32g0xx_ll_tim.c ****   {
 360:Drivers/STM32G0xx_HAL_Driver/Src/stm32g0xx_ll_tim.c ****     /* Set the Repetition Counter value */
 361:Drivers/STM32G0xx_HAL_Driver/Src/stm32g0xx_ll_tim.c ****     LL_TIM_SetRepetitionCounter(TIMx, TIM_InitStruct->RepetitionCounter);
 362:Drivers/STM32G0xx_HAL_Driver/Src/stm32g0xx_ll_tim.c ****   }
 363:Drivers/STM32G0xx_HAL_Driver/Src/stm32g0xx_ll_tim.c **** 
 364:Drivers/STM32G0xx_HAL_Driver/Src/stm32g0xx_ll_tim.c ****   /* Generate an update event to reload the Prescaler
 365:Drivers/STM32G0xx_HAL_Driver/Src/stm32g0xx_ll_tim.c ****      and the repetition counter value (if applicable) immediately */
 366:Drivers/STM32G0xx_HAL_Driver/Src/stm32g0xx_ll_tim.c ****   LL_TIM_GenerateEvent_UPDATE(TIMx);
 367:Drivers/STM32G0xx_HAL_Driver/Src/stm32g0xx_ll_tim.c **** 
 368:Drivers/STM32G0xx_HAL_Driver/Src/stm32g0xx_ll_tim.c ****   return SUCCESS;
 369:Drivers/STM32G0xx_HAL_Driver/Src/stm32g0xx_ll_tim.c **** }
 370:Drivers/STM32G0xx_HAL_Driver/Src/stm32g0xx_ll_tim.c **** 
 371:Drivers/STM32G0xx_HAL_Driver/Src/stm32g0xx_ll_tim.c **** /**
 372:Drivers/STM32G0xx_HAL_Driver/Src/stm32g0xx_ll_tim.c ****   * @brief  Set the fields of the TIMx output channel configuration data
 373:Drivers/STM32G0xx_HAL_Driver/Src/stm32g0xx_ll_tim.c ****   *         structure to their default values.
 374:Drivers/STM32G0xx_HAL_Driver/Src/stm32g0xx_ll_tim.c ****   * @param  TIM_OC_InitStruct pointer to a @ref LL_TIM_OC_InitTypeDef structure
ARM GAS  /tmp/ccjNLvMu.s 			page 8


 375:Drivers/STM32G0xx_HAL_Driver/Src/stm32g0xx_ll_tim.c ****   *         (the output channel configuration data structure)
 376:Drivers/STM32G0xx_HAL_Driver/Src/stm32g0xx_ll_tim.c ****   * @retval None
 377:Drivers/STM32G0xx_HAL_Driver/Src/stm32g0xx_ll_tim.c ****   */
 378:Drivers/STM32G0xx_HAL_Driver/Src/stm32g0xx_ll_tim.c **** void LL_TIM_OC_StructInit(LL_TIM_OC_InitTypeDef *TIM_OC_InitStruct)
 379:Drivers/STM32G0xx_HAL_Driver/Src/stm32g0xx_ll_tim.c **** {
 380:Drivers/STM32G0xx_HAL_Driver/Src/stm32g0xx_ll_tim.c ****   /* Set the default configuration */
 381:Drivers/STM32G0xx_HAL_Driver/Src/stm32g0xx_ll_tim.c ****   TIM_OC_InitStruct->OCMode       = LL_TIM_OCMODE_FROZEN;
 382:Drivers/STM32G0xx_HAL_Driver/Src/stm32g0xx_ll_tim.c ****   TIM_OC_InitStruct->OCState      = LL_TIM_OCSTATE_DISABLE;
 383:Drivers/STM32G0xx_HAL_Driver/Src/stm32g0xx_ll_tim.c ****   TIM_OC_InitStruct->OCNState     = LL_TIM_OCSTATE_DISABLE;
 384:Drivers/STM32G0xx_HAL_Driver/Src/stm32g0xx_ll_tim.c ****   TIM_OC_InitStruct->CompareValue = 0x00000000U;
 385:Drivers/STM32G0xx_HAL_Driver/Src/stm32g0xx_ll_tim.c ****   TIM_OC_InitStruct->OCPolarity   = LL_TIM_OCPOLARITY_HIGH;
 386:Drivers/STM32G0xx_HAL_Driver/Src/stm32g0xx_ll_tim.c ****   TIM_OC_InitStruct->OCNPolarity  = LL_TIM_OCPOLARITY_HIGH;
 387:Drivers/STM32G0xx_HAL_Driver/Src/stm32g0xx_ll_tim.c ****   TIM_OC_InitStruct->OCIdleState  = LL_TIM_OCIDLESTATE_LOW;
 388:Drivers/STM32G0xx_HAL_Driver/Src/stm32g0xx_ll_tim.c ****   TIM_OC_InitStruct->OCNIdleState = LL_TIM_OCIDLESTATE_LOW;
 389:Drivers/STM32G0xx_HAL_Driver/Src/stm32g0xx_ll_tim.c **** }
 390:Drivers/STM32G0xx_HAL_Driver/Src/stm32g0xx_ll_tim.c **** 
 391:Drivers/STM32G0xx_HAL_Driver/Src/stm32g0xx_ll_tim.c **** /**
 392:Drivers/STM32G0xx_HAL_Driver/Src/stm32g0xx_ll_tim.c ****   * @brief  Configure the TIMx output channel.
 393:Drivers/STM32G0xx_HAL_Driver/Src/stm32g0xx_ll_tim.c ****   * @param  TIMx Timer Instance
 394:Drivers/STM32G0xx_HAL_Driver/Src/stm32g0xx_ll_tim.c ****   * @param  Channel This parameter can be one of the following values:
 395:Drivers/STM32G0xx_HAL_Driver/Src/stm32g0xx_ll_tim.c ****   *         @arg @ref LL_TIM_CHANNEL_CH1
 396:Drivers/STM32G0xx_HAL_Driver/Src/stm32g0xx_ll_tim.c ****   *         @arg @ref LL_TIM_CHANNEL_CH2
 397:Drivers/STM32G0xx_HAL_Driver/Src/stm32g0xx_ll_tim.c ****   *         @arg @ref LL_TIM_CHANNEL_CH3
 398:Drivers/STM32G0xx_HAL_Driver/Src/stm32g0xx_ll_tim.c ****   *         @arg @ref LL_TIM_CHANNEL_CH4
 399:Drivers/STM32G0xx_HAL_Driver/Src/stm32g0xx_ll_tim.c ****   *         @arg @ref LL_TIM_CHANNEL_CH5
 400:Drivers/STM32G0xx_HAL_Driver/Src/stm32g0xx_ll_tim.c ****   *         @arg @ref LL_TIM_CHANNEL_CH6
 401:Drivers/STM32G0xx_HAL_Driver/Src/stm32g0xx_ll_tim.c ****   * @param  TIM_OC_InitStruct pointer to a @ref LL_TIM_OC_InitTypeDef structure (TIMx output channe
 402:Drivers/STM32G0xx_HAL_Driver/Src/stm32g0xx_ll_tim.c ****   *         data structure)
 403:Drivers/STM32G0xx_HAL_Driver/Src/stm32g0xx_ll_tim.c ****   * @retval An ErrorStatus enumeration value:
 404:Drivers/STM32G0xx_HAL_Driver/Src/stm32g0xx_ll_tim.c ****   *          - SUCCESS: TIMx output channel is initialized
 405:Drivers/STM32G0xx_HAL_Driver/Src/stm32g0xx_ll_tim.c ****   *          - ERROR: TIMx output channel is not initialized
 406:Drivers/STM32G0xx_HAL_Driver/Src/stm32g0xx_ll_tim.c ****   */
 407:Drivers/STM32G0xx_HAL_Driver/Src/stm32g0xx_ll_tim.c **** ErrorStatus LL_TIM_OC_Init(TIM_TypeDef *TIMx, uint32_t Channel, const LL_TIM_OC_InitTypeDef *TIM_OC
 408:Drivers/STM32G0xx_HAL_Driver/Src/stm32g0xx_ll_tim.c **** {
 409:Drivers/STM32G0xx_HAL_Driver/Src/stm32g0xx_ll_tim.c ****   ErrorStatus result = ERROR;
 410:Drivers/STM32G0xx_HAL_Driver/Src/stm32g0xx_ll_tim.c **** 
 411:Drivers/STM32G0xx_HAL_Driver/Src/stm32g0xx_ll_tim.c ****   switch (Channel)
 412:Drivers/STM32G0xx_HAL_Driver/Src/stm32g0xx_ll_tim.c ****   {
 413:Drivers/STM32G0xx_HAL_Driver/Src/stm32g0xx_ll_tim.c ****     case LL_TIM_CHANNEL_CH1:
 414:Drivers/STM32G0xx_HAL_Driver/Src/stm32g0xx_ll_tim.c ****       result = OC1Config(TIMx, TIM_OC_InitStruct);
 415:Drivers/STM32G0xx_HAL_Driver/Src/stm32g0xx_ll_tim.c ****       break;
 416:Drivers/STM32G0xx_HAL_Driver/Src/stm32g0xx_ll_tim.c ****     case LL_TIM_CHANNEL_CH2:
 417:Drivers/STM32G0xx_HAL_Driver/Src/stm32g0xx_ll_tim.c ****       result = OC2Config(TIMx, TIM_OC_InitStruct);
 418:Drivers/STM32G0xx_HAL_Driver/Src/stm32g0xx_ll_tim.c ****       break;
 419:Drivers/STM32G0xx_HAL_Driver/Src/stm32g0xx_ll_tim.c ****     case LL_TIM_CHANNEL_CH3:
 420:Drivers/STM32G0xx_HAL_Driver/Src/stm32g0xx_ll_tim.c ****       result = OC3Config(TIMx, TIM_OC_InitStruct);
 421:Drivers/STM32G0xx_HAL_Driver/Src/stm32g0xx_ll_tim.c ****       break;
 422:Drivers/STM32G0xx_HAL_Driver/Src/stm32g0xx_ll_tim.c ****     case LL_TIM_CHANNEL_CH4:
 423:Drivers/STM32G0xx_HAL_Driver/Src/stm32g0xx_ll_tim.c ****       result = OC4Config(TIMx, TIM_OC_InitStruct);
 424:Drivers/STM32G0xx_HAL_Driver/Src/stm32g0xx_ll_tim.c ****       break;
 425:Drivers/STM32G0xx_HAL_Driver/Src/stm32g0xx_ll_tim.c ****     case LL_TIM_CHANNEL_CH5:
 426:Drivers/STM32G0xx_HAL_Driver/Src/stm32g0xx_ll_tim.c ****       result = OC5Config(TIMx, TIM_OC_InitStruct);
 427:Drivers/STM32G0xx_HAL_Driver/Src/stm32g0xx_ll_tim.c ****       break;
 428:Drivers/STM32G0xx_HAL_Driver/Src/stm32g0xx_ll_tim.c ****     case LL_TIM_CHANNEL_CH6:
 429:Drivers/STM32G0xx_HAL_Driver/Src/stm32g0xx_ll_tim.c ****       result = OC6Config(TIMx, TIM_OC_InitStruct);
 430:Drivers/STM32G0xx_HAL_Driver/Src/stm32g0xx_ll_tim.c ****       break;
 431:Drivers/STM32G0xx_HAL_Driver/Src/stm32g0xx_ll_tim.c ****     default:
ARM GAS  /tmp/ccjNLvMu.s 			page 9


 432:Drivers/STM32G0xx_HAL_Driver/Src/stm32g0xx_ll_tim.c ****       break;
 433:Drivers/STM32G0xx_HAL_Driver/Src/stm32g0xx_ll_tim.c ****   }
 434:Drivers/STM32G0xx_HAL_Driver/Src/stm32g0xx_ll_tim.c **** 
 435:Drivers/STM32G0xx_HAL_Driver/Src/stm32g0xx_ll_tim.c ****   return result;
 436:Drivers/STM32G0xx_HAL_Driver/Src/stm32g0xx_ll_tim.c **** }
 437:Drivers/STM32G0xx_HAL_Driver/Src/stm32g0xx_ll_tim.c **** 
 438:Drivers/STM32G0xx_HAL_Driver/Src/stm32g0xx_ll_tim.c **** /**
 439:Drivers/STM32G0xx_HAL_Driver/Src/stm32g0xx_ll_tim.c ****   * @brief  Set the fields of the TIMx input channel configuration data
 440:Drivers/STM32G0xx_HAL_Driver/Src/stm32g0xx_ll_tim.c ****   *         structure to their default values.
 441:Drivers/STM32G0xx_HAL_Driver/Src/stm32g0xx_ll_tim.c ****   * @param  TIM_ICInitStruct pointer to a @ref LL_TIM_IC_InitTypeDef structure (the input channel c
 442:Drivers/STM32G0xx_HAL_Driver/Src/stm32g0xx_ll_tim.c ****   *         data structure)
 443:Drivers/STM32G0xx_HAL_Driver/Src/stm32g0xx_ll_tim.c ****   * @retval None
 444:Drivers/STM32G0xx_HAL_Driver/Src/stm32g0xx_ll_tim.c ****   */
 445:Drivers/STM32G0xx_HAL_Driver/Src/stm32g0xx_ll_tim.c **** void LL_TIM_IC_StructInit(LL_TIM_IC_InitTypeDef *TIM_ICInitStruct)
 446:Drivers/STM32G0xx_HAL_Driver/Src/stm32g0xx_ll_tim.c **** {
 447:Drivers/STM32G0xx_HAL_Driver/Src/stm32g0xx_ll_tim.c ****   /* Set the default configuration */
 448:Drivers/STM32G0xx_HAL_Driver/Src/stm32g0xx_ll_tim.c ****   TIM_ICInitStruct->ICPolarity    = LL_TIM_IC_POLARITY_RISING;
 449:Drivers/STM32G0xx_HAL_Driver/Src/stm32g0xx_ll_tim.c ****   TIM_ICInitStruct->ICActiveInput = LL_TIM_ACTIVEINPUT_DIRECTTI;
 450:Drivers/STM32G0xx_HAL_Driver/Src/stm32g0xx_ll_tim.c ****   TIM_ICInitStruct->ICPrescaler   = LL_TIM_ICPSC_DIV1;
 451:Drivers/STM32G0xx_HAL_Driver/Src/stm32g0xx_ll_tim.c ****   TIM_ICInitStruct->ICFilter      = LL_TIM_IC_FILTER_FDIV1;
 452:Drivers/STM32G0xx_HAL_Driver/Src/stm32g0xx_ll_tim.c **** }
 453:Drivers/STM32G0xx_HAL_Driver/Src/stm32g0xx_ll_tim.c **** 
 454:Drivers/STM32G0xx_HAL_Driver/Src/stm32g0xx_ll_tim.c **** /**
 455:Drivers/STM32G0xx_HAL_Driver/Src/stm32g0xx_ll_tim.c ****   * @brief  Configure the TIMx input channel.
 456:Drivers/STM32G0xx_HAL_Driver/Src/stm32g0xx_ll_tim.c ****   * @param  TIMx Timer Instance
 457:Drivers/STM32G0xx_HAL_Driver/Src/stm32g0xx_ll_tim.c ****   * @param  Channel This parameter can be one of the following values:
 458:Drivers/STM32G0xx_HAL_Driver/Src/stm32g0xx_ll_tim.c ****   *         @arg @ref LL_TIM_CHANNEL_CH1
 459:Drivers/STM32G0xx_HAL_Driver/Src/stm32g0xx_ll_tim.c ****   *         @arg @ref LL_TIM_CHANNEL_CH2
 460:Drivers/STM32G0xx_HAL_Driver/Src/stm32g0xx_ll_tim.c ****   *         @arg @ref LL_TIM_CHANNEL_CH3
 461:Drivers/STM32G0xx_HAL_Driver/Src/stm32g0xx_ll_tim.c ****   *         @arg @ref LL_TIM_CHANNEL_CH4
 462:Drivers/STM32G0xx_HAL_Driver/Src/stm32g0xx_ll_tim.c ****   * @param  TIM_IC_InitStruct pointer to a @ref LL_TIM_IC_InitTypeDef structure (TIMx input channel
 463:Drivers/STM32G0xx_HAL_Driver/Src/stm32g0xx_ll_tim.c ****   *         structure)
 464:Drivers/STM32G0xx_HAL_Driver/Src/stm32g0xx_ll_tim.c ****   * @retval An ErrorStatus enumeration value:
 465:Drivers/STM32G0xx_HAL_Driver/Src/stm32g0xx_ll_tim.c ****   *          - SUCCESS: TIMx output channel is initialized
 466:Drivers/STM32G0xx_HAL_Driver/Src/stm32g0xx_ll_tim.c ****   *          - ERROR: TIMx output channel is not initialized
 467:Drivers/STM32G0xx_HAL_Driver/Src/stm32g0xx_ll_tim.c ****   */
 468:Drivers/STM32G0xx_HAL_Driver/Src/stm32g0xx_ll_tim.c **** ErrorStatus LL_TIM_IC_Init(TIM_TypeDef *TIMx, uint32_t Channel, const LL_TIM_IC_InitTypeDef *TIM_IC
 469:Drivers/STM32G0xx_HAL_Driver/Src/stm32g0xx_ll_tim.c **** {
 470:Drivers/STM32G0xx_HAL_Driver/Src/stm32g0xx_ll_tim.c ****   ErrorStatus result = ERROR;
 471:Drivers/STM32G0xx_HAL_Driver/Src/stm32g0xx_ll_tim.c **** 
 472:Drivers/STM32G0xx_HAL_Driver/Src/stm32g0xx_ll_tim.c ****   switch (Channel)
 473:Drivers/STM32G0xx_HAL_Driver/Src/stm32g0xx_ll_tim.c ****   {
 474:Drivers/STM32G0xx_HAL_Driver/Src/stm32g0xx_ll_tim.c ****     case LL_TIM_CHANNEL_CH1:
 475:Drivers/STM32G0xx_HAL_Driver/Src/stm32g0xx_ll_tim.c ****       result = IC1Config(TIMx, TIM_IC_InitStruct);
 476:Drivers/STM32G0xx_HAL_Driver/Src/stm32g0xx_ll_tim.c ****       break;
 477:Drivers/STM32G0xx_HAL_Driver/Src/stm32g0xx_ll_tim.c ****     case LL_TIM_CHANNEL_CH2:
 478:Drivers/STM32G0xx_HAL_Driver/Src/stm32g0xx_ll_tim.c ****       result = IC2Config(TIMx, TIM_IC_InitStruct);
 479:Drivers/STM32G0xx_HAL_Driver/Src/stm32g0xx_ll_tim.c ****       break;
 480:Drivers/STM32G0xx_HAL_Driver/Src/stm32g0xx_ll_tim.c ****     case LL_TIM_CHANNEL_CH3:
 481:Drivers/STM32G0xx_HAL_Driver/Src/stm32g0xx_ll_tim.c ****       result = IC3Config(TIMx, TIM_IC_InitStruct);
 482:Drivers/STM32G0xx_HAL_Driver/Src/stm32g0xx_ll_tim.c ****       break;
 483:Drivers/STM32G0xx_HAL_Driver/Src/stm32g0xx_ll_tim.c ****     case LL_TIM_CHANNEL_CH4:
 484:Drivers/STM32G0xx_HAL_Driver/Src/stm32g0xx_ll_tim.c ****       result = IC4Config(TIMx, TIM_IC_InitStruct);
 485:Drivers/STM32G0xx_HAL_Driver/Src/stm32g0xx_ll_tim.c ****       break;
 486:Drivers/STM32G0xx_HAL_Driver/Src/stm32g0xx_ll_tim.c ****     default:
 487:Drivers/STM32G0xx_HAL_Driver/Src/stm32g0xx_ll_tim.c ****       break;
 488:Drivers/STM32G0xx_HAL_Driver/Src/stm32g0xx_ll_tim.c ****   }
ARM GAS  /tmp/ccjNLvMu.s 			page 10


 489:Drivers/STM32G0xx_HAL_Driver/Src/stm32g0xx_ll_tim.c **** 
 490:Drivers/STM32G0xx_HAL_Driver/Src/stm32g0xx_ll_tim.c ****   return result;
 491:Drivers/STM32G0xx_HAL_Driver/Src/stm32g0xx_ll_tim.c **** }
 492:Drivers/STM32G0xx_HAL_Driver/Src/stm32g0xx_ll_tim.c **** 
 493:Drivers/STM32G0xx_HAL_Driver/Src/stm32g0xx_ll_tim.c **** /**
 494:Drivers/STM32G0xx_HAL_Driver/Src/stm32g0xx_ll_tim.c ****   * @brief  Fills each TIM_EncoderInitStruct field with its default value
 495:Drivers/STM32G0xx_HAL_Driver/Src/stm32g0xx_ll_tim.c ****   * @param  TIM_EncoderInitStruct pointer to a @ref LL_TIM_ENCODER_InitTypeDef structure (encoder i
 496:Drivers/STM32G0xx_HAL_Driver/Src/stm32g0xx_ll_tim.c ****   *         configuration data structure)
 497:Drivers/STM32G0xx_HAL_Driver/Src/stm32g0xx_ll_tim.c ****   * @retval None
 498:Drivers/STM32G0xx_HAL_Driver/Src/stm32g0xx_ll_tim.c ****   */
 499:Drivers/STM32G0xx_HAL_Driver/Src/stm32g0xx_ll_tim.c **** void LL_TIM_ENCODER_StructInit(LL_TIM_ENCODER_InitTypeDef *TIM_EncoderInitStruct)
 500:Drivers/STM32G0xx_HAL_Driver/Src/stm32g0xx_ll_tim.c **** {
 501:Drivers/STM32G0xx_HAL_Driver/Src/stm32g0xx_ll_tim.c ****   /* Set the default configuration */
 502:Drivers/STM32G0xx_HAL_Driver/Src/stm32g0xx_ll_tim.c ****   TIM_EncoderInitStruct->EncoderMode    = LL_TIM_ENCODERMODE_X2_TI1;
 503:Drivers/STM32G0xx_HAL_Driver/Src/stm32g0xx_ll_tim.c ****   TIM_EncoderInitStruct->IC1Polarity    = LL_TIM_IC_POLARITY_RISING;
 504:Drivers/STM32G0xx_HAL_Driver/Src/stm32g0xx_ll_tim.c ****   TIM_EncoderInitStruct->IC1ActiveInput = LL_TIM_ACTIVEINPUT_DIRECTTI;
 505:Drivers/STM32G0xx_HAL_Driver/Src/stm32g0xx_ll_tim.c ****   TIM_EncoderInitStruct->IC1Prescaler   = LL_TIM_ICPSC_DIV1;
 506:Drivers/STM32G0xx_HAL_Driver/Src/stm32g0xx_ll_tim.c ****   TIM_EncoderInitStruct->IC1Filter      = LL_TIM_IC_FILTER_FDIV1;
 507:Drivers/STM32G0xx_HAL_Driver/Src/stm32g0xx_ll_tim.c ****   TIM_EncoderInitStruct->IC2Polarity    = LL_TIM_IC_POLARITY_RISING;
 508:Drivers/STM32G0xx_HAL_Driver/Src/stm32g0xx_ll_tim.c ****   TIM_EncoderInitStruct->IC2ActiveInput = LL_TIM_ACTIVEINPUT_DIRECTTI;
 509:Drivers/STM32G0xx_HAL_Driver/Src/stm32g0xx_ll_tim.c ****   TIM_EncoderInitStruct->IC2Prescaler   = LL_TIM_ICPSC_DIV1;
 510:Drivers/STM32G0xx_HAL_Driver/Src/stm32g0xx_ll_tim.c ****   TIM_EncoderInitStruct->IC2Filter      = LL_TIM_IC_FILTER_FDIV1;
 511:Drivers/STM32G0xx_HAL_Driver/Src/stm32g0xx_ll_tim.c **** }
 512:Drivers/STM32G0xx_HAL_Driver/Src/stm32g0xx_ll_tim.c **** 
 513:Drivers/STM32G0xx_HAL_Driver/Src/stm32g0xx_ll_tim.c **** /**
 514:Drivers/STM32G0xx_HAL_Driver/Src/stm32g0xx_ll_tim.c ****   * @brief  Configure the encoder interface of the timer instance.
 515:Drivers/STM32G0xx_HAL_Driver/Src/stm32g0xx_ll_tim.c ****   * @param  TIMx Timer Instance
 516:Drivers/STM32G0xx_HAL_Driver/Src/stm32g0xx_ll_tim.c ****   * @param  TIM_EncoderInitStruct pointer to a @ref LL_TIM_ENCODER_InitTypeDef structure (TIMx enco
 517:Drivers/STM32G0xx_HAL_Driver/Src/stm32g0xx_ll_tim.c ****   *         configuration data structure)
 518:Drivers/STM32G0xx_HAL_Driver/Src/stm32g0xx_ll_tim.c ****   * @retval An ErrorStatus enumeration value:
 519:Drivers/STM32G0xx_HAL_Driver/Src/stm32g0xx_ll_tim.c ****   *          - SUCCESS: TIMx registers are de-initialized
 520:Drivers/STM32G0xx_HAL_Driver/Src/stm32g0xx_ll_tim.c ****   *          - ERROR: not applicable
 521:Drivers/STM32G0xx_HAL_Driver/Src/stm32g0xx_ll_tim.c ****   */
 522:Drivers/STM32G0xx_HAL_Driver/Src/stm32g0xx_ll_tim.c **** ErrorStatus LL_TIM_ENCODER_Init(TIM_TypeDef *TIMx, const LL_TIM_ENCODER_InitTypeDef *TIM_EncoderIni
 523:Drivers/STM32G0xx_HAL_Driver/Src/stm32g0xx_ll_tim.c **** {
 524:Drivers/STM32G0xx_HAL_Driver/Src/stm32g0xx_ll_tim.c ****   uint32_t tmpccmr1;
 525:Drivers/STM32G0xx_HAL_Driver/Src/stm32g0xx_ll_tim.c ****   uint32_t tmpccer;
 526:Drivers/STM32G0xx_HAL_Driver/Src/stm32g0xx_ll_tim.c **** 
 527:Drivers/STM32G0xx_HAL_Driver/Src/stm32g0xx_ll_tim.c ****   /* Check the parameters */
 528:Drivers/STM32G0xx_HAL_Driver/Src/stm32g0xx_ll_tim.c ****   assert_param(IS_TIM_ENCODER_INTERFACE_INSTANCE(TIMx));
 529:Drivers/STM32G0xx_HAL_Driver/Src/stm32g0xx_ll_tim.c ****   assert_param(IS_LL_TIM_ENCODERMODE(TIM_EncoderInitStruct->EncoderMode));
 530:Drivers/STM32G0xx_HAL_Driver/Src/stm32g0xx_ll_tim.c ****   assert_param(IS_LL_TIM_IC_POLARITY_ENCODER(TIM_EncoderInitStruct->IC1Polarity));
 531:Drivers/STM32G0xx_HAL_Driver/Src/stm32g0xx_ll_tim.c ****   assert_param(IS_LL_TIM_ACTIVEINPUT(TIM_EncoderInitStruct->IC1ActiveInput));
 532:Drivers/STM32G0xx_HAL_Driver/Src/stm32g0xx_ll_tim.c ****   assert_param(IS_LL_TIM_ICPSC(TIM_EncoderInitStruct->IC1Prescaler));
 533:Drivers/STM32G0xx_HAL_Driver/Src/stm32g0xx_ll_tim.c ****   assert_param(IS_LL_TIM_IC_FILTER(TIM_EncoderInitStruct->IC1Filter));
 534:Drivers/STM32G0xx_HAL_Driver/Src/stm32g0xx_ll_tim.c ****   assert_param(IS_LL_TIM_IC_POLARITY_ENCODER(TIM_EncoderInitStruct->IC2Polarity));
 535:Drivers/STM32G0xx_HAL_Driver/Src/stm32g0xx_ll_tim.c ****   assert_param(IS_LL_TIM_ACTIVEINPUT(TIM_EncoderInitStruct->IC2ActiveInput));
 536:Drivers/STM32G0xx_HAL_Driver/Src/stm32g0xx_ll_tim.c ****   assert_param(IS_LL_TIM_ICPSC(TIM_EncoderInitStruct->IC2Prescaler));
 537:Drivers/STM32G0xx_HAL_Driver/Src/stm32g0xx_ll_tim.c ****   assert_param(IS_LL_TIM_IC_FILTER(TIM_EncoderInitStruct->IC2Filter));
 538:Drivers/STM32G0xx_HAL_Driver/Src/stm32g0xx_ll_tim.c **** 
 539:Drivers/STM32G0xx_HAL_Driver/Src/stm32g0xx_ll_tim.c ****   /* Disable the CC1 and CC2: Reset the CC1E and CC2E Bits */
 540:Drivers/STM32G0xx_HAL_Driver/Src/stm32g0xx_ll_tim.c ****   TIMx->CCER &= (uint32_t)~(TIM_CCER_CC1E | TIM_CCER_CC2E);
 541:Drivers/STM32G0xx_HAL_Driver/Src/stm32g0xx_ll_tim.c **** 
 542:Drivers/STM32G0xx_HAL_Driver/Src/stm32g0xx_ll_tim.c ****   /* Get the TIMx CCMR1 register value */
 543:Drivers/STM32G0xx_HAL_Driver/Src/stm32g0xx_ll_tim.c ****   tmpccmr1 = LL_TIM_ReadReg(TIMx, CCMR1);
 544:Drivers/STM32G0xx_HAL_Driver/Src/stm32g0xx_ll_tim.c **** 
 545:Drivers/STM32G0xx_HAL_Driver/Src/stm32g0xx_ll_tim.c ****   /* Get the TIMx CCER register value */
ARM GAS  /tmp/ccjNLvMu.s 			page 11


 546:Drivers/STM32G0xx_HAL_Driver/Src/stm32g0xx_ll_tim.c ****   tmpccer = LL_TIM_ReadReg(TIMx, CCER);
 547:Drivers/STM32G0xx_HAL_Driver/Src/stm32g0xx_ll_tim.c **** 
 548:Drivers/STM32G0xx_HAL_Driver/Src/stm32g0xx_ll_tim.c ****   /* Configure TI1 */
 549:Drivers/STM32G0xx_HAL_Driver/Src/stm32g0xx_ll_tim.c ****   tmpccmr1 &= (uint32_t)~(TIM_CCMR1_CC1S | TIM_CCMR1_IC1F  | TIM_CCMR1_IC1PSC);
 550:Drivers/STM32G0xx_HAL_Driver/Src/stm32g0xx_ll_tim.c ****   tmpccmr1 |= (uint32_t)(TIM_EncoderInitStruct->IC1ActiveInput >> 16U);
 551:Drivers/STM32G0xx_HAL_Driver/Src/stm32g0xx_ll_tim.c ****   tmpccmr1 |= (uint32_t)(TIM_EncoderInitStruct->IC1Filter >> 16U);
 552:Drivers/STM32G0xx_HAL_Driver/Src/stm32g0xx_ll_tim.c ****   tmpccmr1 |= (uint32_t)(TIM_EncoderInitStruct->IC1Prescaler >> 16U);
 553:Drivers/STM32G0xx_HAL_Driver/Src/stm32g0xx_ll_tim.c **** 
 554:Drivers/STM32G0xx_HAL_Driver/Src/stm32g0xx_ll_tim.c ****   /* Configure TI2 */
 555:Drivers/STM32G0xx_HAL_Driver/Src/stm32g0xx_ll_tim.c ****   tmpccmr1 &= (uint32_t)~(TIM_CCMR1_CC2S | TIM_CCMR1_IC2F  | TIM_CCMR1_IC2PSC);
 556:Drivers/STM32G0xx_HAL_Driver/Src/stm32g0xx_ll_tim.c ****   tmpccmr1 |= (uint32_t)(TIM_EncoderInitStruct->IC2ActiveInput >> 8U);
 557:Drivers/STM32G0xx_HAL_Driver/Src/stm32g0xx_ll_tim.c ****   tmpccmr1 |= (uint32_t)(TIM_EncoderInitStruct->IC2Filter >> 8U);
 558:Drivers/STM32G0xx_HAL_Driver/Src/stm32g0xx_ll_tim.c ****   tmpccmr1 |= (uint32_t)(TIM_EncoderInitStruct->IC2Prescaler >> 8U);
 559:Drivers/STM32G0xx_HAL_Driver/Src/stm32g0xx_ll_tim.c **** 
 560:Drivers/STM32G0xx_HAL_Driver/Src/stm32g0xx_ll_tim.c ****   /* Set TI1 and TI2 polarity and enable TI1 and TI2 */
 561:Drivers/STM32G0xx_HAL_Driver/Src/stm32g0xx_ll_tim.c ****   tmpccer &= (uint32_t)~(TIM_CCER_CC1P | TIM_CCER_CC1NP | TIM_CCER_CC2P | TIM_CCER_CC2NP);
 562:Drivers/STM32G0xx_HAL_Driver/Src/stm32g0xx_ll_tim.c ****   tmpccer |= (uint32_t)(TIM_EncoderInitStruct->IC1Polarity);
 563:Drivers/STM32G0xx_HAL_Driver/Src/stm32g0xx_ll_tim.c ****   tmpccer |= (uint32_t)(TIM_EncoderInitStruct->IC2Polarity << 4U);
 564:Drivers/STM32G0xx_HAL_Driver/Src/stm32g0xx_ll_tim.c ****   tmpccer |= (uint32_t)(TIM_CCER_CC1E | TIM_CCER_CC2E);
 565:Drivers/STM32G0xx_HAL_Driver/Src/stm32g0xx_ll_tim.c **** 
 566:Drivers/STM32G0xx_HAL_Driver/Src/stm32g0xx_ll_tim.c ****   /* Set encoder mode */
 567:Drivers/STM32G0xx_HAL_Driver/Src/stm32g0xx_ll_tim.c ****   LL_TIM_SetEncoderMode(TIMx, TIM_EncoderInitStruct->EncoderMode);
 568:Drivers/STM32G0xx_HAL_Driver/Src/stm32g0xx_ll_tim.c **** 
 569:Drivers/STM32G0xx_HAL_Driver/Src/stm32g0xx_ll_tim.c ****   /* Write to TIMx CCMR1 */
 570:Drivers/STM32G0xx_HAL_Driver/Src/stm32g0xx_ll_tim.c ****   LL_TIM_WriteReg(TIMx, CCMR1, tmpccmr1);
 571:Drivers/STM32G0xx_HAL_Driver/Src/stm32g0xx_ll_tim.c **** 
 572:Drivers/STM32G0xx_HAL_Driver/Src/stm32g0xx_ll_tim.c ****   /* Write to TIMx CCER */
 573:Drivers/STM32G0xx_HAL_Driver/Src/stm32g0xx_ll_tim.c ****   LL_TIM_WriteReg(TIMx, CCER, tmpccer);
 574:Drivers/STM32G0xx_HAL_Driver/Src/stm32g0xx_ll_tim.c **** 
 575:Drivers/STM32G0xx_HAL_Driver/Src/stm32g0xx_ll_tim.c ****   return SUCCESS;
 576:Drivers/STM32G0xx_HAL_Driver/Src/stm32g0xx_ll_tim.c **** }
 577:Drivers/STM32G0xx_HAL_Driver/Src/stm32g0xx_ll_tim.c **** 
 578:Drivers/STM32G0xx_HAL_Driver/Src/stm32g0xx_ll_tim.c **** /**
 579:Drivers/STM32G0xx_HAL_Driver/Src/stm32g0xx_ll_tim.c ****   * @brief  Set the fields of the TIMx Hall sensor interface configuration data
 580:Drivers/STM32G0xx_HAL_Driver/Src/stm32g0xx_ll_tim.c ****   *         structure to their default values.
 581:Drivers/STM32G0xx_HAL_Driver/Src/stm32g0xx_ll_tim.c ****   * @param  TIM_HallSensorInitStruct pointer to a @ref LL_TIM_HALLSENSOR_InitTypeDef structure (HAL
 582:Drivers/STM32G0xx_HAL_Driver/Src/stm32g0xx_ll_tim.c ****   *         configuration data structure)
 583:Drivers/STM32G0xx_HAL_Driver/Src/stm32g0xx_ll_tim.c ****   * @retval None
 584:Drivers/STM32G0xx_HAL_Driver/Src/stm32g0xx_ll_tim.c ****   */
 585:Drivers/STM32G0xx_HAL_Driver/Src/stm32g0xx_ll_tim.c **** void LL_TIM_HALLSENSOR_StructInit(LL_TIM_HALLSENSOR_InitTypeDef *TIM_HallSensorInitStruct)
 586:Drivers/STM32G0xx_HAL_Driver/Src/stm32g0xx_ll_tim.c **** {
 587:Drivers/STM32G0xx_HAL_Driver/Src/stm32g0xx_ll_tim.c ****   /* Set the default configuration */
 588:Drivers/STM32G0xx_HAL_Driver/Src/stm32g0xx_ll_tim.c ****   TIM_HallSensorInitStruct->IC1Polarity       = LL_TIM_IC_POLARITY_RISING;
 589:Drivers/STM32G0xx_HAL_Driver/Src/stm32g0xx_ll_tim.c ****   TIM_HallSensorInitStruct->IC1Prescaler      = LL_TIM_ICPSC_DIV1;
 590:Drivers/STM32G0xx_HAL_Driver/Src/stm32g0xx_ll_tim.c ****   TIM_HallSensorInitStruct->IC1Filter         = LL_TIM_IC_FILTER_FDIV1;
 591:Drivers/STM32G0xx_HAL_Driver/Src/stm32g0xx_ll_tim.c ****   TIM_HallSensorInitStruct->CommutationDelay  = 0U;
 592:Drivers/STM32G0xx_HAL_Driver/Src/stm32g0xx_ll_tim.c **** }
 593:Drivers/STM32G0xx_HAL_Driver/Src/stm32g0xx_ll_tim.c **** 
 594:Drivers/STM32G0xx_HAL_Driver/Src/stm32g0xx_ll_tim.c **** /**
 595:Drivers/STM32G0xx_HAL_Driver/Src/stm32g0xx_ll_tim.c ****   * @brief  Configure the Hall sensor interface of the timer instance.
 596:Drivers/STM32G0xx_HAL_Driver/Src/stm32g0xx_ll_tim.c ****   * @note TIMx CH1, CH2 and CH3 inputs connected through a XOR
 597:Drivers/STM32G0xx_HAL_Driver/Src/stm32g0xx_ll_tim.c ****   *       to the TI1 input channel
 598:Drivers/STM32G0xx_HAL_Driver/Src/stm32g0xx_ll_tim.c ****   * @note TIMx slave mode controller is configured in reset mode.
 599:Drivers/STM32G0xx_HAL_Driver/Src/stm32g0xx_ll_tim.c ****           Selected internal trigger is TI1F_ED.
 600:Drivers/STM32G0xx_HAL_Driver/Src/stm32g0xx_ll_tim.c ****   * @note Channel 1 is configured as input, IC1 is mapped on TRC.
 601:Drivers/STM32G0xx_HAL_Driver/Src/stm32g0xx_ll_tim.c ****   * @note Captured value stored in TIMx_CCR1 correspond to the time elapsed
 602:Drivers/STM32G0xx_HAL_Driver/Src/stm32g0xx_ll_tim.c ****   *       between 2 changes on the inputs. It gives information about motor speed.
ARM GAS  /tmp/ccjNLvMu.s 			page 12


 603:Drivers/STM32G0xx_HAL_Driver/Src/stm32g0xx_ll_tim.c ****   * @note Channel 2 is configured in output PWM 2 mode.
 604:Drivers/STM32G0xx_HAL_Driver/Src/stm32g0xx_ll_tim.c ****   * @note Compare value stored in TIMx_CCR2 corresponds to the commutation delay.
 605:Drivers/STM32G0xx_HAL_Driver/Src/stm32g0xx_ll_tim.c ****   * @note OC2REF is selected as trigger output on TRGO.
 606:Drivers/STM32G0xx_HAL_Driver/Src/stm32g0xx_ll_tim.c ****   * @param  TIMx Timer Instance
 607:Drivers/STM32G0xx_HAL_Driver/Src/stm32g0xx_ll_tim.c ****   * @param  TIM_HallSensorInitStruct pointer to a @ref LL_TIM_HALLSENSOR_InitTypeDef structure (TIM
 608:Drivers/STM32G0xx_HAL_Driver/Src/stm32g0xx_ll_tim.c ****   *         interface configuration data structure)
 609:Drivers/STM32G0xx_HAL_Driver/Src/stm32g0xx_ll_tim.c ****   * @retval An ErrorStatus enumeration value:
 610:Drivers/STM32G0xx_HAL_Driver/Src/stm32g0xx_ll_tim.c ****   *          - SUCCESS: TIMx registers are de-initialized
 611:Drivers/STM32G0xx_HAL_Driver/Src/stm32g0xx_ll_tim.c ****   *          - ERROR: not applicable
 612:Drivers/STM32G0xx_HAL_Driver/Src/stm32g0xx_ll_tim.c ****   */
 613:Drivers/STM32G0xx_HAL_Driver/Src/stm32g0xx_ll_tim.c **** ErrorStatus LL_TIM_HALLSENSOR_Init(TIM_TypeDef *TIMx, const LL_TIM_HALLSENSOR_InitTypeDef *TIM_Hall
 614:Drivers/STM32G0xx_HAL_Driver/Src/stm32g0xx_ll_tim.c **** {
 615:Drivers/STM32G0xx_HAL_Driver/Src/stm32g0xx_ll_tim.c ****   uint32_t tmpcr2;
 616:Drivers/STM32G0xx_HAL_Driver/Src/stm32g0xx_ll_tim.c ****   uint32_t tmpccmr1;
 617:Drivers/STM32G0xx_HAL_Driver/Src/stm32g0xx_ll_tim.c ****   uint32_t tmpccer;
 618:Drivers/STM32G0xx_HAL_Driver/Src/stm32g0xx_ll_tim.c ****   uint32_t tmpsmcr;
 619:Drivers/STM32G0xx_HAL_Driver/Src/stm32g0xx_ll_tim.c **** 
 620:Drivers/STM32G0xx_HAL_Driver/Src/stm32g0xx_ll_tim.c ****   /* Check the parameters */
 621:Drivers/STM32G0xx_HAL_Driver/Src/stm32g0xx_ll_tim.c ****   assert_param(IS_TIM_HALL_SENSOR_INTERFACE_INSTANCE(TIMx));
 622:Drivers/STM32G0xx_HAL_Driver/Src/stm32g0xx_ll_tim.c ****   assert_param(IS_LL_TIM_IC_POLARITY_ENCODER(TIM_HallSensorInitStruct->IC1Polarity));
 623:Drivers/STM32G0xx_HAL_Driver/Src/stm32g0xx_ll_tim.c ****   assert_param(IS_LL_TIM_ICPSC(TIM_HallSensorInitStruct->IC1Prescaler));
 624:Drivers/STM32G0xx_HAL_Driver/Src/stm32g0xx_ll_tim.c ****   assert_param(IS_LL_TIM_IC_FILTER(TIM_HallSensorInitStruct->IC1Filter));
 625:Drivers/STM32G0xx_HAL_Driver/Src/stm32g0xx_ll_tim.c **** 
 626:Drivers/STM32G0xx_HAL_Driver/Src/stm32g0xx_ll_tim.c ****   /* Disable the CC1 and CC2: Reset the CC1E and CC2E Bits */
 627:Drivers/STM32G0xx_HAL_Driver/Src/stm32g0xx_ll_tim.c ****   TIMx->CCER &= (uint32_t)~(TIM_CCER_CC1E | TIM_CCER_CC2E);
 628:Drivers/STM32G0xx_HAL_Driver/Src/stm32g0xx_ll_tim.c **** 
 629:Drivers/STM32G0xx_HAL_Driver/Src/stm32g0xx_ll_tim.c ****   /* Get the TIMx CR2 register value */
 630:Drivers/STM32G0xx_HAL_Driver/Src/stm32g0xx_ll_tim.c ****   tmpcr2 = LL_TIM_ReadReg(TIMx, CR2);
 631:Drivers/STM32G0xx_HAL_Driver/Src/stm32g0xx_ll_tim.c **** 
 632:Drivers/STM32G0xx_HAL_Driver/Src/stm32g0xx_ll_tim.c ****   /* Get the TIMx CCMR1 register value */
 633:Drivers/STM32G0xx_HAL_Driver/Src/stm32g0xx_ll_tim.c ****   tmpccmr1 = LL_TIM_ReadReg(TIMx, CCMR1);
 634:Drivers/STM32G0xx_HAL_Driver/Src/stm32g0xx_ll_tim.c **** 
 635:Drivers/STM32G0xx_HAL_Driver/Src/stm32g0xx_ll_tim.c ****   /* Get the TIMx CCER register value */
 636:Drivers/STM32G0xx_HAL_Driver/Src/stm32g0xx_ll_tim.c ****   tmpccer = LL_TIM_ReadReg(TIMx, CCER);
 637:Drivers/STM32G0xx_HAL_Driver/Src/stm32g0xx_ll_tim.c **** 
 638:Drivers/STM32G0xx_HAL_Driver/Src/stm32g0xx_ll_tim.c ****   /* Get the TIMx SMCR register value */
 639:Drivers/STM32G0xx_HAL_Driver/Src/stm32g0xx_ll_tim.c ****   tmpsmcr = LL_TIM_ReadReg(TIMx, SMCR);
 640:Drivers/STM32G0xx_HAL_Driver/Src/stm32g0xx_ll_tim.c **** 
 641:Drivers/STM32G0xx_HAL_Driver/Src/stm32g0xx_ll_tim.c ****   /* Connect TIMx_CH1, CH2 and CH3 pins to the TI1 input */
 642:Drivers/STM32G0xx_HAL_Driver/Src/stm32g0xx_ll_tim.c ****   tmpcr2 |= TIM_CR2_TI1S;
 643:Drivers/STM32G0xx_HAL_Driver/Src/stm32g0xx_ll_tim.c **** 
 644:Drivers/STM32G0xx_HAL_Driver/Src/stm32g0xx_ll_tim.c ****   /* OC2REF signal is used as trigger output (TRGO) */
 645:Drivers/STM32G0xx_HAL_Driver/Src/stm32g0xx_ll_tim.c ****   tmpcr2 |= LL_TIM_TRGO_OC2REF;
 646:Drivers/STM32G0xx_HAL_Driver/Src/stm32g0xx_ll_tim.c **** 
 647:Drivers/STM32G0xx_HAL_Driver/Src/stm32g0xx_ll_tim.c ****   /* Configure the slave mode controller */
 648:Drivers/STM32G0xx_HAL_Driver/Src/stm32g0xx_ll_tim.c ****   tmpsmcr &= (uint32_t)~(TIM_SMCR_TS | TIM_SMCR_SMS);
 649:Drivers/STM32G0xx_HAL_Driver/Src/stm32g0xx_ll_tim.c ****   tmpsmcr |= LL_TIM_TS_TI1F_ED;
 650:Drivers/STM32G0xx_HAL_Driver/Src/stm32g0xx_ll_tim.c ****   tmpsmcr |= LL_TIM_SLAVEMODE_RESET;
 651:Drivers/STM32G0xx_HAL_Driver/Src/stm32g0xx_ll_tim.c **** 
 652:Drivers/STM32G0xx_HAL_Driver/Src/stm32g0xx_ll_tim.c ****   /* Configure input channel 1 */
 653:Drivers/STM32G0xx_HAL_Driver/Src/stm32g0xx_ll_tim.c ****   tmpccmr1 &= (uint32_t)~(TIM_CCMR1_CC1S | TIM_CCMR1_IC1F  | TIM_CCMR1_IC1PSC);
 654:Drivers/STM32G0xx_HAL_Driver/Src/stm32g0xx_ll_tim.c ****   tmpccmr1 |= (uint32_t)(LL_TIM_ACTIVEINPUT_TRC >> 16U);
 655:Drivers/STM32G0xx_HAL_Driver/Src/stm32g0xx_ll_tim.c ****   tmpccmr1 |= (uint32_t)(TIM_HallSensorInitStruct->IC1Filter >> 16U);
 656:Drivers/STM32G0xx_HAL_Driver/Src/stm32g0xx_ll_tim.c ****   tmpccmr1 |= (uint32_t)(TIM_HallSensorInitStruct->IC1Prescaler >> 16U);
 657:Drivers/STM32G0xx_HAL_Driver/Src/stm32g0xx_ll_tim.c **** 
 658:Drivers/STM32G0xx_HAL_Driver/Src/stm32g0xx_ll_tim.c ****   /* Configure input channel 2 */
 659:Drivers/STM32G0xx_HAL_Driver/Src/stm32g0xx_ll_tim.c ****   tmpccmr1 &= (uint32_t)~(TIM_CCMR1_OC2M | TIM_CCMR1_OC2FE  | TIM_CCMR1_OC2PE  | TIM_CCMR1_OC2CE);
ARM GAS  /tmp/ccjNLvMu.s 			page 13


 660:Drivers/STM32G0xx_HAL_Driver/Src/stm32g0xx_ll_tim.c ****   tmpccmr1 |= (uint32_t)(LL_TIM_OCMODE_PWM2 << 8U);
 661:Drivers/STM32G0xx_HAL_Driver/Src/stm32g0xx_ll_tim.c **** 
 662:Drivers/STM32G0xx_HAL_Driver/Src/stm32g0xx_ll_tim.c ****   /* Set Channel 1 polarity and enable Channel 1 and Channel2 */
 663:Drivers/STM32G0xx_HAL_Driver/Src/stm32g0xx_ll_tim.c ****   tmpccer &= (uint32_t)~(TIM_CCER_CC1P | TIM_CCER_CC1NP | TIM_CCER_CC2P | TIM_CCER_CC2NP);
 664:Drivers/STM32G0xx_HAL_Driver/Src/stm32g0xx_ll_tim.c ****   tmpccer |= (uint32_t)(TIM_HallSensorInitStruct->IC1Polarity);
 665:Drivers/STM32G0xx_HAL_Driver/Src/stm32g0xx_ll_tim.c ****   tmpccer |= (uint32_t)(TIM_CCER_CC1E | TIM_CCER_CC2E);
 666:Drivers/STM32G0xx_HAL_Driver/Src/stm32g0xx_ll_tim.c **** 
 667:Drivers/STM32G0xx_HAL_Driver/Src/stm32g0xx_ll_tim.c ****   /* Write to TIMx CR2 */
 668:Drivers/STM32G0xx_HAL_Driver/Src/stm32g0xx_ll_tim.c ****   LL_TIM_WriteReg(TIMx, CR2, tmpcr2);
 669:Drivers/STM32G0xx_HAL_Driver/Src/stm32g0xx_ll_tim.c **** 
 670:Drivers/STM32G0xx_HAL_Driver/Src/stm32g0xx_ll_tim.c ****   /* Write to TIMx SMCR */
 671:Drivers/STM32G0xx_HAL_Driver/Src/stm32g0xx_ll_tim.c ****   LL_TIM_WriteReg(TIMx, SMCR, tmpsmcr);
 672:Drivers/STM32G0xx_HAL_Driver/Src/stm32g0xx_ll_tim.c **** 
 673:Drivers/STM32G0xx_HAL_Driver/Src/stm32g0xx_ll_tim.c ****   /* Write to TIMx CCMR1 */
 674:Drivers/STM32G0xx_HAL_Driver/Src/stm32g0xx_ll_tim.c ****   LL_TIM_WriteReg(TIMx, CCMR1, tmpccmr1);
 675:Drivers/STM32G0xx_HAL_Driver/Src/stm32g0xx_ll_tim.c **** 
 676:Drivers/STM32G0xx_HAL_Driver/Src/stm32g0xx_ll_tim.c ****   /* Write to TIMx CCER */
 677:Drivers/STM32G0xx_HAL_Driver/Src/stm32g0xx_ll_tim.c ****   LL_TIM_WriteReg(TIMx, CCER, tmpccer);
 678:Drivers/STM32G0xx_HAL_Driver/Src/stm32g0xx_ll_tim.c **** 
 679:Drivers/STM32G0xx_HAL_Driver/Src/stm32g0xx_ll_tim.c ****   /* Write to TIMx CCR2 */
 680:Drivers/STM32G0xx_HAL_Driver/Src/stm32g0xx_ll_tim.c ****   LL_TIM_OC_SetCompareCH2(TIMx, TIM_HallSensorInitStruct->CommutationDelay);
 681:Drivers/STM32G0xx_HAL_Driver/Src/stm32g0xx_ll_tim.c **** 
 682:Drivers/STM32G0xx_HAL_Driver/Src/stm32g0xx_ll_tim.c ****   return SUCCESS;
 683:Drivers/STM32G0xx_HAL_Driver/Src/stm32g0xx_ll_tim.c **** }
 684:Drivers/STM32G0xx_HAL_Driver/Src/stm32g0xx_ll_tim.c **** 
 685:Drivers/STM32G0xx_HAL_Driver/Src/stm32g0xx_ll_tim.c **** /**
 686:Drivers/STM32G0xx_HAL_Driver/Src/stm32g0xx_ll_tim.c ****   * @brief  Set the fields of the Break and Dead Time configuration data structure
 687:Drivers/STM32G0xx_HAL_Driver/Src/stm32g0xx_ll_tim.c ****   *         to their default values.
 688:Drivers/STM32G0xx_HAL_Driver/Src/stm32g0xx_ll_tim.c ****   * @param  TIM_BDTRInitStruct pointer to a @ref LL_TIM_BDTR_InitTypeDef structure (Break and Dead 
 689:Drivers/STM32G0xx_HAL_Driver/Src/stm32g0xx_ll_tim.c ****   *         data structure)
 690:Drivers/STM32G0xx_HAL_Driver/Src/stm32g0xx_ll_tim.c ****   * @retval None
 691:Drivers/STM32G0xx_HAL_Driver/Src/stm32g0xx_ll_tim.c ****   */
 692:Drivers/STM32G0xx_HAL_Driver/Src/stm32g0xx_ll_tim.c **** void LL_TIM_BDTR_StructInit(LL_TIM_BDTR_InitTypeDef *TIM_BDTRInitStruct)
 693:Drivers/STM32G0xx_HAL_Driver/Src/stm32g0xx_ll_tim.c **** {
 694:Drivers/STM32G0xx_HAL_Driver/Src/stm32g0xx_ll_tim.c ****   /* Set the default configuration */
 695:Drivers/STM32G0xx_HAL_Driver/Src/stm32g0xx_ll_tim.c ****   TIM_BDTRInitStruct->OSSRState       = LL_TIM_OSSR_DISABLE;
 696:Drivers/STM32G0xx_HAL_Driver/Src/stm32g0xx_ll_tim.c ****   TIM_BDTRInitStruct->OSSIState       = LL_TIM_OSSI_DISABLE;
 697:Drivers/STM32G0xx_HAL_Driver/Src/stm32g0xx_ll_tim.c ****   TIM_BDTRInitStruct->LockLevel       = LL_TIM_LOCKLEVEL_OFF;
 698:Drivers/STM32G0xx_HAL_Driver/Src/stm32g0xx_ll_tim.c ****   TIM_BDTRInitStruct->DeadTime        = (uint8_t)0x00;
 699:Drivers/STM32G0xx_HAL_Driver/Src/stm32g0xx_ll_tim.c ****   TIM_BDTRInitStruct->BreakState      = LL_TIM_BREAK_DISABLE;
 700:Drivers/STM32G0xx_HAL_Driver/Src/stm32g0xx_ll_tim.c ****   TIM_BDTRInitStruct->BreakPolarity   = LL_TIM_BREAK_POLARITY_LOW;
 701:Drivers/STM32G0xx_HAL_Driver/Src/stm32g0xx_ll_tim.c ****   TIM_BDTRInitStruct->BreakFilter     = LL_TIM_BREAK_FILTER_FDIV1;
 702:Drivers/STM32G0xx_HAL_Driver/Src/stm32g0xx_ll_tim.c ****   TIM_BDTRInitStruct->BreakAFMode     = LL_TIM_BREAK_AFMODE_INPUT;
 703:Drivers/STM32G0xx_HAL_Driver/Src/stm32g0xx_ll_tim.c ****   TIM_BDTRInitStruct->Break2State     = LL_TIM_BREAK2_DISABLE;
 704:Drivers/STM32G0xx_HAL_Driver/Src/stm32g0xx_ll_tim.c ****   TIM_BDTRInitStruct->Break2Polarity  = LL_TIM_BREAK2_POLARITY_LOW;
 705:Drivers/STM32G0xx_HAL_Driver/Src/stm32g0xx_ll_tim.c ****   TIM_BDTRInitStruct->Break2Filter    = LL_TIM_BREAK2_FILTER_FDIV1;
 706:Drivers/STM32G0xx_HAL_Driver/Src/stm32g0xx_ll_tim.c ****   TIM_BDTRInitStruct->Break2AFMode    = LL_TIM_BREAK2_AFMODE_INPUT;
 707:Drivers/STM32G0xx_HAL_Driver/Src/stm32g0xx_ll_tim.c ****   TIM_BDTRInitStruct->AutomaticOutput = LL_TIM_AUTOMATICOUTPUT_DISABLE;
 708:Drivers/STM32G0xx_HAL_Driver/Src/stm32g0xx_ll_tim.c **** }
 709:Drivers/STM32G0xx_HAL_Driver/Src/stm32g0xx_ll_tim.c **** 
 710:Drivers/STM32G0xx_HAL_Driver/Src/stm32g0xx_ll_tim.c **** /**
 711:Drivers/STM32G0xx_HAL_Driver/Src/stm32g0xx_ll_tim.c ****   * @brief  Configure the Break and Dead Time feature of the timer instance.
 712:Drivers/STM32G0xx_HAL_Driver/Src/stm32g0xx_ll_tim.c ****   * @note As the bits BK2P, BK2E, BK2F[3:0], BKF[3:0], AOE, BKP, BKE, OSSI, OSSR
 713:Drivers/STM32G0xx_HAL_Driver/Src/stm32g0xx_ll_tim.c ****   *  and DTG[7:0] can be write-locked depending on the LOCK configuration, it
 714:Drivers/STM32G0xx_HAL_Driver/Src/stm32g0xx_ll_tim.c ****   *  can be necessary to configure all of them during the first write access to
 715:Drivers/STM32G0xx_HAL_Driver/Src/stm32g0xx_ll_tim.c ****   *  the TIMx_BDTR register.
 716:Drivers/STM32G0xx_HAL_Driver/Src/stm32g0xx_ll_tim.c ****   * @note Macro IS_TIM_BREAK_INSTANCE(TIMx) can be used to check whether or not
ARM GAS  /tmp/ccjNLvMu.s 			page 14


 717:Drivers/STM32G0xx_HAL_Driver/Src/stm32g0xx_ll_tim.c ****   *       a timer instance provides a break input.
 718:Drivers/STM32G0xx_HAL_Driver/Src/stm32g0xx_ll_tim.c ****   * @note Macro IS_TIM_BKIN2_INSTANCE(TIMx) can be used to check whether or not
 719:Drivers/STM32G0xx_HAL_Driver/Src/stm32g0xx_ll_tim.c ****   *       a timer instance provides a second break input.
 720:Drivers/STM32G0xx_HAL_Driver/Src/stm32g0xx_ll_tim.c ****   * @param  TIMx Timer Instance
 721:Drivers/STM32G0xx_HAL_Driver/Src/stm32g0xx_ll_tim.c ****   * @param  TIM_BDTRInitStruct pointer to a @ref LL_TIM_BDTR_InitTypeDef structure (Break and Dead 
 722:Drivers/STM32G0xx_HAL_Driver/Src/stm32g0xx_ll_tim.c ****   *         data structure)
 723:Drivers/STM32G0xx_HAL_Driver/Src/stm32g0xx_ll_tim.c ****   * @retval An ErrorStatus enumeration value:
 724:Drivers/STM32G0xx_HAL_Driver/Src/stm32g0xx_ll_tim.c ****   *          - SUCCESS: Break and Dead Time is initialized
 725:Drivers/STM32G0xx_HAL_Driver/Src/stm32g0xx_ll_tim.c ****   *          - ERROR: not applicable
 726:Drivers/STM32G0xx_HAL_Driver/Src/stm32g0xx_ll_tim.c ****   */
 727:Drivers/STM32G0xx_HAL_Driver/Src/stm32g0xx_ll_tim.c **** ErrorStatus LL_TIM_BDTR_Init(TIM_TypeDef *TIMx, const LL_TIM_BDTR_InitTypeDef *TIM_BDTRInitStruct)
 728:Drivers/STM32G0xx_HAL_Driver/Src/stm32g0xx_ll_tim.c **** {
 729:Drivers/STM32G0xx_HAL_Driver/Src/stm32g0xx_ll_tim.c ****   uint32_t tmpbdtr = 0;
 730:Drivers/STM32G0xx_HAL_Driver/Src/stm32g0xx_ll_tim.c **** 
 731:Drivers/STM32G0xx_HAL_Driver/Src/stm32g0xx_ll_tim.c ****   /* Check the parameters */
 732:Drivers/STM32G0xx_HAL_Driver/Src/stm32g0xx_ll_tim.c ****   assert_param(IS_TIM_BREAK_INSTANCE(TIMx));
 733:Drivers/STM32G0xx_HAL_Driver/Src/stm32g0xx_ll_tim.c ****   assert_param(IS_LL_TIM_OSSR_STATE(TIM_BDTRInitStruct->OSSRState));
 734:Drivers/STM32G0xx_HAL_Driver/Src/stm32g0xx_ll_tim.c ****   assert_param(IS_LL_TIM_OSSI_STATE(TIM_BDTRInitStruct->OSSIState));
 735:Drivers/STM32G0xx_HAL_Driver/Src/stm32g0xx_ll_tim.c ****   assert_param(IS_LL_TIM_LOCK_LEVEL(TIM_BDTRInitStruct->LockLevel));
 736:Drivers/STM32G0xx_HAL_Driver/Src/stm32g0xx_ll_tim.c ****   assert_param(IS_LL_TIM_BREAK_STATE(TIM_BDTRInitStruct->BreakState));
 737:Drivers/STM32G0xx_HAL_Driver/Src/stm32g0xx_ll_tim.c ****   assert_param(IS_LL_TIM_BREAK_POLARITY(TIM_BDTRInitStruct->BreakPolarity));
 738:Drivers/STM32G0xx_HAL_Driver/Src/stm32g0xx_ll_tim.c ****   assert_param(IS_LL_TIM_AUTOMATIC_OUTPUT_STATE(TIM_BDTRInitStruct->AutomaticOutput));
 739:Drivers/STM32G0xx_HAL_Driver/Src/stm32g0xx_ll_tim.c ****   assert_param(IS_LL_TIM_BREAK_FILTER(TIM_BDTRInitStruct->BreakFilter));
 740:Drivers/STM32G0xx_HAL_Driver/Src/stm32g0xx_ll_tim.c ****   assert_param(IS_LL_TIM_BREAK_AFMODE(TIM_BDTRInitStruct->BreakAFMode));
 741:Drivers/STM32G0xx_HAL_Driver/Src/stm32g0xx_ll_tim.c **** 
 742:Drivers/STM32G0xx_HAL_Driver/Src/stm32g0xx_ll_tim.c ****   /* Set the Lock level, the Break enable Bit and the Polarity, the OSSR State,
 743:Drivers/STM32G0xx_HAL_Driver/Src/stm32g0xx_ll_tim.c ****   the OSSI State, the dead time value and the Automatic Output Enable Bit */
 744:Drivers/STM32G0xx_HAL_Driver/Src/stm32g0xx_ll_tim.c **** 
 745:Drivers/STM32G0xx_HAL_Driver/Src/stm32g0xx_ll_tim.c ****   /* Set the BDTR bits */
 746:Drivers/STM32G0xx_HAL_Driver/Src/stm32g0xx_ll_tim.c ****   MODIFY_REG(tmpbdtr, TIM_BDTR_DTG, TIM_BDTRInitStruct->DeadTime);
 747:Drivers/STM32G0xx_HAL_Driver/Src/stm32g0xx_ll_tim.c ****   MODIFY_REG(tmpbdtr, TIM_BDTR_LOCK, TIM_BDTRInitStruct->LockLevel);
 748:Drivers/STM32G0xx_HAL_Driver/Src/stm32g0xx_ll_tim.c ****   MODIFY_REG(tmpbdtr, TIM_BDTR_OSSI, TIM_BDTRInitStruct->OSSIState);
 749:Drivers/STM32G0xx_HAL_Driver/Src/stm32g0xx_ll_tim.c ****   MODIFY_REG(tmpbdtr, TIM_BDTR_OSSR, TIM_BDTRInitStruct->OSSRState);
 750:Drivers/STM32G0xx_HAL_Driver/Src/stm32g0xx_ll_tim.c ****   MODIFY_REG(tmpbdtr, TIM_BDTR_BKE, TIM_BDTRInitStruct->BreakState);
 751:Drivers/STM32G0xx_HAL_Driver/Src/stm32g0xx_ll_tim.c ****   MODIFY_REG(tmpbdtr, TIM_BDTR_BKP, TIM_BDTRInitStruct->BreakPolarity);
 752:Drivers/STM32G0xx_HAL_Driver/Src/stm32g0xx_ll_tim.c ****   MODIFY_REG(tmpbdtr, TIM_BDTR_AOE, TIM_BDTRInitStruct->AutomaticOutput);
 753:Drivers/STM32G0xx_HAL_Driver/Src/stm32g0xx_ll_tim.c ****   MODIFY_REG(tmpbdtr, TIM_BDTR_BKF, TIM_BDTRInitStruct->BreakFilter);
 754:Drivers/STM32G0xx_HAL_Driver/Src/stm32g0xx_ll_tim.c ****   MODIFY_REG(tmpbdtr, TIM_BDTR_BKBID, TIM_BDTRInitStruct->BreakAFMode);
 755:Drivers/STM32G0xx_HAL_Driver/Src/stm32g0xx_ll_tim.c **** 
 756:Drivers/STM32G0xx_HAL_Driver/Src/stm32g0xx_ll_tim.c ****   if (IS_TIM_BKIN2_INSTANCE(TIMx))
 757:Drivers/STM32G0xx_HAL_Driver/Src/stm32g0xx_ll_tim.c ****   {
 758:Drivers/STM32G0xx_HAL_Driver/Src/stm32g0xx_ll_tim.c ****     assert_param(IS_LL_TIM_BREAK2_STATE(TIM_BDTRInitStruct->Break2State));
 759:Drivers/STM32G0xx_HAL_Driver/Src/stm32g0xx_ll_tim.c ****     assert_param(IS_LL_TIM_BREAK2_POLARITY(TIM_BDTRInitStruct->Break2Polarity));
 760:Drivers/STM32G0xx_HAL_Driver/Src/stm32g0xx_ll_tim.c ****     assert_param(IS_LL_TIM_BREAK2_FILTER(TIM_BDTRInitStruct->Break2Filter));
 761:Drivers/STM32G0xx_HAL_Driver/Src/stm32g0xx_ll_tim.c ****     assert_param(IS_LL_TIM_BREAK2_AFMODE(TIM_BDTRInitStruct->Break2AFMode));
 762:Drivers/STM32G0xx_HAL_Driver/Src/stm32g0xx_ll_tim.c **** 
 763:Drivers/STM32G0xx_HAL_Driver/Src/stm32g0xx_ll_tim.c ****     /* Set the BREAK2 input related BDTR bit-fields */
 764:Drivers/STM32G0xx_HAL_Driver/Src/stm32g0xx_ll_tim.c ****     MODIFY_REG(tmpbdtr, TIM_BDTR_BK2F, (TIM_BDTRInitStruct->Break2Filter));
 765:Drivers/STM32G0xx_HAL_Driver/Src/stm32g0xx_ll_tim.c ****     MODIFY_REG(tmpbdtr, TIM_BDTR_BK2E, TIM_BDTRInitStruct->Break2State);
 766:Drivers/STM32G0xx_HAL_Driver/Src/stm32g0xx_ll_tim.c ****     MODIFY_REG(tmpbdtr, TIM_BDTR_BK2P, TIM_BDTRInitStruct->Break2Polarity);
 767:Drivers/STM32G0xx_HAL_Driver/Src/stm32g0xx_ll_tim.c ****     MODIFY_REG(tmpbdtr, TIM_BDTR_BK2BID, TIM_BDTRInitStruct->Break2AFMode);
 768:Drivers/STM32G0xx_HAL_Driver/Src/stm32g0xx_ll_tim.c ****   }
 769:Drivers/STM32G0xx_HAL_Driver/Src/stm32g0xx_ll_tim.c **** 
 770:Drivers/STM32G0xx_HAL_Driver/Src/stm32g0xx_ll_tim.c ****   /* Set TIMx_BDTR */
 771:Drivers/STM32G0xx_HAL_Driver/Src/stm32g0xx_ll_tim.c ****   LL_TIM_WriteReg(TIMx, BDTR, tmpbdtr);
 772:Drivers/STM32G0xx_HAL_Driver/Src/stm32g0xx_ll_tim.c **** 
 773:Drivers/STM32G0xx_HAL_Driver/Src/stm32g0xx_ll_tim.c ****   return SUCCESS;
ARM GAS  /tmp/ccjNLvMu.s 			page 15


 774:Drivers/STM32G0xx_HAL_Driver/Src/stm32g0xx_ll_tim.c **** }
 775:Drivers/STM32G0xx_HAL_Driver/Src/stm32g0xx_ll_tim.c **** /**
 776:Drivers/STM32G0xx_HAL_Driver/Src/stm32g0xx_ll_tim.c ****   * @}
 777:Drivers/STM32G0xx_HAL_Driver/Src/stm32g0xx_ll_tim.c ****   */
 778:Drivers/STM32G0xx_HAL_Driver/Src/stm32g0xx_ll_tim.c **** 
 779:Drivers/STM32G0xx_HAL_Driver/Src/stm32g0xx_ll_tim.c **** /**
 780:Drivers/STM32G0xx_HAL_Driver/Src/stm32g0xx_ll_tim.c ****   * @}
 781:Drivers/STM32G0xx_HAL_Driver/Src/stm32g0xx_ll_tim.c ****   */
 782:Drivers/STM32G0xx_HAL_Driver/Src/stm32g0xx_ll_tim.c **** 
 783:Drivers/STM32G0xx_HAL_Driver/Src/stm32g0xx_ll_tim.c **** /** @addtogroup TIM_LL_Private_Functions TIM Private Functions
 784:Drivers/STM32G0xx_HAL_Driver/Src/stm32g0xx_ll_tim.c ****   *  @brief   Private functions
 785:Drivers/STM32G0xx_HAL_Driver/Src/stm32g0xx_ll_tim.c ****   * @{
 786:Drivers/STM32G0xx_HAL_Driver/Src/stm32g0xx_ll_tim.c ****   */
 787:Drivers/STM32G0xx_HAL_Driver/Src/stm32g0xx_ll_tim.c **** /**
 788:Drivers/STM32G0xx_HAL_Driver/Src/stm32g0xx_ll_tim.c ****   * @brief  Configure the TIMx output channel 1.
 789:Drivers/STM32G0xx_HAL_Driver/Src/stm32g0xx_ll_tim.c ****   * @param  TIMx Timer Instance
 790:Drivers/STM32G0xx_HAL_Driver/Src/stm32g0xx_ll_tim.c ****   * @param  TIM_OCInitStruct pointer to the the TIMx output channel 1 configuration data structure
 791:Drivers/STM32G0xx_HAL_Driver/Src/stm32g0xx_ll_tim.c ****   * @retval An ErrorStatus enumeration value:
 792:Drivers/STM32G0xx_HAL_Driver/Src/stm32g0xx_ll_tim.c ****   *          - SUCCESS: TIMx registers are de-initialized
 793:Drivers/STM32G0xx_HAL_Driver/Src/stm32g0xx_ll_tim.c ****   *          - ERROR: not applicable
 794:Drivers/STM32G0xx_HAL_Driver/Src/stm32g0xx_ll_tim.c ****   */
 795:Drivers/STM32G0xx_HAL_Driver/Src/stm32g0xx_ll_tim.c **** static ErrorStatus OC1Config(TIM_TypeDef *TIMx, const LL_TIM_OC_InitTypeDef *TIM_OCInitStruct)
 796:Drivers/STM32G0xx_HAL_Driver/Src/stm32g0xx_ll_tim.c **** {
  27              		.loc 1 796 1 view -0
  28              		.cfi_startproc
  29              		@ args = 0, pretend = 0, frame = 0
  30              		@ frame_needed = 0, uses_anonymous_args = 0
  31              		.loc 1 796 1 is_stmt 0 view .LVU1
  32 0000 70B5     		push	{r4, r5, r6, lr}
  33              	.LCFI0:
  34              		.cfi_def_cfa_offset 16
  35              		.cfi_offset 4, -16
  36              		.cfi_offset 5, -12
  37              		.cfi_offset 6, -8
  38              		.cfi_offset 14, -4
 797:Drivers/STM32G0xx_HAL_Driver/Src/stm32g0xx_ll_tim.c ****   uint32_t tmpccmr1;
  39              		.loc 1 797 3 is_stmt 1 view .LVU2
 798:Drivers/STM32G0xx_HAL_Driver/Src/stm32g0xx_ll_tim.c ****   uint32_t tmpccer;
  40              		.loc 1 798 3 view .LVU3
 799:Drivers/STM32G0xx_HAL_Driver/Src/stm32g0xx_ll_tim.c ****   uint32_t tmpcr2;
  41              		.loc 1 799 3 view .LVU4
 800:Drivers/STM32G0xx_HAL_Driver/Src/stm32g0xx_ll_tim.c **** 
 801:Drivers/STM32G0xx_HAL_Driver/Src/stm32g0xx_ll_tim.c ****   /* Check the parameters */
 802:Drivers/STM32G0xx_HAL_Driver/Src/stm32g0xx_ll_tim.c ****   assert_param(IS_TIM_CC1_INSTANCE(TIMx));
  42              		.loc 1 802 3 view .LVU5
 803:Drivers/STM32G0xx_HAL_Driver/Src/stm32g0xx_ll_tim.c ****   assert_param(IS_LL_TIM_OCMODE(TIM_OCInitStruct->OCMode));
  43              		.loc 1 803 3 view .LVU6
 804:Drivers/STM32G0xx_HAL_Driver/Src/stm32g0xx_ll_tim.c ****   assert_param(IS_LL_TIM_OCSTATE(TIM_OCInitStruct->OCState));
  44              		.loc 1 804 3 view .LVU7
 805:Drivers/STM32G0xx_HAL_Driver/Src/stm32g0xx_ll_tim.c ****   assert_param(IS_LL_TIM_OCPOLARITY(TIM_OCInitStruct->OCPolarity));
  45              		.loc 1 805 3 view .LVU8
 806:Drivers/STM32G0xx_HAL_Driver/Src/stm32g0xx_ll_tim.c **** 
 807:Drivers/STM32G0xx_HAL_Driver/Src/stm32g0xx_ll_tim.c ****   /* Disable the Channel 1: Reset the CC1E Bit */
 808:Drivers/STM32G0xx_HAL_Driver/Src/stm32g0xx_ll_tim.c ****   CLEAR_BIT(TIMx->CCER, TIM_CCER_CC1E);
  46              		.loc 1 808 3 view .LVU9
  47 0002 036A     		ldr	r3, [r0, #32]
  48 0004 0125     		movs	r5, #1
ARM GAS  /tmp/ccjNLvMu.s 			page 16


  49 0006 AB43     		bics	r3, r5
  50 0008 0362     		str	r3, [r0, #32]
 809:Drivers/STM32G0xx_HAL_Driver/Src/stm32g0xx_ll_tim.c **** 
 810:Drivers/STM32G0xx_HAL_Driver/Src/stm32g0xx_ll_tim.c ****   /* Get the TIMx CCER register value */
 811:Drivers/STM32G0xx_HAL_Driver/Src/stm32g0xx_ll_tim.c ****   tmpccer = LL_TIM_ReadReg(TIMx, CCER);
  51              		.loc 1 811 3 view .LVU10
  52              		.loc 1 811 11 is_stmt 0 view .LVU11
  53 000a 036A     		ldr	r3, [r0, #32]
  54              	.LVL1:
 812:Drivers/STM32G0xx_HAL_Driver/Src/stm32g0xx_ll_tim.c **** 
 813:Drivers/STM32G0xx_HAL_Driver/Src/stm32g0xx_ll_tim.c ****   /* Get the TIMx CR2 register value */
 814:Drivers/STM32G0xx_HAL_Driver/Src/stm32g0xx_ll_tim.c ****   tmpcr2 = LL_TIM_ReadReg(TIMx, CR2);
  55              		.loc 1 814 3 is_stmt 1 view .LVU12
  56              		.loc 1 814 10 is_stmt 0 view .LVU13
  57 000c 4468     		ldr	r4, [r0, #4]
  58              	.LVL2:
 815:Drivers/STM32G0xx_HAL_Driver/Src/stm32g0xx_ll_tim.c **** 
 816:Drivers/STM32G0xx_HAL_Driver/Src/stm32g0xx_ll_tim.c ****   /* Get the TIMx CCMR1 register value */
 817:Drivers/STM32G0xx_HAL_Driver/Src/stm32g0xx_ll_tim.c ****   tmpccmr1 = LL_TIM_ReadReg(TIMx, CCMR1);
  59              		.loc 1 817 3 is_stmt 1 view .LVU14
  60              		.loc 1 817 12 is_stmt 0 view .LVU15
  61 000e 8269     		ldr	r2, [r0, #24]
 818:Drivers/STM32G0xx_HAL_Driver/Src/stm32g0xx_ll_tim.c **** 
 819:Drivers/STM32G0xx_HAL_Driver/Src/stm32g0xx_ll_tim.c ****   /* Reset Capture/Compare selection Bits */
 820:Drivers/STM32G0xx_HAL_Driver/Src/stm32g0xx_ll_tim.c ****   CLEAR_BIT(tmpccmr1, TIM_CCMR1_CC1S);
  62              		.loc 1 820 3 is_stmt 1 view .LVU16
  63              	.LVL3:
 821:Drivers/STM32G0xx_HAL_Driver/Src/stm32g0xx_ll_tim.c **** 
 822:Drivers/STM32G0xx_HAL_Driver/Src/stm32g0xx_ll_tim.c ****   /* Set the Output Compare Mode */
 823:Drivers/STM32G0xx_HAL_Driver/Src/stm32g0xx_ll_tim.c ****   MODIFY_REG(tmpccmr1, TIM_CCMR1_OC1M, TIM_OCInitStruct->OCMode);
  64              		.loc 1 823 3 view .LVU17
  65 0010 194E     		ldr	r6, .L4
  66 0012 3240     		ands	r2, r6
  67              	.LVL4:
  68              		.loc 1 823 3 is_stmt 0 view .LVU18
  69 0014 0E68     		ldr	r6, [r1]
  70 0016 1643     		orrs	r6, r2
  71 0018 B446     		mov	ip, r6
  72              	.LVL5:
 824:Drivers/STM32G0xx_HAL_Driver/Src/stm32g0xx_ll_tim.c **** 
 825:Drivers/STM32G0xx_HAL_Driver/Src/stm32g0xx_ll_tim.c ****   /* Set the Output Compare Polarity */
 826:Drivers/STM32G0xx_HAL_Driver/Src/stm32g0xx_ll_tim.c ****   MODIFY_REG(tmpccer, TIM_CCER_CC1P, TIM_OCInitStruct->OCPolarity);
  73              		.loc 1 826 3 is_stmt 1 view .LVU19
  74 001a 0222     		movs	r2, #2
  75 001c 9343     		bics	r3, r2
  76              	.LVL6:
  77              		.loc 1 826 3 is_stmt 0 view .LVU20
  78 001e 0A69     		ldr	r2, [r1, #16]
  79 0020 1343     		orrs	r3, r2
  80              	.LVL7:
 827:Drivers/STM32G0xx_HAL_Driver/Src/stm32g0xx_ll_tim.c **** 
 828:Drivers/STM32G0xx_HAL_Driver/Src/stm32g0xx_ll_tim.c ****   /* Set the Output State */
 829:Drivers/STM32G0xx_HAL_Driver/Src/stm32g0xx_ll_tim.c ****   MODIFY_REG(tmpccer, TIM_CCER_CC1E, TIM_OCInitStruct->OCState);
  81              		.loc 1 829 3 is_stmt 1 view .LVU21
  82 0022 AB43     		bics	r3, r5
  83              	.LVL8:
  84              		.loc 1 829 3 is_stmt 0 view .LVU22
ARM GAS  /tmp/ccjNLvMu.s 			page 17


  85 0024 4A68     		ldr	r2, [r1, #4]
  86 0026 1343     		orrs	r3, r2
  87              	.LVL9:
 830:Drivers/STM32G0xx_HAL_Driver/Src/stm32g0xx_ll_tim.c **** 
 831:Drivers/STM32G0xx_HAL_Driver/Src/stm32g0xx_ll_tim.c ****   if (IS_TIM_BREAK_INSTANCE(TIMx))
  88              		.loc 1 831 3 is_stmt 1 view .LVU23
  89              		.loc 1 831 6 is_stmt 0 view .LVU24
  90 0028 144A     		ldr	r2, .L4+4
  91 002a 9042     		cmp	r0, r2
  92 002c 08D0     		beq	.L2
  93              		.loc 1 831 7 discriminator 1 view .LVU25
  94 002e 144A     		ldr	r2, .L4+8
  95 0030 9042     		cmp	r0, r2
  96 0032 05D0     		beq	.L2
  97              		.loc 1 831 7 discriminator 2 view .LVU26
  98 0034 134A     		ldr	r2, .L4+12
  99 0036 9042     		cmp	r0, r2
 100 0038 02D0     		beq	.L2
 101              		.loc 1 831 7 discriminator 3 view .LVU27
 102 003a 134A     		ldr	r2, .L4+16
 103 003c 9042     		cmp	r0, r2
 104 003e 12D1     		bne	.L3
 105              	.L2:
 832:Drivers/STM32G0xx_HAL_Driver/Src/stm32g0xx_ll_tim.c ****   {
 833:Drivers/STM32G0xx_HAL_Driver/Src/stm32g0xx_ll_tim.c ****     assert_param(IS_LL_TIM_OCIDLESTATE(TIM_OCInitStruct->OCIdleState));
 106              		.loc 1 833 5 is_stmt 1 view .LVU28
 834:Drivers/STM32G0xx_HAL_Driver/Src/stm32g0xx_ll_tim.c ****     assert_param(IS_LL_TIM_OCSTATE(TIM_OCInitStruct->OCNState));
 107              		.loc 1 834 5 view .LVU29
 835:Drivers/STM32G0xx_HAL_Driver/Src/stm32g0xx_ll_tim.c ****     assert_param(IS_LL_TIM_OCPOLARITY(TIM_OCInitStruct->OCNPolarity));
 108              		.loc 1 835 5 view .LVU30
 836:Drivers/STM32G0xx_HAL_Driver/Src/stm32g0xx_ll_tim.c ****     assert_param(IS_LL_TIM_OCIDLESTATE(TIM_OCInitStruct->OCNIdleState));
 109              		.loc 1 836 5 view .LVU31
 837:Drivers/STM32G0xx_HAL_Driver/Src/stm32g0xx_ll_tim.c **** 
 838:Drivers/STM32G0xx_HAL_Driver/Src/stm32g0xx_ll_tim.c ****     /* Set the complementary output Polarity */
 839:Drivers/STM32G0xx_HAL_Driver/Src/stm32g0xx_ll_tim.c ****     MODIFY_REG(tmpccer, TIM_CCER_CC1NP, TIM_OCInitStruct->OCNPolarity << 2U);
 110              		.loc 1 839 5 view .LVU32
 111 0040 0822     		movs	r2, #8
 112 0042 9343     		bics	r3, r2
 113              	.LVL10:
 114              		.loc 1 839 5 is_stmt 0 view .LVU33
 115 0044 4A69     		ldr	r2, [r1, #20]
 116 0046 9200     		lsls	r2, r2, #2
 117 0048 1343     		orrs	r3, r2
 118              	.LVL11:
 840:Drivers/STM32G0xx_HAL_Driver/Src/stm32g0xx_ll_tim.c **** 
 841:Drivers/STM32G0xx_HAL_Driver/Src/stm32g0xx_ll_tim.c ****     /* Set the complementary output State */
 842:Drivers/STM32G0xx_HAL_Driver/Src/stm32g0xx_ll_tim.c ****     MODIFY_REG(tmpccer, TIM_CCER_CC1NE, TIM_OCInitStruct->OCNState << 2U);
 119              		.loc 1 842 5 is_stmt 1 view .LVU34
 120 004a 0422     		movs	r2, #4
 121 004c 9343     		bics	r3, r2
 122              	.LVL12:
 123              		.loc 1 842 5 is_stmt 0 view .LVU35
 124 004e 8A68     		ldr	r2, [r1, #8]
 125 0050 9200     		lsls	r2, r2, #2
 126 0052 1343     		orrs	r3, r2
 127              	.LVL13:
 843:Drivers/STM32G0xx_HAL_Driver/Src/stm32g0xx_ll_tim.c **** 
ARM GAS  /tmp/ccjNLvMu.s 			page 18


 844:Drivers/STM32G0xx_HAL_Driver/Src/stm32g0xx_ll_tim.c ****     /* Set the Output Idle state */
 845:Drivers/STM32G0xx_HAL_Driver/Src/stm32g0xx_ll_tim.c ****     MODIFY_REG(tmpcr2, TIM_CR2_OIS1, TIM_OCInitStruct->OCIdleState);
 128              		.loc 1 845 5 is_stmt 1 view .LVU36
 129 0054 0D4A     		ldr	r2, .L4+20
 130 0056 2240     		ands	r2, r4
 131 0058 8C69     		ldr	r4, [r1, #24]
 132              	.LVL14:
 133              		.loc 1 845 5 is_stmt 0 view .LVU37
 134 005a 2243     		orrs	r2, r4
 135              	.LVL15:
 846:Drivers/STM32G0xx_HAL_Driver/Src/stm32g0xx_ll_tim.c **** 
 847:Drivers/STM32G0xx_HAL_Driver/Src/stm32g0xx_ll_tim.c ****     /* Set the complementary output Idle state */
 848:Drivers/STM32G0xx_HAL_Driver/Src/stm32g0xx_ll_tim.c ****     MODIFY_REG(tmpcr2, TIM_CR2_OIS1N, TIM_OCInitStruct->OCNIdleState << 1U);
 136              		.loc 1 848 5 is_stmt 1 view .LVU38
 137 005c 0C4C     		ldr	r4, .L4+24
 138 005e 2240     		ands	r2, r4
 139              	.LVL16:
 140              		.loc 1 848 5 is_stmt 0 view .LVU39
 141 0060 CC69     		ldr	r4, [r1, #28]
 142 0062 6400     		lsls	r4, r4, #1
 143 0064 1443     		orrs	r4, r2
 144              	.LVL17:
 145              	.L3:
 849:Drivers/STM32G0xx_HAL_Driver/Src/stm32g0xx_ll_tim.c ****   }
 850:Drivers/STM32G0xx_HAL_Driver/Src/stm32g0xx_ll_tim.c **** 
 851:Drivers/STM32G0xx_HAL_Driver/Src/stm32g0xx_ll_tim.c ****   /* Write to TIMx CR2 */
 852:Drivers/STM32G0xx_HAL_Driver/Src/stm32g0xx_ll_tim.c ****   LL_TIM_WriteReg(TIMx, CR2, tmpcr2);
 146              		.loc 1 852 3 is_stmt 1 view .LVU40
 147 0066 4460     		str	r4, [r0, #4]
 853:Drivers/STM32G0xx_HAL_Driver/Src/stm32g0xx_ll_tim.c **** 
 854:Drivers/STM32G0xx_HAL_Driver/Src/stm32g0xx_ll_tim.c ****   /* Write to TIMx CCMR1 */
 855:Drivers/STM32G0xx_HAL_Driver/Src/stm32g0xx_ll_tim.c ****   LL_TIM_WriteReg(TIMx, CCMR1, tmpccmr1);
 148              		.loc 1 855 3 view .LVU41
 149 0068 6246     		mov	r2, ip
 150 006a 8261     		str	r2, [r0, #24]
 856:Drivers/STM32G0xx_HAL_Driver/Src/stm32g0xx_ll_tim.c **** 
 857:Drivers/STM32G0xx_HAL_Driver/Src/stm32g0xx_ll_tim.c ****   /* Set the Capture Compare Register value */
 858:Drivers/STM32G0xx_HAL_Driver/Src/stm32g0xx_ll_tim.c ****   LL_TIM_OC_SetCompareCH1(TIMx, TIM_OCInitStruct->CompareValue);
 151              		.loc 1 858 3 view .LVU42
 152              		.loc 1 858 49 is_stmt 0 view .LVU43
 153 006c CA68     		ldr	r2, [r1, #12]
 154              	.LVL18:
 155              	.LBB66:
 156              	.LBI66:
 157              		.file 2 "Drivers/STM32G0xx_HAL_Driver/Inc/stm32g0xx_ll_tim.h"
   1:Drivers/STM32G0xx_HAL_Driver/Inc/stm32g0xx_ll_tim.h **** /**
   2:Drivers/STM32G0xx_HAL_Driver/Inc/stm32g0xx_ll_tim.h ****   ******************************************************************************
   3:Drivers/STM32G0xx_HAL_Driver/Inc/stm32g0xx_ll_tim.h ****   * @file    stm32g0xx_ll_tim.h
   4:Drivers/STM32G0xx_HAL_Driver/Inc/stm32g0xx_ll_tim.h ****   * @author  MCD Application Team
   5:Drivers/STM32G0xx_HAL_Driver/Inc/stm32g0xx_ll_tim.h ****   * @brief   Header file of TIM LL module.
   6:Drivers/STM32G0xx_HAL_Driver/Inc/stm32g0xx_ll_tim.h ****   ******************************************************************************
   7:Drivers/STM32G0xx_HAL_Driver/Inc/stm32g0xx_ll_tim.h ****   * @attention
   8:Drivers/STM32G0xx_HAL_Driver/Inc/stm32g0xx_ll_tim.h ****   *
   9:Drivers/STM32G0xx_HAL_Driver/Inc/stm32g0xx_ll_tim.h ****   * Copyright (c) 2018 STMicroelectronics.
  10:Drivers/STM32G0xx_HAL_Driver/Inc/stm32g0xx_ll_tim.h ****   * All rights reserved.
  11:Drivers/STM32G0xx_HAL_Driver/Inc/stm32g0xx_ll_tim.h ****   *
  12:Drivers/STM32G0xx_HAL_Driver/Inc/stm32g0xx_ll_tim.h ****   * This software is licensed under terms that can be found in the LICENSE file
ARM GAS  /tmp/ccjNLvMu.s 			page 19


  13:Drivers/STM32G0xx_HAL_Driver/Inc/stm32g0xx_ll_tim.h ****   * in the root directory of this software component.
  14:Drivers/STM32G0xx_HAL_Driver/Inc/stm32g0xx_ll_tim.h ****   * If no LICENSE file comes with this software, it is provided AS-IS.
  15:Drivers/STM32G0xx_HAL_Driver/Inc/stm32g0xx_ll_tim.h ****   *
  16:Drivers/STM32G0xx_HAL_Driver/Inc/stm32g0xx_ll_tim.h ****   ******************************************************************************
  17:Drivers/STM32G0xx_HAL_Driver/Inc/stm32g0xx_ll_tim.h ****   */
  18:Drivers/STM32G0xx_HAL_Driver/Inc/stm32g0xx_ll_tim.h **** 
  19:Drivers/STM32G0xx_HAL_Driver/Inc/stm32g0xx_ll_tim.h **** /* Define to prevent recursive inclusion -------------------------------------*/
  20:Drivers/STM32G0xx_HAL_Driver/Inc/stm32g0xx_ll_tim.h **** #ifndef __STM32G0xx_LL_TIM_H
  21:Drivers/STM32G0xx_HAL_Driver/Inc/stm32g0xx_ll_tim.h **** #define __STM32G0xx_LL_TIM_H
  22:Drivers/STM32G0xx_HAL_Driver/Inc/stm32g0xx_ll_tim.h **** 
  23:Drivers/STM32G0xx_HAL_Driver/Inc/stm32g0xx_ll_tim.h **** #ifdef __cplusplus
  24:Drivers/STM32G0xx_HAL_Driver/Inc/stm32g0xx_ll_tim.h **** extern "C" {
  25:Drivers/STM32G0xx_HAL_Driver/Inc/stm32g0xx_ll_tim.h **** #endif
  26:Drivers/STM32G0xx_HAL_Driver/Inc/stm32g0xx_ll_tim.h **** 
  27:Drivers/STM32G0xx_HAL_Driver/Inc/stm32g0xx_ll_tim.h **** /* Includes ------------------------------------------------------------------*/
  28:Drivers/STM32G0xx_HAL_Driver/Inc/stm32g0xx_ll_tim.h **** #include "stm32g0xx.h"
  29:Drivers/STM32G0xx_HAL_Driver/Inc/stm32g0xx_ll_tim.h **** 
  30:Drivers/STM32G0xx_HAL_Driver/Inc/stm32g0xx_ll_tim.h **** /** @addtogroup STM32G0xx_LL_Driver
  31:Drivers/STM32G0xx_HAL_Driver/Inc/stm32g0xx_ll_tim.h ****   * @{
  32:Drivers/STM32G0xx_HAL_Driver/Inc/stm32g0xx_ll_tim.h ****   */
  33:Drivers/STM32G0xx_HAL_Driver/Inc/stm32g0xx_ll_tim.h **** 
  34:Drivers/STM32G0xx_HAL_Driver/Inc/stm32g0xx_ll_tim.h **** #if defined (TIM1) || defined (TIM2) || defined (TIM3) || defined (TIM4) ||  defined (TIM14) ||  de
  35:Drivers/STM32G0xx_HAL_Driver/Inc/stm32g0xx_ll_tim.h **** 
  36:Drivers/STM32G0xx_HAL_Driver/Inc/stm32g0xx_ll_tim.h **** /** @defgroup TIM_LL TIM
  37:Drivers/STM32G0xx_HAL_Driver/Inc/stm32g0xx_ll_tim.h ****   * @{
  38:Drivers/STM32G0xx_HAL_Driver/Inc/stm32g0xx_ll_tim.h ****   */
  39:Drivers/STM32G0xx_HAL_Driver/Inc/stm32g0xx_ll_tim.h **** 
  40:Drivers/STM32G0xx_HAL_Driver/Inc/stm32g0xx_ll_tim.h **** /* Private types -------------------------------------------------------------*/
  41:Drivers/STM32G0xx_HAL_Driver/Inc/stm32g0xx_ll_tim.h **** /* Private variables ---------------------------------------------------------*/
  42:Drivers/STM32G0xx_HAL_Driver/Inc/stm32g0xx_ll_tim.h **** /** @defgroup TIM_LL_Private_Variables TIM Private Variables
  43:Drivers/STM32G0xx_HAL_Driver/Inc/stm32g0xx_ll_tim.h ****   * @{
  44:Drivers/STM32G0xx_HAL_Driver/Inc/stm32g0xx_ll_tim.h ****   */
  45:Drivers/STM32G0xx_HAL_Driver/Inc/stm32g0xx_ll_tim.h **** static const uint8_t OFFSET_TAB_CCMRx[] =
  46:Drivers/STM32G0xx_HAL_Driver/Inc/stm32g0xx_ll_tim.h **** {
  47:Drivers/STM32G0xx_HAL_Driver/Inc/stm32g0xx_ll_tim.h ****   0x00U,   /* 0: TIMx_CH1  */
  48:Drivers/STM32G0xx_HAL_Driver/Inc/stm32g0xx_ll_tim.h ****   0x00U,   /* 1: TIMx_CH1N */
  49:Drivers/STM32G0xx_HAL_Driver/Inc/stm32g0xx_ll_tim.h ****   0x00U,   /* 2: TIMx_CH2  */
  50:Drivers/STM32G0xx_HAL_Driver/Inc/stm32g0xx_ll_tim.h ****   0x00U,   /* 3: TIMx_CH2N */
  51:Drivers/STM32G0xx_HAL_Driver/Inc/stm32g0xx_ll_tim.h ****   0x04U,   /* 4: TIMx_CH3  */
  52:Drivers/STM32G0xx_HAL_Driver/Inc/stm32g0xx_ll_tim.h ****   0x04U,   /* 5: TIMx_CH3N */
  53:Drivers/STM32G0xx_HAL_Driver/Inc/stm32g0xx_ll_tim.h ****   0x04U,   /* 6: TIMx_CH4  */
  54:Drivers/STM32G0xx_HAL_Driver/Inc/stm32g0xx_ll_tim.h ****   0x3CU,   /* 7: TIMx_CH5  */
  55:Drivers/STM32G0xx_HAL_Driver/Inc/stm32g0xx_ll_tim.h ****   0x3CU    /* 8: TIMx_CH6  */
  56:Drivers/STM32G0xx_HAL_Driver/Inc/stm32g0xx_ll_tim.h **** };
  57:Drivers/STM32G0xx_HAL_Driver/Inc/stm32g0xx_ll_tim.h **** 
  58:Drivers/STM32G0xx_HAL_Driver/Inc/stm32g0xx_ll_tim.h **** static const uint8_t SHIFT_TAB_OCxx[] =
  59:Drivers/STM32G0xx_HAL_Driver/Inc/stm32g0xx_ll_tim.h **** {
  60:Drivers/STM32G0xx_HAL_Driver/Inc/stm32g0xx_ll_tim.h ****   0U,            /* 0: OC1M, OC1FE, OC1PE */
  61:Drivers/STM32G0xx_HAL_Driver/Inc/stm32g0xx_ll_tim.h ****   0U,            /* 1: - NA */
  62:Drivers/STM32G0xx_HAL_Driver/Inc/stm32g0xx_ll_tim.h ****   8U,            /* 2: OC2M, OC2FE, OC2PE */
  63:Drivers/STM32G0xx_HAL_Driver/Inc/stm32g0xx_ll_tim.h ****   0U,            /* 3: - NA */
  64:Drivers/STM32G0xx_HAL_Driver/Inc/stm32g0xx_ll_tim.h ****   0U,            /* 4: OC3M, OC3FE, OC3PE */
  65:Drivers/STM32G0xx_HAL_Driver/Inc/stm32g0xx_ll_tim.h ****   0U,            /* 5: - NA */
  66:Drivers/STM32G0xx_HAL_Driver/Inc/stm32g0xx_ll_tim.h ****   8U,            /* 6: OC4M, OC4FE, OC4PE */
  67:Drivers/STM32G0xx_HAL_Driver/Inc/stm32g0xx_ll_tim.h ****   0U,            /* 7: OC5M, OC5FE, OC5PE */
  68:Drivers/STM32G0xx_HAL_Driver/Inc/stm32g0xx_ll_tim.h ****   8U             /* 8: OC6M, OC6FE, OC6PE */
  69:Drivers/STM32G0xx_HAL_Driver/Inc/stm32g0xx_ll_tim.h **** };
ARM GAS  /tmp/ccjNLvMu.s 			page 20


  70:Drivers/STM32G0xx_HAL_Driver/Inc/stm32g0xx_ll_tim.h **** 
  71:Drivers/STM32G0xx_HAL_Driver/Inc/stm32g0xx_ll_tim.h **** static const uint8_t SHIFT_TAB_ICxx[] =
  72:Drivers/STM32G0xx_HAL_Driver/Inc/stm32g0xx_ll_tim.h **** {
  73:Drivers/STM32G0xx_HAL_Driver/Inc/stm32g0xx_ll_tim.h ****   0U,            /* 0: CC1S, IC1PSC, IC1F */
  74:Drivers/STM32G0xx_HAL_Driver/Inc/stm32g0xx_ll_tim.h ****   0U,            /* 1: - NA */
  75:Drivers/STM32G0xx_HAL_Driver/Inc/stm32g0xx_ll_tim.h ****   8U,            /* 2: CC2S, IC2PSC, IC2F */
  76:Drivers/STM32G0xx_HAL_Driver/Inc/stm32g0xx_ll_tim.h ****   0U,            /* 3: - NA */
  77:Drivers/STM32G0xx_HAL_Driver/Inc/stm32g0xx_ll_tim.h ****   0U,            /* 4: CC3S, IC3PSC, IC3F */
  78:Drivers/STM32G0xx_HAL_Driver/Inc/stm32g0xx_ll_tim.h ****   0U,            /* 5: - NA */
  79:Drivers/STM32G0xx_HAL_Driver/Inc/stm32g0xx_ll_tim.h ****   8U,            /* 6: CC4S, IC4PSC, IC4F */
  80:Drivers/STM32G0xx_HAL_Driver/Inc/stm32g0xx_ll_tim.h ****   0U,            /* 7: - NA */
  81:Drivers/STM32G0xx_HAL_Driver/Inc/stm32g0xx_ll_tim.h ****   0U             /* 8: - NA */
  82:Drivers/STM32G0xx_HAL_Driver/Inc/stm32g0xx_ll_tim.h **** };
  83:Drivers/STM32G0xx_HAL_Driver/Inc/stm32g0xx_ll_tim.h **** 
  84:Drivers/STM32G0xx_HAL_Driver/Inc/stm32g0xx_ll_tim.h **** static const uint8_t SHIFT_TAB_CCxP[] =
  85:Drivers/STM32G0xx_HAL_Driver/Inc/stm32g0xx_ll_tim.h **** {
  86:Drivers/STM32G0xx_HAL_Driver/Inc/stm32g0xx_ll_tim.h ****   0U,            /* 0: CC1P */
  87:Drivers/STM32G0xx_HAL_Driver/Inc/stm32g0xx_ll_tim.h ****   2U,            /* 1: CC1NP */
  88:Drivers/STM32G0xx_HAL_Driver/Inc/stm32g0xx_ll_tim.h ****   4U,            /* 2: CC2P */
  89:Drivers/STM32G0xx_HAL_Driver/Inc/stm32g0xx_ll_tim.h ****   6U,            /* 3: CC2NP */
  90:Drivers/STM32G0xx_HAL_Driver/Inc/stm32g0xx_ll_tim.h ****   8U,            /* 4: CC3P */
  91:Drivers/STM32G0xx_HAL_Driver/Inc/stm32g0xx_ll_tim.h ****   10U,           /* 5: CC3NP */
  92:Drivers/STM32G0xx_HAL_Driver/Inc/stm32g0xx_ll_tim.h ****   12U,           /* 6: CC4P */
  93:Drivers/STM32G0xx_HAL_Driver/Inc/stm32g0xx_ll_tim.h ****   16U,           /* 7: CC5P */
  94:Drivers/STM32G0xx_HAL_Driver/Inc/stm32g0xx_ll_tim.h ****   20U            /* 8: CC6P */
  95:Drivers/STM32G0xx_HAL_Driver/Inc/stm32g0xx_ll_tim.h **** };
  96:Drivers/STM32G0xx_HAL_Driver/Inc/stm32g0xx_ll_tim.h **** 
  97:Drivers/STM32G0xx_HAL_Driver/Inc/stm32g0xx_ll_tim.h **** static const uint8_t SHIFT_TAB_OISx[] =
  98:Drivers/STM32G0xx_HAL_Driver/Inc/stm32g0xx_ll_tim.h **** {
  99:Drivers/STM32G0xx_HAL_Driver/Inc/stm32g0xx_ll_tim.h ****   0U,            /* 0: OIS1 */
 100:Drivers/STM32G0xx_HAL_Driver/Inc/stm32g0xx_ll_tim.h ****   1U,            /* 1: OIS1N */
 101:Drivers/STM32G0xx_HAL_Driver/Inc/stm32g0xx_ll_tim.h ****   2U,            /* 2: OIS2 */
 102:Drivers/STM32G0xx_HAL_Driver/Inc/stm32g0xx_ll_tim.h ****   3U,            /* 3: OIS2N */
 103:Drivers/STM32G0xx_HAL_Driver/Inc/stm32g0xx_ll_tim.h ****   4U,            /* 4: OIS3 */
 104:Drivers/STM32G0xx_HAL_Driver/Inc/stm32g0xx_ll_tim.h ****   5U,            /* 5: OIS3N */
 105:Drivers/STM32G0xx_HAL_Driver/Inc/stm32g0xx_ll_tim.h ****   6U,            /* 6: OIS4 */
 106:Drivers/STM32G0xx_HAL_Driver/Inc/stm32g0xx_ll_tim.h ****   8U,            /* 7: OIS5 */
 107:Drivers/STM32G0xx_HAL_Driver/Inc/stm32g0xx_ll_tim.h ****   10U            /* 8: OIS6 */
 108:Drivers/STM32G0xx_HAL_Driver/Inc/stm32g0xx_ll_tim.h **** };
 109:Drivers/STM32G0xx_HAL_Driver/Inc/stm32g0xx_ll_tim.h **** /**
 110:Drivers/STM32G0xx_HAL_Driver/Inc/stm32g0xx_ll_tim.h ****   * @}
 111:Drivers/STM32G0xx_HAL_Driver/Inc/stm32g0xx_ll_tim.h ****   */
 112:Drivers/STM32G0xx_HAL_Driver/Inc/stm32g0xx_ll_tim.h **** 
 113:Drivers/STM32G0xx_HAL_Driver/Inc/stm32g0xx_ll_tim.h **** /* Private constants ---------------------------------------------------------*/
 114:Drivers/STM32G0xx_HAL_Driver/Inc/stm32g0xx_ll_tim.h **** /** @defgroup TIM_LL_Private_Constants TIM Private Constants
 115:Drivers/STM32G0xx_HAL_Driver/Inc/stm32g0xx_ll_tim.h ****   * @{
 116:Drivers/STM32G0xx_HAL_Driver/Inc/stm32g0xx_ll_tim.h ****   */
 117:Drivers/STM32G0xx_HAL_Driver/Inc/stm32g0xx_ll_tim.h **** 
 118:Drivers/STM32G0xx_HAL_Driver/Inc/stm32g0xx_ll_tim.h **** /* Defines used for the bit position in the register and perform offsets */
 119:Drivers/STM32G0xx_HAL_Driver/Inc/stm32g0xx_ll_tim.h **** #if defined(COMP3)
 120:Drivers/STM32G0xx_HAL_Driver/Inc/stm32g0xx_ll_tim.h **** #define TIM_POSITION_BRK_SOURCE \
 121:Drivers/STM32G0xx_HAL_Driver/Inc/stm32g0xx_ll_tim.h ****   ((Source == LL_TIM_BKIN_SOURCE_BKIN)    ? 0U :\
 122:Drivers/STM32G0xx_HAL_Driver/Inc/stm32g0xx_ll_tim.h ****    (Source == LL_TIM_BKIN_SOURCE_BKCOMP1) ? 1U :\
 123:Drivers/STM32G0xx_HAL_Driver/Inc/stm32g0xx_ll_tim.h ****    (Source == LL_TIM_BKIN_SOURCE_BKCOMP2) ? 2U :3U)
 124:Drivers/STM32G0xx_HAL_Driver/Inc/stm32g0xx_ll_tim.h **** #else
 125:Drivers/STM32G0xx_HAL_Driver/Inc/stm32g0xx_ll_tim.h **** #define TIM_POSITION_BRK_SOURCE            ((Source >> 1U) & 0x1FUL)
 126:Drivers/STM32G0xx_HAL_Driver/Inc/stm32g0xx_ll_tim.h **** #endif /* COMP3 */
ARM GAS  /tmp/ccjNLvMu.s 			page 21


 127:Drivers/STM32G0xx_HAL_Driver/Inc/stm32g0xx_ll_tim.h **** 
 128:Drivers/STM32G0xx_HAL_Driver/Inc/stm32g0xx_ll_tim.h **** /* Generic bit definitions for TIMx_AF1 register */
 129:Drivers/STM32G0xx_HAL_Driver/Inc/stm32g0xx_ll_tim.h **** #define TIMx_AF1_BKINP     TIM1_AF1_BKINP     /*!< BRK BKIN input polarity */
 130:Drivers/STM32G0xx_HAL_Driver/Inc/stm32g0xx_ll_tim.h **** #define TIMx_AF1_ETRSEL    TIM1_AF1_ETRSEL    /*!< TIMx ETR source selection */
 131:Drivers/STM32G0xx_HAL_Driver/Inc/stm32g0xx_ll_tim.h **** 
 132:Drivers/STM32G0xx_HAL_Driver/Inc/stm32g0xx_ll_tim.h **** 
 133:Drivers/STM32G0xx_HAL_Driver/Inc/stm32g0xx_ll_tim.h **** /* Mask used to set the TDG[x:0] of the DTG bits of the TIMx_BDTR register */
 134:Drivers/STM32G0xx_HAL_Driver/Inc/stm32g0xx_ll_tim.h **** #define DT_DELAY_1 ((uint8_t)0x7F)
 135:Drivers/STM32G0xx_HAL_Driver/Inc/stm32g0xx_ll_tim.h **** #define DT_DELAY_2 ((uint8_t)0x3F)
 136:Drivers/STM32G0xx_HAL_Driver/Inc/stm32g0xx_ll_tim.h **** #define DT_DELAY_3 ((uint8_t)0x1F)
 137:Drivers/STM32G0xx_HAL_Driver/Inc/stm32g0xx_ll_tim.h **** #define DT_DELAY_4 ((uint8_t)0x1F)
 138:Drivers/STM32G0xx_HAL_Driver/Inc/stm32g0xx_ll_tim.h **** 
 139:Drivers/STM32G0xx_HAL_Driver/Inc/stm32g0xx_ll_tim.h **** /* Mask used to set the DTG[7:5] bits of the DTG bits of the TIMx_BDTR register */
 140:Drivers/STM32G0xx_HAL_Driver/Inc/stm32g0xx_ll_tim.h **** #define DT_RANGE_1 ((uint8_t)0x00)
 141:Drivers/STM32G0xx_HAL_Driver/Inc/stm32g0xx_ll_tim.h **** #define DT_RANGE_2 ((uint8_t)0x80)
 142:Drivers/STM32G0xx_HAL_Driver/Inc/stm32g0xx_ll_tim.h **** #define DT_RANGE_3 ((uint8_t)0xC0)
 143:Drivers/STM32G0xx_HAL_Driver/Inc/stm32g0xx_ll_tim.h **** #define DT_RANGE_4 ((uint8_t)0xE0)
 144:Drivers/STM32G0xx_HAL_Driver/Inc/stm32g0xx_ll_tim.h **** 
 145:Drivers/STM32G0xx_HAL_Driver/Inc/stm32g0xx_ll_tim.h **** /** Legacy definitions for compatibility purpose
 146:Drivers/STM32G0xx_HAL_Driver/Inc/stm32g0xx_ll_tim.h **** @cond 0
 147:Drivers/STM32G0xx_HAL_Driver/Inc/stm32g0xx_ll_tim.h ****   */
 148:Drivers/STM32G0xx_HAL_Driver/Inc/stm32g0xx_ll_tim.h **** /**
 149:Drivers/STM32G0xx_HAL_Driver/Inc/stm32g0xx_ll_tim.h **** @endcond
 150:Drivers/STM32G0xx_HAL_Driver/Inc/stm32g0xx_ll_tim.h ****   */
 151:Drivers/STM32G0xx_HAL_Driver/Inc/stm32g0xx_ll_tim.h **** 
 152:Drivers/STM32G0xx_HAL_Driver/Inc/stm32g0xx_ll_tim.h **** #define OCREF_CLEAR_SELECT_Pos (16U)
 153:Drivers/STM32G0xx_HAL_Driver/Inc/stm32g0xx_ll_tim.h **** #define OCREF_CLEAR_SELECT_Msk (0x1UL << OCREF_CLEAR_SELECT_Pos)                /*!< 0x00010000 */
 154:Drivers/STM32G0xx_HAL_Driver/Inc/stm32g0xx_ll_tim.h **** /**
 155:Drivers/STM32G0xx_HAL_Driver/Inc/stm32g0xx_ll_tim.h ****   * @}
 156:Drivers/STM32G0xx_HAL_Driver/Inc/stm32g0xx_ll_tim.h ****   */
 157:Drivers/STM32G0xx_HAL_Driver/Inc/stm32g0xx_ll_tim.h **** 
 158:Drivers/STM32G0xx_HAL_Driver/Inc/stm32g0xx_ll_tim.h **** /* Private macros ------------------------------------------------------------*/
 159:Drivers/STM32G0xx_HAL_Driver/Inc/stm32g0xx_ll_tim.h **** /** @defgroup TIM_LL_Private_Macros TIM Private Macros
 160:Drivers/STM32G0xx_HAL_Driver/Inc/stm32g0xx_ll_tim.h ****   * @{
 161:Drivers/STM32G0xx_HAL_Driver/Inc/stm32g0xx_ll_tim.h ****   */
 162:Drivers/STM32G0xx_HAL_Driver/Inc/stm32g0xx_ll_tim.h **** /** @brief  Convert channel id into channel index.
 163:Drivers/STM32G0xx_HAL_Driver/Inc/stm32g0xx_ll_tim.h ****   * @param  __CHANNEL__ This parameter can be one of the following values:
 164:Drivers/STM32G0xx_HAL_Driver/Inc/stm32g0xx_ll_tim.h ****   *         @arg @ref LL_TIM_CHANNEL_CH1
 165:Drivers/STM32G0xx_HAL_Driver/Inc/stm32g0xx_ll_tim.h ****   *         @arg @ref LL_TIM_CHANNEL_CH1N
 166:Drivers/STM32G0xx_HAL_Driver/Inc/stm32g0xx_ll_tim.h ****   *         @arg @ref LL_TIM_CHANNEL_CH2
 167:Drivers/STM32G0xx_HAL_Driver/Inc/stm32g0xx_ll_tim.h ****   *         @arg @ref LL_TIM_CHANNEL_CH2N
 168:Drivers/STM32G0xx_HAL_Driver/Inc/stm32g0xx_ll_tim.h ****   *         @arg @ref LL_TIM_CHANNEL_CH3
 169:Drivers/STM32G0xx_HAL_Driver/Inc/stm32g0xx_ll_tim.h ****   *         @arg @ref LL_TIM_CHANNEL_CH3N
 170:Drivers/STM32G0xx_HAL_Driver/Inc/stm32g0xx_ll_tim.h ****   *         @arg @ref LL_TIM_CHANNEL_CH4
 171:Drivers/STM32G0xx_HAL_Driver/Inc/stm32g0xx_ll_tim.h ****   *         @arg @ref LL_TIM_CHANNEL_CH5
 172:Drivers/STM32G0xx_HAL_Driver/Inc/stm32g0xx_ll_tim.h ****   *         @arg @ref LL_TIM_CHANNEL_CH6
 173:Drivers/STM32G0xx_HAL_Driver/Inc/stm32g0xx_ll_tim.h ****   * @retval none
 174:Drivers/STM32G0xx_HAL_Driver/Inc/stm32g0xx_ll_tim.h ****   */
 175:Drivers/STM32G0xx_HAL_Driver/Inc/stm32g0xx_ll_tim.h **** #define TIM_GET_CHANNEL_INDEX( __CHANNEL__) \
 176:Drivers/STM32G0xx_HAL_Driver/Inc/stm32g0xx_ll_tim.h ****   (((__CHANNEL__) == LL_TIM_CHANNEL_CH1) ? 0U :\
 177:Drivers/STM32G0xx_HAL_Driver/Inc/stm32g0xx_ll_tim.h ****    ((__CHANNEL__) == LL_TIM_CHANNEL_CH1N) ? 1U :\
 178:Drivers/STM32G0xx_HAL_Driver/Inc/stm32g0xx_ll_tim.h ****    ((__CHANNEL__) == LL_TIM_CHANNEL_CH2) ? 2U :\
 179:Drivers/STM32G0xx_HAL_Driver/Inc/stm32g0xx_ll_tim.h ****    ((__CHANNEL__) == LL_TIM_CHANNEL_CH2N) ? 3U :\
 180:Drivers/STM32G0xx_HAL_Driver/Inc/stm32g0xx_ll_tim.h ****    ((__CHANNEL__) == LL_TIM_CHANNEL_CH3) ? 4U :\
 181:Drivers/STM32G0xx_HAL_Driver/Inc/stm32g0xx_ll_tim.h ****    ((__CHANNEL__) == LL_TIM_CHANNEL_CH3N) ? 5U :\
 182:Drivers/STM32G0xx_HAL_Driver/Inc/stm32g0xx_ll_tim.h ****    ((__CHANNEL__) == LL_TIM_CHANNEL_CH4) ? 6U :\
 183:Drivers/STM32G0xx_HAL_Driver/Inc/stm32g0xx_ll_tim.h ****    ((__CHANNEL__) == LL_TIM_CHANNEL_CH5) ? 7U : 8U)
ARM GAS  /tmp/ccjNLvMu.s 			page 22


 184:Drivers/STM32G0xx_HAL_Driver/Inc/stm32g0xx_ll_tim.h **** 
 185:Drivers/STM32G0xx_HAL_Driver/Inc/stm32g0xx_ll_tim.h **** /** @brief  Calculate the deadtime sampling period(in ps).
 186:Drivers/STM32G0xx_HAL_Driver/Inc/stm32g0xx_ll_tim.h ****   * @param  __TIMCLK__ timer input clock frequency (in Hz).
 187:Drivers/STM32G0xx_HAL_Driver/Inc/stm32g0xx_ll_tim.h ****   * @param  __CKD__ This parameter can be one of the following values:
 188:Drivers/STM32G0xx_HAL_Driver/Inc/stm32g0xx_ll_tim.h ****   *         @arg @ref LL_TIM_CLOCKDIVISION_DIV1
 189:Drivers/STM32G0xx_HAL_Driver/Inc/stm32g0xx_ll_tim.h ****   *         @arg @ref LL_TIM_CLOCKDIVISION_DIV2
 190:Drivers/STM32G0xx_HAL_Driver/Inc/stm32g0xx_ll_tim.h ****   *         @arg @ref LL_TIM_CLOCKDIVISION_DIV4
 191:Drivers/STM32G0xx_HAL_Driver/Inc/stm32g0xx_ll_tim.h ****   * @retval none
 192:Drivers/STM32G0xx_HAL_Driver/Inc/stm32g0xx_ll_tim.h ****   */
 193:Drivers/STM32G0xx_HAL_Driver/Inc/stm32g0xx_ll_tim.h **** #define TIM_CALC_DTS(__TIMCLK__, __CKD__)                                                        \
 194:Drivers/STM32G0xx_HAL_Driver/Inc/stm32g0xx_ll_tim.h ****   (((__CKD__) == LL_TIM_CLOCKDIVISION_DIV1) ? ((uint64_t)1000000000000U/(__TIMCLK__))         : \
 195:Drivers/STM32G0xx_HAL_Driver/Inc/stm32g0xx_ll_tim.h ****    ((__CKD__) == LL_TIM_CLOCKDIVISION_DIV2) ? ((uint64_t)1000000000000U/((__TIMCLK__) >> 1U)) : \
 196:Drivers/STM32G0xx_HAL_Driver/Inc/stm32g0xx_ll_tim.h ****    ((uint64_t)1000000000000U/((__TIMCLK__) >> 2U)))
 197:Drivers/STM32G0xx_HAL_Driver/Inc/stm32g0xx_ll_tim.h **** /**
 198:Drivers/STM32G0xx_HAL_Driver/Inc/stm32g0xx_ll_tim.h ****   * @}
 199:Drivers/STM32G0xx_HAL_Driver/Inc/stm32g0xx_ll_tim.h ****   */
 200:Drivers/STM32G0xx_HAL_Driver/Inc/stm32g0xx_ll_tim.h **** 
 201:Drivers/STM32G0xx_HAL_Driver/Inc/stm32g0xx_ll_tim.h **** 
 202:Drivers/STM32G0xx_HAL_Driver/Inc/stm32g0xx_ll_tim.h **** /* Exported types ------------------------------------------------------------*/
 203:Drivers/STM32G0xx_HAL_Driver/Inc/stm32g0xx_ll_tim.h **** #if defined(USE_FULL_LL_DRIVER)
 204:Drivers/STM32G0xx_HAL_Driver/Inc/stm32g0xx_ll_tim.h **** /** @defgroup TIM_LL_ES_INIT TIM Exported Init structure
 205:Drivers/STM32G0xx_HAL_Driver/Inc/stm32g0xx_ll_tim.h ****   * @{
 206:Drivers/STM32G0xx_HAL_Driver/Inc/stm32g0xx_ll_tim.h ****   */
 207:Drivers/STM32G0xx_HAL_Driver/Inc/stm32g0xx_ll_tim.h **** 
 208:Drivers/STM32G0xx_HAL_Driver/Inc/stm32g0xx_ll_tim.h **** /**
 209:Drivers/STM32G0xx_HAL_Driver/Inc/stm32g0xx_ll_tim.h ****   * @brief  TIM Time Base configuration structure definition.
 210:Drivers/STM32G0xx_HAL_Driver/Inc/stm32g0xx_ll_tim.h ****   */
 211:Drivers/STM32G0xx_HAL_Driver/Inc/stm32g0xx_ll_tim.h **** typedef struct
 212:Drivers/STM32G0xx_HAL_Driver/Inc/stm32g0xx_ll_tim.h **** {
 213:Drivers/STM32G0xx_HAL_Driver/Inc/stm32g0xx_ll_tim.h ****   uint16_t Prescaler;         /*!< Specifies the prescaler value used to divide the TIM clock.
 214:Drivers/STM32G0xx_HAL_Driver/Inc/stm32g0xx_ll_tim.h ****                                    This parameter can be a number between Min_Data=0x0000 and Max_D
 215:Drivers/STM32G0xx_HAL_Driver/Inc/stm32g0xx_ll_tim.h **** 
 216:Drivers/STM32G0xx_HAL_Driver/Inc/stm32g0xx_ll_tim.h ****                                    This feature can be modified afterwards using unitary function
 217:Drivers/STM32G0xx_HAL_Driver/Inc/stm32g0xx_ll_tim.h ****                                    @ref LL_TIM_SetPrescaler().*/
 218:Drivers/STM32G0xx_HAL_Driver/Inc/stm32g0xx_ll_tim.h **** 
 219:Drivers/STM32G0xx_HAL_Driver/Inc/stm32g0xx_ll_tim.h ****   uint32_t CounterMode;       /*!< Specifies the counter mode.
 220:Drivers/STM32G0xx_HAL_Driver/Inc/stm32g0xx_ll_tim.h ****                                    This parameter can be a value of @ref TIM_LL_EC_COUNTERMODE.
 221:Drivers/STM32G0xx_HAL_Driver/Inc/stm32g0xx_ll_tim.h **** 
 222:Drivers/STM32G0xx_HAL_Driver/Inc/stm32g0xx_ll_tim.h ****                                    This feature can be modified afterwards using unitary function
 223:Drivers/STM32G0xx_HAL_Driver/Inc/stm32g0xx_ll_tim.h ****                                    @ref LL_TIM_SetCounterMode().*/
 224:Drivers/STM32G0xx_HAL_Driver/Inc/stm32g0xx_ll_tim.h **** 
 225:Drivers/STM32G0xx_HAL_Driver/Inc/stm32g0xx_ll_tim.h ****   uint32_t Autoreload;        /*!< Specifies the auto reload value to be loaded into the active
 226:Drivers/STM32G0xx_HAL_Driver/Inc/stm32g0xx_ll_tim.h ****                                    Auto-Reload Register at the next update event.
 227:Drivers/STM32G0xx_HAL_Driver/Inc/stm32g0xx_ll_tim.h ****                                    This parameter must be a number between Min_Data=0x0000 and Max_
 228:Drivers/STM32G0xx_HAL_Driver/Inc/stm32g0xx_ll_tim.h ****                                    Some timer instances may support 32 bits counters. In that case 
 229:Drivers/STM32G0xx_HAL_Driver/Inc/stm32g0xx_ll_tim.h ****                                    be a number between 0x0000 and 0xFFFFFFFF.
 230:Drivers/STM32G0xx_HAL_Driver/Inc/stm32g0xx_ll_tim.h **** 
 231:Drivers/STM32G0xx_HAL_Driver/Inc/stm32g0xx_ll_tim.h ****                                    This feature can be modified afterwards using unitary function
 232:Drivers/STM32G0xx_HAL_Driver/Inc/stm32g0xx_ll_tim.h ****                                    @ref LL_TIM_SetAutoReload().*/
 233:Drivers/STM32G0xx_HAL_Driver/Inc/stm32g0xx_ll_tim.h **** 
 234:Drivers/STM32G0xx_HAL_Driver/Inc/stm32g0xx_ll_tim.h ****   uint32_t ClockDivision;     /*!< Specifies the clock division.
 235:Drivers/STM32G0xx_HAL_Driver/Inc/stm32g0xx_ll_tim.h ****                                    This parameter can be a value of @ref TIM_LL_EC_CLOCKDIVISION.
 236:Drivers/STM32G0xx_HAL_Driver/Inc/stm32g0xx_ll_tim.h **** 
 237:Drivers/STM32G0xx_HAL_Driver/Inc/stm32g0xx_ll_tim.h ****                                    This feature can be modified afterwards using unitary function
 238:Drivers/STM32G0xx_HAL_Driver/Inc/stm32g0xx_ll_tim.h ****                                    @ref LL_TIM_SetClockDivision().*/
 239:Drivers/STM32G0xx_HAL_Driver/Inc/stm32g0xx_ll_tim.h **** 
 240:Drivers/STM32G0xx_HAL_Driver/Inc/stm32g0xx_ll_tim.h ****   uint32_t RepetitionCounter;  /*!< Specifies the repetition counter value. Each time the RCR downc
ARM GAS  /tmp/ccjNLvMu.s 			page 23


 241:Drivers/STM32G0xx_HAL_Driver/Inc/stm32g0xx_ll_tim.h ****                                    reaches zero, an update event is generated and counting restarts
 242:Drivers/STM32G0xx_HAL_Driver/Inc/stm32g0xx_ll_tim.h ****                                    from the RCR value (N).
 243:Drivers/STM32G0xx_HAL_Driver/Inc/stm32g0xx_ll_tim.h ****                                    This means in PWM mode that (N+1) corresponds to:
 244:Drivers/STM32G0xx_HAL_Driver/Inc/stm32g0xx_ll_tim.h ****                                       - the number of PWM periods in edge-aligned mode
 245:Drivers/STM32G0xx_HAL_Driver/Inc/stm32g0xx_ll_tim.h ****                                       - the number of half PWM period in center-aligned mode
 246:Drivers/STM32G0xx_HAL_Driver/Inc/stm32g0xx_ll_tim.h ****                                    GP timers: this parameter must be a number between Min_Data = 0x
 247:Drivers/STM32G0xx_HAL_Driver/Inc/stm32g0xx_ll_tim.h ****                                    Max_Data = 0xFF.
 248:Drivers/STM32G0xx_HAL_Driver/Inc/stm32g0xx_ll_tim.h ****                                    Advanced timers: this parameter must be a number between Min_Dat
 249:Drivers/STM32G0xx_HAL_Driver/Inc/stm32g0xx_ll_tim.h ****                                    Max_Data = 0xFFFF.
 250:Drivers/STM32G0xx_HAL_Driver/Inc/stm32g0xx_ll_tim.h **** 
 251:Drivers/STM32G0xx_HAL_Driver/Inc/stm32g0xx_ll_tim.h ****                                    This feature can be modified afterwards using unitary function
 252:Drivers/STM32G0xx_HAL_Driver/Inc/stm32g0xx_ll_tim.h ****                                    @ref LL_TIM_SetRepetitionCounter().*/
 253:Drivers/STM32G0xx_HAL_Driver/Inc/stm32g0xx_ll_tim.h **** } LL_TIM_InitTypeDef;
 254:Drivers/STM32G0xx_HAL_Driver/Inc/stm32g0xx_ll_tim.h **** 
 255:Drivers/STM32G0xx_HAL_Driver/Inc/stm32g0xx_ll_tim.h **** /**
 256:Drivers/STM32G0xx_HAL_Driver/Inc/stm32g0xx_ll_tim.h ****   * @brief  TIM Output Compare configuration structure definition.
 257:Drivers/STM32G0xx_HAL_Driver/Inc/stm32g0xx_ll_tim.h ****   */
 258:Drivers/STM32G0xx_HAL_Driver/Inc/stm32g0xx_ll_tim.h **** typedef struct
 259:Drivers/STM32G0xx_HAL_Driver/Inc/stm32g0xx_ll_tim.h **** {
 260:Drivers/STM32G0xx_HAL_Driver/Inc/stm32g0xx_ll_tim.h ****   uint32_t OCMode;        /*!< Specifies the output mode.
 261:Drivers/STM32G0xx_HAL_Driver/Inc/stm32g0xx_ll_tim.h ****                                This parameter can be a value of @ref TIM_LL_EC_OCMODE.
 262:Drivers/STM32G0xx_HAL_Driver/Inc/stm32g0xx_ll_tim.h **** 
 263:Drivers/STM32G0xx_HAL_Driver/Inc/stm32g0xx_ll_tim.h ****                                This feature can be modified afterwards using unitary function
 264:Drivers/STM32G0xx_HAL_Driver/Inc/stm32g0xx_ll_tim.h ****                                @ref LL_TIM_OC_SetMode().*/
 265:Drivers/STM32G0xx_HAL_Driver/Inc/stm32g0xx_ll_tim.h **** 
 266:Drivers/STM32G0xx_HAL_Driver/Inc/stm32g0xx_ll_tim.h ****   uint32_t OCState;       /*!< Specifies the TIM Output Compare state.
 267:Drivers/STM32G0xx_HAL_Driver/Inc/stm32g0xx_ll_tim.h ****                                This parameter can be a value of @ref TIM_LL_EC_OCSTATE.
 268:Drivers/STM32G0xx_HAL_Driver/Inc/stm32g0xx_ll_tim.h **** 
 269:Drivers/STM32G0xx_HAL_Driver/Inc/stm32g0xx_ll_tim.h ****                                This feature can be modified afterwards using unitary functions
 270:Drivers/STM32G0xx_HAL_Driver/Inc/stm32g0xx_ll_tim.h ****                                @ref LL_TIM_CC_EnableChannel() or @ref LL_TIM_CC_DisableChannel().*/
 271:Drivers/STM32G0xx_HAL_Driver/Inc/stm32g0xx_ll_tim.h **** 
 272:Drivers/STM32G0xx_HAL_Driver/Inc/stm32g0xx_ll_tim.h ****   uint32_t OCNState;      /*!< Specifies the TIM complementary Output Compare state.
 273:Drivers/STM32G0xx_HAL_Driver/Inc/stm32g0xx_ll_tim.h ****                                This parameter can be a value of @ref TIM_LL_EC_OCSTATE.
 274:Drivers/STM32G0xx_HAL_Driver/Inc/stm32g0xx_ll_tim.h **** 
 275:Drivers/STM32G0xx_HAL_Driver/Inc/stm32g0xx_ll_tim.h ****                                This feature can be modified afterwards using unitary functions
 276:Drivers/STM32G0xx_HAL_Driver/Inc/stm32g0xx_ll_tim.h ****                                @ref LL_TIM_CC_EnableChannel() or @ref LL_TIM_CC_DisableChannel().*/
 277:Drivers/STM32G0xx_HAL_Driver/Inc/stm32g0xx_ll_tim.h **** 
 278:Drivers/STM32G0xx_HAL_Driver/Inc/stm32g0xx_ll_tim.h ****   uint32_t CompareValue;  /*!< Specifies the Compare value to be loaded into the Capture Compare Re
 279:Drivers/STM32G0xx_HAL_Driver/Inc/stm32g0xx_ll_tim.h ****                                This parameter can be a number between Min_Data=0x0000 and Max_Data=
 280:Drivers/STM32G0xx_HAL_Driver/Inc/stm32g0xx_ll_tim.h **** 
 281:Drivers/STM32G0xx_HAL_Driver/Inc/stm32g0xx_ll_tim.h ****                                This feature can be modified afterwards using unitary function
 282:Drivers/STM32G0xx_HAL_Driver/Inc/stm32g0xx_ll_tim.h ****                                LL_TIM_OC_SetCompareCHx (x=1..6).*/
 283:Drivers/STM32G0xx_HAL_Driver/Inc/stm32g0xx_ll_tim.h **** 
 284:Drivers/STM32G0xx_HAL_Driver/Inc/stm32g0xx_ll_tim.h ****   uint32_t OCPolarity;    /*!< Specifies the output polarity.
 285:Drivers/STM32G0xx_HAL_Driver/Inc/stm32g0xx_ll_tim.h ****                                This parameter can be a value of @ref TIM_LL_EC_OCPOLARITY.
 286:Drivers/STM32G0xx_HAL_Driver/Inc/stm32g0xx_ll_tim.h **** 
 287:Drivers/STM32G0xx_HAL_Driver/Inc/stm32g0xx_ll_tim.h ****                                This feature can be modified afterwards using unitary function
 288:Drivers/STM32G0xx_HAL_Driver/Inc/stm32g0xx_ll_tim.h ****                                @ref LL_TIM_OC_SetPolarity().*/
 289:Drivers/STM32G0xx_HAL_Driver/Inc/stm32g0xx_ll_tim.h **** 
 290:Drivers/STM32G0xx_HAL_Driver/Inc/stm32g0xx_ll_tim.h ****   uint32_t OCNPolarity;   /*!< Specifies the complementary output polarity.
 291:Drivers/STM32G0xx_HAL_Driver/Inc/stm32g0xx_ll_tim.h ****                                This parameter can be a value of @ref TIM_LL_EC_OCPOLARITY.
 292:Drivers/STM32G0xx_HAL_Driver/Inc/stm32g0xx_ll_tim.h **** 
 293:Drivers/STM32G0xx_HAL_Driver/Inc/stm32g0xx_ll_tim.h ****                                This feature can be modified afterwards using unitary function
 294:Drivers/STM32G0xx_HAL_Driver/Inc/stm32g0xx_ll_tim.h ****                                @ref LL_TIM_OC_SetPolarity().*/
 295:Drivers/STM32G0xx_HAL_Driver/Inc/stm32g0xx_ll_tim.h **** 
 296:Drivers/STM32G0xx_HAL_Driver/Inc/stm32g0xx_ll_tim.h **** 
 297:Drivers/STM32G0xx_HAL_Driver/Inc/stm32g0xx_ll_tim.h ****   uint32_t OCIdleState;   /*!< Specifies the TIM Output Compare pin state during Idle state.
ARM GAS  /tmp/ccjNLvMu.s 			page 24


 298:Drivers/STM32G0xx_HAL_Driver/Inc/stm32g0xx_ll_tim.h ****                                This parameter can be a value of @ref TIM_LL_EC_OCIDLESTATE.
 299:Drivers/STM32G0xx_HAL_Driver/Inc/stm32g0xx_ll_tim.h **** 
 300:Drivers/STM32G0xx_HAL_Driver/Inc/stm32g0xx_ll_tim.h ****                                This feature can be modified afterwards using unitary function
 301:Drivers/STM32G0xx_HAL_Driver/Inc/stm32g0xx_ll_tim.h ****                                @ref LL_TIM_OC_SetIdleState().*/
 302:Drivers/STM32G0xx_HAL_Driver/Inc/stm32g0xx_ll_tim.h **** 
 303:Drivers/STM32G0xx_HAL_Driver/Inc/stm32g0xx_ll_tim.h ****   uint32_t OCNIdleState;  /*!< Specifies the TIM Output Compare pin state during Idle state.
 304:Drivers/STM32G0xx_HAL_Driver/Inc/stm32g0xx_ll_tim.h ****                                This parameter can be a value of @ref TIM_LL_EC_OCIDLESTATE.
 305:Drivers/STM32G0xx_HAL_Driver/Inc/stm32g0xx_ll_tim.h **** 
 306:Drivers/STM32G0xx_HAL_Driver/Inc/stm32g0xx_ll_tim.h ****                                This feature can be modified afterwards using unitary function
 307:Drivers/STM32G0xx_HAL_Driver/Inc/stm32g0xx_ll_tim.h ****                                @ref LL_TIM_OC_SetIdleState().*/
 308:Drivers/STM32G0xx_HAL_Driver/Inc/stm32g0xx_ll_tim.h **** } LL_TIM_OC_InitTypeDef;
 309:Drivers/STM32G0xx_HAL_Driver/Inc/stm32g0xx_ll_tim.h **** 
 310:Drivers/STM32G0xx_HAL_Driver/Inc/stm32g0xx_ll_tim.h **** /**
 311:Drivers/STM32G0xx_HAL_Driver/Inc/stm32g0xx_ll_tim.h ****   * @brief  TIM Input Capture configuration structure definition.
 312:Drivers/STM32G0xx_HAL_Driver/Inc/stm32g0xx_ll_tim.h ****   */
 313:Drivers/STM32G0xx_HAL_Driver/Inc/stm32g0xx_ll_tim.h **** 
 314:Drivers/STM32G0xx_HAL_Driver/Inc/stm32g0xx_ll_tim.h **** typedef struct
 315:Drivers/STM32G0xx_HAL_Driver/Inc/stm32g0xx_ll_tim.h **** {
 316:Drivers/STM32G0xx_HAL_Driver/Inc/stm32g0xx_ll_tim.h **** 
 317:Drivers/STM32G0xx_HAL_Driver/Inc/stm32g0xx_ll_tim.h ****   uint32_t ICPolarity;    /*!< Specifies the active edge of the input signal.
 318:Drivers/STM32G0xx_HAL_Driver/Inc/stm32g0xx_ll_tim.h ****                                This parameter can be a value of @ref TIM_LL_EC_IC_POLARITY.
 319:Drivers/STM32G0xx_HAL_Driver/Inc/stm32g0xx_ll_tim.h **** 
 320:Drivers/STM32G0xx_HAL_Driver/Inc/stm32g0xx_ll_tim.h ****                                This feature can be modified afterwards using unitary function
 321:Drivers/STM32G0xx_HAL_Driver/Inc/stm32g0xx_ll_tim.h ****                                @ref LL_TIM_IC_SetPolarity().*/
 322:Drivers/STM32G0xx_HAL_Driver/Inc/stm32g0xx_ll_tim.h **** 
 323:Drivers/STM32G0xx_HAL_Driver/Inc/stm32g0xx_ll_tim.h ****   uint32_t ICActiveInput; /*!< Specifies the input.
 324:Drivers/STM32G0xx_HAL_Driver/Inc/stm32g0xx_ll_tim.h ****                                This parameter can be a value of @ref TIM_LL_EC_ACTIVEINPUT.
 325:Drivers/STM32G0xx_HAL_Driver/Inc/stm32g0xx_ll_tim.h **** 
 326:Drivers/STM32G0xx_HAL_Driver/Inc/stm32g0xx_ll_tim.h ****                                This feature can be modified afterwards using unitary function
 327:Drivers/STM32G0xx_HAL_Driver/Inc/stm32g0xx_ll_tim.h ****                                @ref LL_TIM_IC_SetActiveInput().*/
 328:Drivers/STM32G0xx_HAL_Driver/Inc/stm32g0xx_ll_tim.h **** 
 329:Drivers/STM32G0xx_HAL_Driver/Inc/stm32g0xx_ll_tim.h ****   uint32_t ICPrescaler;   /*!< Specifies the Input Capture Prescaler.
 330:Drivers/STM32G0xx_HAL_Driver/Inc/stm32g0xx_ll_tim.h ****                                This parameter can be a value of @ref TIM_LL_EC_ICPSC.
 331:Drivers/STM32G0xx_HAL_Driver/Inc/stm32g0xx_ll_tim.h **** 
 332:Drivers/STM32G0xx_HAL_Driver/Inc/stm32g0xx_ll_tim.h ****                                This feature can be modified afterwards using unitary function
 333:Drivers/STM32G0xx_HAL_Driver/Inc/stm32g0xx_ll_tim.h ****                                @ref LL_TIM_IC_SetPrescaler().*/
 334:Drivers/STM32G0xx_HAL_Driver/Inc/stm32g0xx_ll_tim.h **** 
 335:Drivers/STM32G0xx_HAL_Driver/Inc/stm32g0xx_ll_tim.h ****   uint32_t ICFilter;      /*!< Specifies the input capture filter.
 336:Drivers/STM32G0xx_HAL_Driver/Inc/stm32g0xx_ll_tim.h ****                                This parameter can be a value of @ref TIM_LL_EC_IC_FILTER.
 337:Drivers/STM32G0xx_HAL_Driver/Inc/stm32g0xx_ll_tim.h **** 
 338:Drivers/STM32G0xx_HAL_Driver/Inc/stm32g0xx_ll_tim.h ****                                This feature can be modified afterwards using unitary function
 339:Drivers/STM32G0xx_HAL_Driver/Inc/stm32g0xx_ll_tim.h ****                                @ref LL_TIM_IC_SetFilter().*/
 340:Drivers/STM32G0xx_HAL_Driver/Inc/stm32g0xx_ll_tim.h **** } LL_TIM_IC_InitTypeDef;
 341:Drivers/STM32G0xx_HAL_Driver/Inc/stm32g0xx_ll_tim.h **** 
 342:Drivers/STM32G0xx_HAL_Driver/Inc/stm32g0xx_ll_tim.h **** 
 343:Drivers/STM32G0xx_HAL_Driver/Inc/stm32g0xx_ll_tim.h **** /**
 344:Drivers/STM32G0xx_HAL_Driver/Inc/stm32g0xx_ll_tim.h ****   * @brief  TIM Encoder interface configuration structure definition.
 345:Drivers/STM32G0xx_HAL_Driver/Inc/stm32g0xx_ll_tim.h ****   */
 346:Drivers/STM32G0xx_HAL_Driver/Inc/stm32g0xx_ll_tim.h **** typedef struct
 347:Drivers/STM32G0xx_HAL_Driver/Inc/stm32g0xx_ll_tim.h **** {
 348:Drivers/STM32G0xx_HAL_Driver/Inc/stm32g0xx_ll_tim.h ****   uint32_t EncoderMode;     /*!< Specifies the encoder resolution (x2 or x4).
 349:Drivers/STM32G0xx_HAL_Driver/Inc/stm32g0xx_ll_tim.h ****                                  This parameter can be a value of @ref TIM_LL_EC_ENCODERMODE.
 350:Drivers/STM32G0xx_HAL_Driver/Inc/stm32g0xx_ll_tim.h **** 
 351:Drivers/STM32G0xx_HAL_Driver/Inc/stm32g0xx_ll_tim.h ****                                  This feature can be modified afterwards using unitary function
 352:Drivers/STM32G0xx_HAL_Driver/Inc/stm32g0xx_ll_tim.h ****                                  @ref LL_TIM_SetEncoderMode().*/
 353:Drivers/STM32G0xx_HAL_Driver/Inc/stm32g0xx_ll_tim.h **** 
 354:Drivers/STM32G0xx_HAL_Driver/Inc/stm32g0xx_ll_tim.h ****   uint32_t IC1Polarity;     /*!< Specifies the active edge of TI1 input.
ARM GAS  /tmp/ccjNLvMu.s 			page 25


 355:Drivers/STM32G0xx_HAL_Driver/Inc/stm32g0xx_ll_tim.h ****                                  This parameter can be a value of @ref TIM_LL_EC_IC_POLARITY.
 356:Drivers/STM32G0xx_HAL_Driver/Inc/stm32g0xx_ll_tim.h **** 
 357:Drivers/STM32G0xx_HAL_Driver/Inc/stm32g0xx_ll_tim.h ****                                  This feature can be modified afterwards using unitary function
 358:Drivers/STM32G0xx_HAL_Driver/Inc/stm32g0xx_ll_tim.h ****                                  @ref LL_TIM_IC_SetPolarity().*/
 359:Drivers/STM32G0xx_HAL_Driver/Inc/stm32g0xx_ll_tim.h **** 
 360:Drivers/STM32G0xx_HAL_Driver/Inc/stm32g0xx_ll_tim.h ****   uint32_t IC1ActiveInput;  /*!< Specifies the TI1 input source
 361:Drivers/STM32G0xx_HAL_Driver/Inc/stm32g0xx_ll_tim.h ****                                  This parameter can be a value of @ref TIM_LL_EC_ACTIVEINPUT.
 362:Drivers/STM32G0xx_HAL_Driver/Inc/stm32g0xx_ll_tim.h **** 
 363:Drivers/STM32G0xx_HAL_Driver/Inc/stm32g0xx_ll_tim.h ****                                  This feature can be modified afterwards using unitary function
 364:Drivers/STM32G0xx_HAL_Driver/Inc/stm32g0xx_ll_tim.h ****                                  @ref LL_TIM_IC_SetActiveInput().*/
 365:Drivers/STM32G0xx_HAL_Driver/Inc/stm32g0xx_ll_tim.h **** 
 366:Drivers/STM32G0xx_HAL_Driver/Inc/stm32g0xx_ll_tim.h ****   uint32_t IC1Prescaler;    /*!< Specifies the TI1 input prescaler value.
 367:Drivers/STM32G0xx_HAL_Driver/Inc/stm32g0xx_ll_tim.h ****                                  This parameter can be a value of @ref TIM_LL_EC_ICPSC.
 368:Drivers/STM32G0xx_HAL_Driver/Inc/stm32g0xx_ll_tim.h **** 
 369:Drivers/STM32G0xx_HAL_Driver/Inc/stm32g0xx_ll_tim.h ****                                  This feature can be modified afterwards using unitary function
 370:Drivers/STM32G0xx_HAL_Driver/Inc/stm32g0xx_ll_tim.h ****                                  @ref LL_TIM_IC_SetPrescaler().*/
 371:Drivers/STM32G0xx_HAL_Driver/Inc/stm32g0xx_ll_tim.h **** 
 372:Drivers/STM32G0xx_HAL_Driver/Inc/stm32g0xx_ll_tim.h ****   uint32_t IC1Filter;       /*!< Specifies the TI1 input filter.
 373:Drivers/STM32G0xx_HAL_Driver/Inc/stm32g0xx_ll_tim.h ****                                  This parameter can be a value of @ref TIM_LL_EC_IC_FILTER.
 374:Drivers/STM32G0xx_HAL_Driver/Inc/stm32g0xx_ll_tim.h **** 
 375:Drivers/STM32G0xx_HAL_Driver/Inc/stm32g0xx_ll_tim.h ****                                  This feature can be modified afterwards using unitary function
 376:Drivers/STM32G0xx_HAL_Driver/Inc/stm32g0xx_ll_tim.h ****                                  @ref LL_TIM_IC_SetFilter().*/
 377:Drivers/STM32G0xx_HAL_Driver/Inc/stm32g0xx_ll_tim.h **** 
 378:Drivers/STM32G0xx_HAL_Driver/Inc/stm32g0xx_ll_tim.h ****   uint32_t IC2Polarity;      /*!< Specifies the active edge of TI2 input.
 379:Drivers/STM32G0xx_HAL_Driver/Inc/stm32g0xx_ll_tim.h ****                                  This parameter can be a value of @ref TIM_LL_EC_IC_POLARITY.
 380:Drivers/STM32G0xx_HAL_Driver/Inc/stm32g0xx_ll_tim.h **** 
 381:Drivers/STM32G0xx_HAL_Driver/Inc/stm32g0xx_ll_tim.h ****                                  This feature can be modified afterwards using unitary function
 382:Drivers/STM32G0xx_HAL_Driver/Inc/stm32g0xx_ll_tim.h ****                                  @ref LL_TIM_IC_SetPolarity().*/
 383:Drivers/STM32G0xx_HAL_Driver/Inc/stm32g0xx_ll_tim.h **** 
 384:Drivers/STM32G0xx_HAL_Driver/Inc/stm32g0xx_ll_tim.h ****   uint32_t IC2ActiveInput;  /*!< Specifies the TI2 input source
 385:Drivers/STM32G0xx_HAL_Driver/Inc/stm32g0xx_ll_tim.h ****                                  This parameter can be a value of @ref TIM_LL_EC_ACTIVEINPUT.
 386:Drivers/STM32G0xx_HAL_Driver/Inc/stm32g0xx_ll_tim.h **** 
 387:Drivers/STM32G0xx_HAL_Driver/Inc/stm32g0xx_ll_tim.h ****                                  This feature can be modified afterwards using unitary function
 388:Drivers/STM32G0xx_HAL_Driver/Inc/stm32g0xx_ll_tim.h ****                                  @ref LL_TIM_IC_SetActiveInput().*/
 389:Drivers/STM32G0xx_HAL_Driver/Inc/stm32g0xx_ll_tim.h **** 
 390:Drivers/STM32G0xx_HAL_Driver/Inc/stm32g0xx_ll_tim.h ****   uint32_t IC2Prescaler;    /*!< Specifies the TI2 input prescaler value.
 391:Drivers/STM32G0xx_HAL_Driver/Inc/stm32g0xx_ll_tim.h ****                                  This parameter can be a value of @ref TIM_LL_EC_ICPSC.
 392:Drivers/STM32G0xx_HAL_Driver/Inc/stm32g0xx_ll_tim.h **** 
 393:Drivers/STM32G0xx_HAL_Driver/Inc/stm32g0xx_ll_tim.h ****                                  This feature can be modified afterwards using unitary function
 394:Drivers/STM32G0xx_HAL_Driver/Inc/stm32g0xx_ll_tim.h ****                                  @ref LL_TIM_IC_SetPrescaler().*/
 395:Drivers/STM32G0xx_HAL_Driver/Inc/stm32g0xx_ll_tim.h **** 
 396:Drivers/STM32G0xx_HAL_Driver/Inc/stm32g0xx_ll_tim.h ****   uint32_t IC2Filter;       /*!< Specifies the TI2 input filter.
 397:Drivers/STM32G0xx_HAL_Driver/Inc/stm32g0xx_ll_tim.h ****                                  This parameter can be a value of @ref TIM_LL_EC_IC_FILTER.
 398:Drivers/STM32G0xx_HAL_Driver/Inc/stm32g0xx_ll_tim.h **** 
 399:Drivers/STM32G0xx_HAL_Driver/Inc/stm32g0xx_ll_tim.h ****                                  This feature can be modified afterwards using unitary function
 400:Drivers/STM32G0xx_HAL_Driver/Inc/stm32g0xx_ll_tim.h ****                                  @ref LL_TIM_IC_SetFilter().*/
 401:Drivers/STM32G0xx_HAL_Driver/Inc/stm32g0xx_ll_tim.h **** 
 402:Drivers/STM32G0xx_HAL_Driver/Inc/stm32g0xx_ll_tim.h **** } LL_TIM_ENCODER_InitTypeDef;
 403:Drivers/STM32G0xx_HAL_Driver/Inc/stm32g0xx_ll_tim.h **** 
 404:Drivers/STM32G0xx_HAL_Driver/Inc/stm32g0xx_ll_tim.h **** /**
 405:Drivers/STM32G0xx_HAL_Driver/Inc/stm32g0xx_ll_tim.h ****   * @brief  TIM Hall sensor interface configuration structure definition.
 406:Drivers/STM32G0xx_HAL_Driver/Inc/stm32g0xx_ll_tim.h ****   */
 407:Drivers/STM32G0xx_HAL_Driver/Inc/stm32g0xx_ll_tim.h **** typedef struct
 408:Drivers/STM32G0xx_HAL_Driver/Inc/stm32g0xx_ll_tim.h **** {
 409:Drivers/STM32G0xx_HAL_Driver/Inc/stm32g0xx_ll_tim.h **** 
 410:Drivers/STM32G0xx_HAL_Driver/Inc/stm32g0xx_ll_tim.h ****   uint32_t IC1Polarity;        /*!< Specifies the active edge of TI1 input.
 411:Drivers/STM32G0xx_HAL_Driver/Inc/stm32g0xx_ll_tim.h ****                                     This parameter can be a value of @ref TIM_LL_EC_IC_POLARITY.
ARM GAS  /tmp/ccjNLvMu.s 			page 26


 412:Drivers/STM32G0xx_HAL_Driver/Inc/stm32g0xx_ll_tim.h **** 
 413:Drivers/STM32G0xx_HAL_Driver/Inc/stm32g0xx_ll_tim.h ****                                     This feature can be modified afterwards using unitary function
 414:Drivers/STM32G0xx_HAL_Driver/Inc/stm32g0xx_ll_tim.h ****                                     @ref LL_TIM_IC_SetPolarity().*/
 415:Drivers/STM32G0xx_HAL_Driver/Inc/stm32g0xx_ll_tim.h **** 
 416:Drivers/STM32G0xx_HAL_Driver/Inc/stm32g0xx_ll_tim.h ****   uint32_t IC1Prescaler;       /*!< Specifies the TI1 input prescaler value.
 417:Drivers/STM32G0xx_HAL_Driver/Inc/stm32g0xx_ll_tim.h ****                                     Prescaler must be set to get a maximum counter period longer th
 418:Drivers/STM32G0xx_HAL_Driver/Inc/stm32g0xx_ll_tim.h ****                                     time interval between 2 consecutive changes on the Hall inputs.
 419:Drivers/STM32G0xx_HAL_Driver/Inc/stm32g0xx_ll_tim.h ****                                     This parameter can be a value of @ref TIM_LL_EC_ICPSC.
 420:Drivers/STM32G0xx_HAL_Driver/Inc/stm32g0xx_ll_tim.h **** 
 421:Drivers/STM32G0xx_HAL_Driver/Inc/stm32g0xx_ll_tim.h ****                                     This feature can be modified afterwards using unitary function
 422:Drivers/STM32G0xx_HAL_Driver/Inc/stm32g0xx_ll_tim.h ****                                     @ref LL_TIM_IC_SetPrescaler().*/
 423:Drivers/STM32G0xx_HAL_Driver/Inc/stm32g0xx_ll_tim.h **** 
 424:Drivers/STM32G0xx_HAL_Driver/Inc/stm32g0xx_ll_tim.h ****   uint32_t IC1Filter;          /*!< Specifies the TI1 input filter.
 425:Drivers/STM32G0xx_HAL_Driver/Inc/stm32g0xx_ll_tim.h ****                                     This parameter can be a value of
 426:Drivers/STM32G0xx_HAL_Driver/Inc/stm32g0xx_ll_tim.h ****                                     @ref TIM_LL_EC_IC_FILTER.
 427:Drivers/STM32G0xx_HAL_Driver/Inc/stm32g0xx_ll_tim.h **** 
 428:Drivers/STM32G0xx_HAL_Driver/Inc/stm32g0xx_ll_tim.h ****                                     This feature can be modified afterwards using unitary function
 429:Drivers/STM32G0xx_HAL_Driver/Inc/stm32g0xx_ll_tim.h ****                                     @ref LL_TIM_IC_SetFilter().*/
 430:Drivers/STM32G0xx_HAL_Driver/Inc/stm32g0xx_ll_tim.h **** 
 431:Drivers/STM32G0xx_HAL_Driver/Inc/stm32g0xx_ll_tim.h ****   uint32_t CommutationDelay;   /*!< Specifies the compare value to be loaded into the Capture Compa
 432:Drivers/STM32G0xx_HAL_Driver/Inc/stm32g0xx_ll_tim.h ****                                     A positive pulse (TRGO event) is generated with a programmable 
 433:Drivers/STM32G0xx_HAL_Driver/Inc/stm32g0xx_ll_tim.h ****                                     a change occurs on the Hall inputs.
 434:Drivers/STM32G0xx_HAL_Driver/Inc/stm32g0xx_ll_tim.h ****                                     This parameter can be a number between Min_Data = 0x0000 and Ma
 435:Drivers/STM32G0xx_HAL_Driver/Inc/stm32g0xx_ll_tim.h **** 
 436:Drivers/STM32G0xx_HAL_Driver/Inc/stm32g0xx_ll_tim.h ****                                     This feature can be modified afterwards using unitary function
 437:Drivers/STM32G0xx_HAL_Driver/Inc/stm32g0xx_ll_tim.h ****                                     @ref LL_TIM_OC_SetCompareCH2().*/
 438:Drivers/STM32G0xx_HAL_Driver/Inc/stm32g0xx_ll_tim.h **** } LL_TIM_HALLSENSOR_InitTypeDef;
 439:Drivers/STM32G0xx_HAL_Driver/Inc/stm32g0xx_ll_tim.h **** 
 440:Drivers/STM32G0xx_HAL_Driver/Inc/stm32g0xx_ll_tim.h **** /**
 441:Drivers/STM32G0xx_HAL_Driver/Inc/stm32g0xx_ll_tim.h ****   * @brief  BDTR (Break and Dead Time) structure definition
 442:Drivers/STM32G0xx_HAL_Driver/Inc/stm32g0xx_ll_tim.h ****   */
 443:Drivers/STM32G0xx_HAL_Driver/Inc/stm32g0xx_ll_tim.h **** typedef struct
 444:Drivers/STM32G0xx_HAL_Driver/Inc/stm32g0xx_ll_tim.h **** {
 445:Drivers/STM32G0xx_HAL_Driver/Inc/stm32g0xx_ll_tim.h ****   uint32_t OSSRState;            /*!< Specifies the Off-State selection used in Run mode.
 446:Drivers/STM32G0xx_HAL_Driver/Inc/stm32g0xx_ll_tim.h ****                                       This parameter can be a value of @ref TIM_LL_EC_OSSR
 447:Drivers/STM32G0xx_HAL_Driver/Inc/stm32g0xx_ll_tim.h **** 
 448:Drivers/STM32G0xx_HAL_Driver/Inc/stm32g0xx_ll_tim.h ****                                       This feature can be modified afterwards using unitary functio
 449:Drivers/STM32G0xx_HAL_Driver/Inc/stm32g0xx_ll_tim.h ****                                       @ref LL_TIM_SetOffStates()
 450:Drivers/STM32G0xx_HAL_Driver/Inc/stm32g0xx_ll_tim.h **** 
 451:Drivers/STM32G0xx_HAL_Driver/Inc/stm32g0xx_ll_tim.h ****                                       @note This bit-field cannot be modified as long as LOCK level
 452:Drivers/STM32G0xx_HAL_Driver/Inc/stm32g0xx_ll_tim.h ****                                        programmed. */
 453:Drivers/STM32G0xx_HAL_Driver/Inc/stm32g0xx_ll_tim.h **** 
 454:Drivers/STM32G0xx_HAL_Driver/Inc/stm32g0xx_ll_tim.h ****   uint32_t OSSIState;            /*!< Specifies the Off-State used in Idle state.
 455:Drivers/STM32G0xx_HAL_Driver/Inc/stm32g0xx_ll_tim.h ****                                       This parameter can be a value of @ref TIM_LL_EC_OSSI
 456:Drivers/STM32G0xx_HAL_Driver/Inc/stm32g0xx_ll_tim.h **** 
 457:Drivers/STM32G0xx_HAL_Driver/Inc/stm32g0xx_ll_tim.h ****                                       This feature can be modified afterwards using unitary functio
 458:Drivers/STM32G0xx_HAL_Driver/Inc/stm32g0xx_ll_tim.h ****                                       @ref LL_TIM_SetOffStates()
 459:Drivers/STM32G0xx_HAL_Driver/Inc/stm32g0xx_ll_tim.h **** 
 460:Drivers/STM32G0xx_HAL_Driver/Inc/stm32g0xx_ll_tim.h ****                                       @note This bit-field cannot be modified as long as LOCK level
 461:Drivers/STM32G0xx_HAL_Driver/Inc/stm32g0xx_ll_tim.h ****                                       programmed. */
 462:Drivers/STM32G0xx_HAL_Driver/Inc/stm32g0xx_ll_tim.h **** 
 463:Drivers/STM32G0xx_HAL_Driver/Inc/stm32g0xx_ll_tim.h ****   uint32_t LockLevel;            /*!< Specifies the LOCK level parameters.
 464:Drivers/STM32G0xx_HAL_Driver/Inc/stm32g0xx_ll_tim.h ****                                       This parameter can be a value of @ref TIM_LL_EC_LOCKLEVEL
 465:Drivers/STM32G0xx_HAL_Driver/Inc/stm32g0xx_ll_tim.h **** 
 466:Drivers/STM32G0xx_HAL_Driver/Inc/stm32g0xx_ll_tim.h ****                                       @note The LOCK bits can be written only once after the reset.
 467:Drivers/STM32G0xx_HAL_Driver/Inc/stm32g0xx_ll_tim.h ****                                       register has been written, their content is frozen until the 
 468:Drivers/STM32G0xx_HAL_Driver/Inc/stm32g0xx_ll_tim.h **** 
ARM GAS  /tmp/ccjNLvMu.s 			page 27


 469:Drivers/STM32G0xx_HAL_Driver/Inc/stm32g0xx_ll_tim.h ****   uint8_t DeadTime;              /*!< Specifies the delay time between the switching-off and the
 470:Drivers/STM32G0xx_HAL_Driver/Inc/stm32g0xx_ll_tim.h ****                                       switching-on of the outputs.
 471:Drivers/STM32G0xx_HAL_Driver/Inc/stm32g0xx_ll_tim.h ****                                       This parameter can be a number between Min_Data = 0x00 and Ma
 472:Drivers/STM32G0xx_HAL_Driver/Inc/stm32g0xx_ll_tim.h **** 
 473:Drivers/STM32G0xx_HAL_Driver/Inc/stm32g0xx_ll_tim.h ****                                       This feature can be modified afterwards using unitary functio
 474:Drivers/STM32G0xx_HAL_Driver/Inc/stm32g0xx_ll_tim.h ****                                       @ref LL_TIM_OC_SetDeadTime()
 475:Drivers/STM32G0xx_HAL_Driver/Inc/stm32g0xx_ll_tim.h **** 
 476:Drivers/STM32G0xx_HAL_Driver/Inc/stm32g0xx_ll_tim.h ****                                       @note This bit-field can not be modified as long as LOCK leve
 477:Drivers/STM32G0xx_HAL_Driver/Inc/stm32g0xx_ll_tim.h ****                                        programmed. */
 478:Drivers/STM32G0xx_HAL_Driver/Inc/stm32g0xx_ll_tim.h **** 
 479:Drivers/STM32G0xx_HAL_Driver/Inc/stm32g0xx_ll_tim.h ****   uint16_t BreakState;           /*!< Specifies whether the TIM Break input is enabled or not.
 480:Drivers/STM32G0xx_HAL_Driver/Inc/stm32g0xx_ll_tim.h ****                                       This parameter can be a value of @ref TIM_LL_EC_BREAK_ENABLE
 481:Drivers/STM32G0xx_HAL_Driver/Inc/stm32g0xx_ll_tim.h **** 
 482:Drivers/STM32G0xx_HAL_Driver/Inc/stm32g0xx_ll_tim.h ****                                       This feature can be modified afterwards using unitary functio
 483:Drivers/STM32G0xx_HAL_Driver/Inc/stm32g0xx_ll_tim.h ****                                       @ref LL_TIM_EnableBRK() or @ref LL_TIM_DisableBRK()
 484:Drivers/STM32G0xx_HAL_Driver/Inc/stm32g0xx_ll_tim.h **** 
 485:Drivers/STM32G0xx_HAL_Driver/Inc/stm32g0xx_ll_tim.h ****                                       @note This bit-field can not be modified as long as LOCK leve
 486:Drivers/STM32G0xx_HAL_Driver/Inc/stm32g0xx_ll_tim.h ****                                       programmed. */
 487:Drivers/STM32G0xx_HAL_Driver/Inc/stm32g0xx_ll_tim.h **** 
 488:Drivers/STM32G0xx_HAL_Driver/Inc/stm32g0xx_ll_tim.h ****   uint32_t BreakPolarity;        /*!< Specifies the TIM Break Input pin polarity.
 489:Drivers/STM32G0xx_HAL_Driver/Inc/stm32g0xx_ll_tim.h ****                                       This parameter can be a value of @ref TIM_LL_EC_BREAK_POLARIT
 490:Drivers/STM32G0xx_HAL_Driver/Inc/stm32g0xx_ll_tim.h **** 
 491:Drivers/STM32G0xx_HAL_Driver/Inc/stm32g0xx_ll_tim.h ****                                       This feature can be modified afterwards using unitary functio
 492:Drivers/STM32G0xx_HAL_Driver/Inc/stm32g0xx_ll_tim.h ****                                       @ref LL_TIM_ConfigBRK()
 493:Drivers/STM32G0xx_HAL_Driver/Inc/stm32g0xx_ll_tim.h **** 
 494:Drivers/STM32G0xx_HAL_Driver/Inc/stm32g0xx_ll_tim.h ****                                       @note This bit-field can not be modified as long as LOCK leve
 495:Drivers/STM32G0xx_HAL_Driver/Inc/stm32g0xx_ll_tim.h ****                                       programmed. */
 496:Drivers/STM32G0xx_HAL_Driver/Inc/stm32g0xx_ll_tim.h **** 
 497:Drivers/STM32G0xx_HAL_Driver/Inc/stm32g0xx_ll_tim.h ****   uint32_t BreakFilter;          /*!< Specifies the TIM Break Filter.
 498:Drivers/STM32G0xx_HAL_Driver/Inc/stm32g0xx_ll_tim.h ****                                       This parameter can be a value of @ref TIM_LL_EC_BREAK_FILTER
 499:Drivers/STM32G0xx_HAL_Driver/Inc/stm32g0xx_ll_tim.h **** 
 500:Drivers/STM32G0xx_HAL_Driver/Inc/stm32g0xx_ll_tim.h ****                                       This feature can be modified afterwards using unitary functio
 501:Drivers/STM32G0xx_HAL_Driver/Inc/stm32g0xx_ll_tim.h ****                                       @ref LL_TIM_ConfigBRK()
 502:Drivers/STM32G0xx_HAL_Driver/Inc/stm32g0xx_ll_tim.h **** 
 503:Drivers/STM32G0xx_HAL_Driver/Inc/stm32g0xx_ll_tim.h ****                                       @note This bit-field can not be modified as long as LOCK leve
 504:Drivers/STM32G0xx_HAL_Driver/Inc/stm32g0xx_ll_tim.h ****                                       programmed. */
 505:Drivers/STM32G0xx_HAL_Driver/Inc/stm32g0xx_ll_tim.h **** 
 506:Drivers/STM32G0xx_HAL_Driver/Inc/stm32g0xx_ll_tim.h ****   uint32_t BreakAFMode;           /*!< Specifies the alternate function mode of the break input.
 507:Drivers/STM32G0xx_HAL_Driver/Inc/stm32g0xx_ll_tim.h ****                                       This parameter can be a value of @ref TIM_LL_EC_BREAK_AFMODE
 508:Drivers/STM32G0xx_HAL_Driver/Inc/stm32g0xx_ll_tim.h **** 
 509:Drivers/STM32G0xx_HAL_Driver/Inc/stm32g0xx_ll_tim.h ****                                       This feature can be modified afterwards using unitary functio
 510:Drivers/STM32G0xx_HAL_Driver/Inc/stm32g0xx_ll_tim.h ****                                       @ref LL_TIM_ConfigBRK()
 511:Drivers/STM32G0xx_HAL_Driver/Inc/stm32g0xx_ll_tim.h **** 
 512:Drivers/STM32G0xx_HAL_Driver/Inc/stm32g0xx_ll_tim.h ****                                       @note Bidirectional break input is only supported by advanced
 513:Drivers/STM32G0xx_HAL_Driver/Inc/stm32g0xx_ll_tim.h **** 
 514:Drivers/STM32G0xx_HAL_Driver/Inc/stm32g0xx_ll_tim.h ****                                       @note This bit-field can not be modified as long as LOCK leve
 515:Drivers/STM32G0xx_HAL_Driver/Inc/stm32g0xx_ll_tim.h ****                                       programmed. */
 516:Drivers/STM32G0xx_HAL_Driver/Inc/stm32g0xx_ll_tim.h **** 
 517:Drivers/STM32G0xx_HAL_Driver/Inc/stm32g0xx_ll_tim.h ****   uint32_t Break2State;          /*!< Specifies whether the TIM Break2 input is enabled or not.
 518:Drivers/STM32G0xx_HAL_Driver/Inc/stm32g0xx_ll_tim.h ****                                       This parameter can be a value of @ref TIM_LL_EC_BREAK2_ENABLE
 519:Drivers/STM32G0xx_HAL_Driver/Inc/stm32g0xx_ll_tim.h **** 
 520:Drivers/STM32G0xx_HAL_Driver/Inc/stm32g0xx_ll_tim.h ****                                       This feature can be modified afterwards using unitary functio
 521:Drivers/STM32G0xx_HAL_Driver/Inc/stm32g0xx_ll_tim.h ****                                       @ref LL_TIM_EnableBRK2() or @ref LL_TIM_DisableBRK2()
 522:Drivers/STM32G0xx_HAL_Driver/Inc/stm32g0xx_ll_tim.h **** 
 523:Drivers/STM32G0xx_HAL_Driver/Inc/stm32g0xx_ll_tim.h ****                                       @note This bit-field can not be modified as long as LOCK leve
 524:Drivers/STM32G0xx_HAL_Driver/Inc/stm32g0xx_ll_tim.h ****                                       programmed. */
 525:Drivers/STM32G0xx_HAL_Driver/Inc/stm32g0xx_ll_tim.h **** 
ARM GAS  /tmp/ccjNLvMu.s 			page 28


 526:Drivers/STM32G0xx_HAL_Driver/Inc/stm32g0xx_ll_tim.h ****   uint32_t Break2Polarity;        /*!< Specifies the TIM Break2 Input pin polarity.
 527:Drivers/STM32G0xx_HAL_Driver/Inc/stm32g0xx_ll_tim.h ****                                       This parameter can be a value of @ref TIM_LL_EC_BREAK2_POLARI
 528:Drivers/STM32G0xx_HAL_Driver/Inc/stm32g0xx_ll_tim.h **** 
 529:Drivers/STM32G0xx_HAL_Driver/Inc/stm32g0xx_ll_tim.h ****                                       This feature can be modified afterwards using unitary functio
 530:Drivers/STM32G0xx_HAL_Driver/Inc/stm32g0xx_ll_tim.h ****                                       @ref LL_TIM_ConfigBRK2()
 531:Drivers/STM32G0xx_HAL_Driver/Inc/stm32g0xx_ll_tim.h **** 
 532:Drivers/STM32G0xx_HAL_Driver/Inc/stm32g0xx_ll_tim.h ****                                       @note This bit-field can not be modified as long as LOCK leve
 533:Drivers/STM32G0xx_HAL_Driver/Inc/stm32g0xx_ll_tim.h ****                                       programmed. */
 534:Drivers/STM32G0xx_HAL_Driver/Inc/stm32g0xx_ll_tim.h **** 
 535:Drivers/STM32G0xx_HAL_Driver/Inc/stm32g0xx_ll_tim.h ****   uint32_t Break2Filter;          /*!< Specifies the TIM Break2 Filter.
 536:Drivers/STM32G0xx_HAL_Driver/Inc/stm32g0xx_ll_tim.h ****                                       This parameter can be a value of @ref TIM_LL_EC_BREAK2_FILTER
 537:Drivers/STM32G0xx_HAL_Driver/Inc/stm32g0xx_ll_tim.h **** 
 538:Drivers/STM32G0xx_HAL_Driver/Inc/stm32g0xx_ll_tim.h ****                                       This feature can be modified afterwards using unitary functio
 539:Drivers/STM32G0xx_HAL_Driver/Inc/stm32g0xx_ll_tim.h ****                                       @ref LL_TIM_ConfigBRK2()
 540:Drivers/STM32G0xx_HAL_Driver/Inc/stm32g0xx_ll_tim.h **** 
 541:Drivers/STM32G0xx_HAL_Driver/Inc/stm32g0xx_ll_tim.h ****                                       @note This bit-field can not be modified as long as LOCK leve
 542:Drivers/STM32G0xx_HAL_Driver/Inc/stm32g0xx_ll_tim.h ****                                       programmed. */
 543:Drivers/STM32G0xx_HAL_Driver/Inc/stm32g0xx_ll_tim.h **** 
 544:Drivers/STM32G0xx_HAL_Driver/Inc/stm32g0xx_ll_tim.h ****   uint32_t Break2AFMode;          /*!< Specifies the alternate function mode of the break2 input.
 545:Drivers/STM32G0xx_HAL_Driver/Inc/stm32g0xx_ll_tim.h ****                                       This parameter can be a value of @ref TIM_LL_EC_BREAK2_AFMODE
 546:Drivers/STM32G0xx_HAL_Driver/Inc/stm32g0xx_ll_tim.h **** 
 547:Drivers/STM32G0xx_HAL_Driver/Inc/stm32g0xx_ll_tim.h ****                                       This feature can be modified afterwards using unitary functio
 548:Drivers/STM32G0xx_HAL_Driver/Inc/stm32g0xx_ll_tim.h ****                                       @ref LL_TIM_ConfigBRK2()
 549:Drivers/STM32G0xx_HAL_Driver/Inc/stm32g0xx_ll_tim.h **** 
 550:Drivers/STM32G0xx_HAL_Driver/Inc/stm32g0xx_ll_tim.h ****                                       @note Bidirectional break input is only supported by advanced
 551:Drivers/STM32G0xx_HAL_Driver/Inc/stm32g0xx_ll_tim.h **** 
 552:Drivers/STM32G0xx_HAL_Driver/Inc/stm32g0xx_ll_tim.h ****                                       @note This bit-field can not be modified as long as LOCK leve
 553:Drivers/STM32G0xx_HAL_Driver/Inc/stm32g0xx_ll_tim.h ****                                       programmed. */
 554:Drivers/STM32G0xx_HAL_Driver/Inc/stm32g0xx_ll_tim.h **** 
 555:Drivers/STM32G0xx_HAL_Driver/Inc/stm32g0xx_ll_tim.h ****   uint32_t AutomaticOutput;      /*!< Specifies whether the TIM Automatic Output feature is enabled
 556:Drivers/STM32G0xx_HAL_Driver/Inc/stm32g0xx_ll_tim.h ****                                       This parameter can be a value of @ref TIM_LL_EC_AUTOMATICOUTP
 557:Drivers/STM32G0xx_HAL_Driver/Inc/stm32g0xx_ll_tim.h **** 
 558:Drivers/STM32G0xx_HAL_Driver/Inc/stm32g0xx_ll_tim.h ****                                       This feature can be modified afterwards using unitary functio
 559:Drivers/STM32G0xx_HAL_Driver/Inc/stm32g0xx_ll_tim.h ****                                       @ref LL_TIM_EnableAutomaticOutput() or @ref LL_TIM_DisableAut
 560:Drivers/STM32G0xx_HAL_Driver/Inc/stm32g0xx_ll_tim.h **** 
 561:Drivers/STM32G0xx_HAL_Driver/Inc/stm32g0xx_ll_tim.h ****                                       @note This bit-field can not be modified as long as LOCK leve
 562:Drivers/STM32G0xx_HAL_Driver/Inc/stm32g0xx_ll_tim.h ****                                       programmed. */
 563:Drivers/STM32G0xx_HAL_Driver/Inc/stm32g0xx_ll_tim.h **** } LL_TIM_BDTR_InitTypeDef;
 564:Drivers/STM32G0xx_HAL_Driver/Inc/stm32g0xx_ll_tim.h **** 
 565:Drivers/STM32G0xx_HAL_Driver/Inc/stm32g0xx_ll_tim.h **** /**
 566:Drivers/STM32G0xx_HAL_Driver/Inc/stm32g0xx_ll_tim.h ****   * @}
 567:Drivers/STM32G0xx_HAL_Driver/Inc/stm32g0xx_ll_tim.h ****   */
 568:Drivers/STM32G0xx_HAL_Driver/Inc/stm32g0xx_ll_tim.h **** #endif /* USE_FULL_LL_DRIVER */
 569:Drivers/STM32G0xx_HAL_Driver/Inc/stm32g0xx_ll_tim.h **** 
 570:Drivers/STM32G0xx_HAL_Driver/Inc/stm32g0xx_ll_tim.h **** /* Exported constants --------------------------------------------------------*/
 571:Drivers/STM32G0xx_HAL_Driver/Inc/stm32g0xx_ll_tim.h **** /** @defgroup TIM_LL_Exported_Constants TIM Exported Constants
 572:Drivers/STM32G0xx_HAL_Driver/Inc/stm32g0xx_ll_tim.h ****   * @{
 573:Drivers/STM32G0xx_HAL_Driver/Inc/stm32g0xx_ll_tim.h ****   */
 574:Drivers/STM32G0xx_HAL_Driver/Inc/stm32g0xx_ll_tim.h **** 
 575:Drivers/STM32G0xx_HAL_Driver/Inc/stm32g0xx_ll_tim.h **** /** @defgroup TIM_LL_EC_GET_FLAG Get Flags Defines
 576:Drivers/STM32G0xx_HAL_Driver/Inc/stm32g0xx_ll_tim.h ****   * @brief    Flags defines which can be used with LL_TIM_ReadReg function.
 577:Drivers/STM32G0xx_HAL_Driver/Inc/stm32g0xx_ll_tim.h ****   * @{
 578:Drivers/STM32G0xx_HAL_Driver/Inc/stm32g0xx_ll_tim.h ****   */
 579:Drivers/STM32G0xx_HAL_Driver/Inc/stm32g0xx_ll_tim.h **** #define LL_TIM_SR_UIF                          TIM_SR_UIF           /*!< Update interrupt flag */
 580:Drivers/STM32G0xx_HAL_Driver/Inc/stm32g0xx_ll_tim.h **** #define LL_TIM_SR_CC1IF                        TIM_SR_CC1IF         /*!< Capture/compare 1 interrup
 581:Drivers/STM32G0xx_HAL_Driver/Inc/stm32g0xx_ll_tim.h **** #define LL_TIM_SR_CC2IF                        TIM_SR_CC2IF         /*!< Capture/compare 2 interrup
 582:Drivers/STM32G0xx_HAL_Driver/Inc/stm32g0xx_ll_tim.h **** #define LL_TIM_SR_CC3IF                        TIM_SR_CC3IF         /*!< Capture/compare 3 interrup
ARM GAS  /tmp/ccjNLvMu.s 			page 29


 583:Drivers/STM32G0xx_HAL_Driver/Inc/stm32g0xx_ll_tim.h **** #define LL_TIM_SR_CC4IF                        TIM_SR_CC4IF         /*!< Capture/compare 4 interrup
 584:Drivers/STM32G0xx_HAL_Driver/Inc/stm32g0xx_ll_tim.h **** #define LL_TIM_SR_CC5IF                        TIM_SR_CC5IF         /*!< Capture/compare 5 interrup
 585:Drivers/STM32G0xx_HAL_Driver/Inc/stm32g0xx_ll_tim.h **** #define LL_TIM_SR_CC6IF                        TIM_SR_CC6IF         /*!< Capture/compare 6 interrup
 586:Drivers/STM32G0xx_HAL_Driver/Inc/stm32g0xx_ll_tim.h **** #define LL_TIM_SR_COMIF                        TIM_SR_COMIF         /*!< COM interrupt flag */
 587:Drivers/STM32G0xx_HAL_Driver/Inc/stm32g0xx_ll_tim.h **** #define LL_TIM_SR_TIF                          TIM_SR_TIF           /*!< Trigger interrupt flag */
 588:Drivers/STM32G0xx_HAL_Driver/Inc/stm32g0xx_ll_tim.h **** #define LL_TIM_SR_BIF                          TIM_SR_BIF           /*!< Break interrupt flag */
 589:Drivers/STM32G0xx_HAL_Driver/Inc/stm32g0xx_ll_tim.h **** #define LL_TIM_SR_B2IF                         TIM_SR_B2IF          /*!< Second break interrupt fla
 590:Drivers/STM32G0xx_HAL_Driver/Inc/stm32g0xx_ll_tim.h **** #define LL_TIM_SR_CC1OF                        TIM_SR_CC1OF         /*!< Capture/Compare 1 overcapt
 591:Drivers/STM32G0xx_HAL_Driver/Inc/stm32g0xx_ll_tim.h **** #define LL_TIM_SR_CC2OF                        TIM_SR_CC2OF         /*!< Capture/Compare 2 overcapt
 592:Drivers/STM32G0xx_HAL_Driver/Inc/stm32g0xx_ll_tim.h **** #define LL_TIM_SR_CC3OF                        TIM_SR_CC3OF         /*!< Capture/Compare 3 overcapt
 593:Drivers/STM32G0xx_HAL_Driver/Inc/stm32g0xx_ll_tim.h **** #define LL_TIM_SR_CC4OF                        TIM_SR_CC4OF         /*!< Capture/Compare 4 overcapt
 594:Drivers/STM32G0xx_HAL_Driver/Inc/stm32g0xx_ll_tim.h **** #define LL_TIM_SR_SBIF                         TIM_SR_SBIF          /*!< System Break interrupt fla
 595:Drivers/STM32G0xx_HAL_Driver/Inc/stm32g0xx_ll_tim.h **** /**
 596:Drivers/STM32G0xx_HAL_Driver/Inc/stm32g0xx_ll_tim.h ****   * @}
 597:Drivers/STM32G0xx_HAL_Driver/Inc/stm32g0xx_ll_tim.h ****   */
 598:Drivers/STM32G0xx_HAL_Driver/Inc/stm32g0xx_ll_tim.h **** 
 599:Drivers/STM32G0xx_HAL_Driver/Inc/stm32g0xx_ll_tim.h **** #if defined(USE_FULL_LL_DRIVER)
 600:Drivers/STM32G0xx_HAL_Driver/Inc/stm32g0xx_ll_tim.h **** /** @defgroup TIM_LL_EC_BREAK_ENABLE Break Enable
 601:Drivers/STM32G0xx_HAL_Driver/Inc/stm32g0xx_ll_tim.h ****   * @{
 602:Drivers/STM32G0xx_HAL_Driver/Inc/stm32g0xx_ll_tim.h ****   */
 603:Drivers/STM32G0xx_HAL_Driver/Inc/stm32g0xx_ll_tim.h **** #define LL_TIM_BREAK_DISABLE            0x00000000U             /*!< Break function disabled */
 604:Drivers/STM32G0xx_HAL_Driver/Inc/stm32g0xx_ll_tim.h **** #define LL_TIM_BREAK_ENABLE             TIM_BDTR_BKE            /*!< Break function enabled */
 605:Drivers/STM32G0xx_HAL_Driver/Inc/stm32g0xx_ll_tim.h **** /**
 606:Drivers/STM32G0xx_HAL_Driver/Inc/stm32g0xx_ll_tim.h ****   * @}
 607:Drivers/STM32G0xx_HAL_Driver/Inc/stm32g0xx_ll_tim.h ****   */
 608:Drivers/STM32G0xx_HAL_Driver/Inc/stm32g0xx_ll_tim.h **** 
 609:Drivers/STM32G0xx_HAL_Driver/Inc/stm32g0xx_ll_tim.h **** /** @defgroup TIM_LL_EC_BREAK2_ENABLE Break2 Enable
 610:Drivers/STM32G0xx_HAL_Driver/Inc/stm32g0xx_ll_tim.h ****   * @{
 611:Drivers/STM32G0xx_HAL_Driver/Inc/stm32g0xx_ll_tim.h ****   */
 612:Drivers/STM32G0xx_HAL_Driver/Inc/stm32g0xx_ll_tim.h **** #define LL_TIM_BREAK2_DISABLE            0x00000000U              /*!< Break2 function disabled */
 613:Drivers/STM32G0xx_HAL_Driver/Inc/stm32g0xx_ll_tim.h **** #define LL_TIM_BREAK2_ENABLE             TIM_BDTR_BK2E            /*!< Break2 function enabled */
 614:Drivers/STM32G0xx_HAL_Driver/Inc/stm32g0xx_ll_tim.h **** /**
 615:Drivers/STM32G0xx_HAL_Driver/Inc/stm32g0xx_ll_tim.h ****   * @}
 616:Drivers/STM32G0xx_HAL_Driver/Inc/stm32g0xx_ll_tim.h ****   */
 617:Drivers/STM32G0xx_HAL_Driver/Inc/stm32g0xx_ll_tim.h **** 
 618:Drivers/STM32G0xx_HAL_Driver/Inc/stm32g0xx_ll_tim.h **** /** @defgroup TIM_LL_EC_AUTOMATICOUTPUT_ENABLE Automatic output enable
 619:Drivers/STM32G0xx_HAL_Driver/Inc/stm32g0xx_ll_tim.h ****   * @{
 620:Drivers/STM32G0xx_HAL_Driver/Inc/stm32g0xx_ll_tim.h ****   */
 621:Drivers/STM32G0xx_HAL_Driver/Inc/stm32g0xx_ll_tim.h **** #define LL_TIM_AUTOMATICOUTPUT_DISABLE         0x00000000U             /*!< MOE can be set only by 
 622:Drivers/STM32G0xx_HAL_Driver/Inc/stm32g0xx_ll_tim.h **** #define LL_TIM_AUTOMATICOUTPUT_ENABLE          TIM_BDTR_AOE            /*!< MOE can be set by softw
 623:Drivers/STM32G0xx_HAL_Driver/Inc/stm32g0xx_ll_tim.h **** /**
 624:Drivers/STM32G0xx_HAL_Driver/Inc/stm32g0xx_ll_tim.h ****   * @}
 625:Drivers/STM32G0xx_HAL_Driver/Inc/stm32g0xx_ll_tim.h ****   */
 626:Drivers/STM32G0xx_HAL_Driver/Inc/stm32g0xx_ll_tim.h **** #endif /* USE_FULL_LL_DRIVER */
 627:Drivers/STM32G0xx_HAL_Driver/Inc/stm32g0xx_ll_tim.h **** 
 628:Drivers/STM32G0xx_HAL_Driver/Inc/stm32g0xx_ll_tim.h **** /** @defgroup TIM_LL_EC_IT IT Defines
 629:Drivers/STM32G0xx_HAL_Driver/Inc/stm32g0xx_ll_tim.h ****   * @brief    IT defines which can be used with LL_TIM_ReadReg and  LL_TIM_WriteReg functions.
 630:Drivers/STM32G0xx_HAL_Driver/Inc/stm32g0xx_ll_tim.h ****   * @{
 631:Drivers/STM32G0xx_HAL_Driver/Inc/stm32g0xx_ll_tim.h ****   */
 632:Drivers/STM32G0xx_HAL_Driver/Inc/stm32g0xx_ll_tim.h **** #define LL_TIM_DIER_UIE                        TIM_DIER_UIE         /*!< Update interrupt enable */
 633:Drivers/STM32G0xx_HAL_Driver/Inc/stm32g0xx_ll_tim.h **** #define LL_TIM_DIER_CC1IE                      TIM_DIER_CC1IE       /*!< Capture/compare 1 interrup
 634:Drivers/STM32G0xx_HAL_Driver/Inc/stm32g0xx_ll_tim.h **** #define LL_TIM_DIER_CC2IE                      TIM_DIER_CC2IE       /*!< Capture/compare 2 interrup
 635:Drivers/STM32G0xx_HAL_Driver/Inc/stm32g0xx_ll_tim.h **** #define LL_TIM_DIER_CC3IE                      TIM_DIER_CC3IE       /*!< Capture/compare 3 interrup
 636:Drivers/STM32G0xx_HAL_Driver/Inc/stm32g0xx_ll_tim.h **** #define LL_TIM_DIER_CC4IE                      TIM_DIER_CC4IE       /*!< Capture/compare 4 interrup
 637:Drivers/STM32G0xx_HAL_Driver/Inc/stm32g0xx_ll_tim.h **** #define LL_TIM_DIER_COMIE                      TIM_DIER_COMIE       /*!< COM interrupt enable */
 638:Drivers/STM32G0xx_HAL_Driver/Inc/stm32g0xx_ll_tim.h **** #define LL_TIM_DIER_TIE                        TIM_DIER_TIE         /*!< Trigger interrupt enable *
 639:Drivers/STM32G0xx_HAL_Driver/Inc/stm32g0xx_ll_tim.h **** #define LL_TIM_DIER_BIE                        TIM_DIER_BIE         /*!< Break interrupt enable */
ARM GAS  /tmp/ccjNLvMu.s 			page 30


 640:Drivers/STM32G0xx_HAL_Driver/Inc/stm32g0xx_ll_tim.h **** /**
 641:Drivers/STM32G0xx_HAL_Driver/Inc/stm32g0xx_ll_tim.h ****   * @}
 642:Drivers/STM32G0xx_HAL_Driver/Inc/stm32g0xx_ll_tim.h ****   */
 643:Drivers/STM32G0xx_HAL_Driver/Inc/stm32g0xx_ll_tim.h **** 
 644:Drivers/STM32G0xx_HAL_Driver/Inc/stm32g0xx_ll_tim.h **** /** @defgroup TIM_LL_EC_UPDATESOURCE Update Source
 645:Drivers/STM32G0xx_HAL_Driver/Inc/stm32g0xx_ll_tim.h ****   * @{
 646:Drivers/STM32G0xx_HAL_Driver/Inc/stm32g0xx_ll_tim.h ****   */
 647:Drivers/STM32G0xx_HAL_Driver/Inc/stm32g0xx_ll_tim.h **** #define LL_TIM_UPDATESOURCE_REGULAR            0x00000000U          /*!< Counter overflow/underflow
 648:Drivers/STM32G0xx_HAL_Driver/Inc/stm32g0xx_ll_tim.h **** #define LL_TIM_UPDATESOURCE_COUNTER            TIM_CR1_URS          /*!< Only counter overflow/unde
 649:Drivers/STM32G0xx_HAL_Driver/Inc/stm32g0xx_ll_tim.h **** /**
 650:Drivers/STM32G0xx_HAL_Driver/Inc/stm32g0xx_ll_tim.h ****   * @}
 651:Drivers/STM32G0xx_HAL_Driver/Inc/stm32g0xx_ll_tim.h ****   */
 652:Drivers/STM32G0xx_HAL_Driver/Inc/stm32g0xx_ll_tim.h **** 
 653:Drivers/STM32G0xx_HAL_Driver/Inc/stm32g0xx_ll_tim.h **** /** @defgroup TIM_LL_EC_ONEPULSEMODE One Pulse Mode
 654:Drivers/STM32G0xx_HAL_Driver/Inc/stm32g0xx_ll_tim.h ****   * @{
 655:Drivers/STM32G0xx_HAL_Driver/Inc/stm32g0xx_ll_tim.h ****   */
 656:Drivers/STM32G0xx_HAL_Driver/Inc/stm32g0xx_ll_tim.h **** #define LL_TIM_ONEPULSEMODE_SINGLE             TIM_CR1_OPM          /*!< Counter stops counting at 
 657:Drivers/STM32G0xx_HAL_Driver/Inc/stm32g0xx_ll_tim.h **** #define LL_TIM_ONEPULSEMODE_REPETITIVE         0x00000000U          /*!< Counter is not stopped at 
 658:Drivers/STM32G0xx_HAL_Driver/Inc/stm32g0xx_ll_tim.h **** /**
 659:Drivers/STM32G0xx_HAL_Driver/Inc/stm32g0xx_ll_tim.h ****   * @}
 660:Drivers/STM32G0xx_HAL_Driver/Inc/stm32g0xx_ll_tim.h ****   */
 661:Drivers/STM32G0xx_HAL_Driver/Inc/stm32g0xx_ll_tim.h **** 
 662:Drivers/STM32G0xx_HAL_Driver/Inc/stm32g0xx_ll_tim.h **** /** @defgroup TIM_LL_EC_COUNTERMODE Counter Mode
 663:Drivers/STM32G0xx_HAL_Driver/Inc/stm32g0xx_ll_tim.h ****   * @{
 664:Drivers/STM32G0xx_HAL_Driver/Inc/stm32g0xx_ll_tim.h ****   */
 665:Drivers/STM32G0xx_HAL_Driver/Inc/stm32g0xx_ll_tim.h **** #define LL_TIM_COUNTERMODE_UP                  0x00000000U          /*!< Counter used as upcounter 
 666:Drivers/STM32G0xx_HAL_Driver/Inc/stm32g0xx_ll_tim.h **** #define LL_TIM_COUNTERMODE_DOWN                TIM_CR1_DIR          /*!< Counter used as downcounte
 667:Drivers/STM32G0xx_HAL_Driver/Inc/stm32g0xx_ll_tim.h **** #define LL_TIM_COUNTERMODE_CENTER_DOWN         TIM_CR1_CMS_0        /*!< The counter counts up and 
 668:Drivers/STM32G0xx_HAL_Driver/Inc/stm32g0xx_ll_tim.h **** #define LL_TIM_COUNTERMODE_CENTER_UP           TIM_CR1_CMS_1        /*!< The counter counts up and 
 669:Drivers/STM32G0xx_HAL_Driver/Inc/stm32g0xx_ll_tim.h **** #define LL_TIM_COUNTERMODE_CENTER_UP_DOWN      TIM_CR1_CMS          /*!< The counter counts up and 
 670:Drivers/STM32G0xx_HAL_Driver/Inc/stm32g0xx_ll_tim.h **** /**
 671:Drivers/STM32G0xx_HAL_Driver/Inc/stm32g0xx_ll_tim.h ****   * @}
 672:Drivers/STM32G0xx_HAL_Driver/Inc/stm32g0xx_ll_tim.h ****   */
 673:Drivers/STM32G0xx_HAL_Driver/Inc/stm32g0xx_ll_tim.h **** 
 674:Drivers/STM32G0xx_HAL_Driver/Inc/stm32g0xx_ll_tim.h **** /** @defgroup TIM_LL_EC_CLOCKDIVISION Clock Division
 675:Drivers/STM32G0xx_HAL_Driver/Inc/stm32g0xx_ll_tim.h ****   * @{
 676:Drivers/STM32G0xx_HAL_Driver/Inc/stm32g0xx_ll_tim.h ****   */
 677:Drivers/STM32G0xx_HAL_Driver/Inc/stm32g0xx_ll_tim.h **** #define LL_TIM_CLOCKDIVISION_DIV1              0x00000000U          /*!< tDTS=tCK_INT */
 678:Drivers/STM32G0xx_HAL_Driver/Inc/stm32g0xx_ll_tim.h **** #define LL_TIM_CLOCKDIVISION_DIV2              TIM_CR1_CKD_0        /*!< tDTS=2*tCK_INT */
 679:Drivers/STM32G0xx_HAL_Driver/Inc/stm32g0xx_ll_tim.h **** #define LL_TIM_CLOCKDIVISION_DIV4              TIM_CR1_CKD_1        /*!< tDTS=4*tCK_INT */
 680:Drivers/STM32G0xx_HAL_Driver/Inc/stm32g0xx_ll_tim.h **** /**
 681:Drivers/STM32G0xx_HAL_Driver/Inc/stm32g0xx_ll_tim.h ****   * @}
 682:Drivers/STM32G0xx_HAL_Driver/Inc/stm32g0xx_ll_tim.h ****   */
 683:Drivers/STM32G0xx_HAL_Driver/Inc/stm32g0xx_ll_tim.h **** 
 684:Drivers/STM32G0xx_HAL_Driver/Inc/stm32g0xx_ll_tim.h **** /** @defgroup TIM_LL_EC_COUNTERDIRECTION Counter Direction
 685:Drivers/STM32G0xx_HAL_Driver/Inc/stm32g0xx_ll_tim.h ****   * @{
 686:Drivers/STM32G0xx_HAL_Driver/Inc/stm32g0xx_ll_tim.h ****   */
 687:Drivers/STM32G0xx_HAL_Driver/Inc/stm32g0xx_ll_tim.h **** #define LL_TIM_COUNTERDIRECTION_UP             0x00000000U          /*!< Timer counter counts up */
 688:Drivers/STM32G0xx_HAL_Driver/Inc/stm32g0xx_ll_tim.h **** #define LL_TIM_COUNTERDIRECTION_DOWN           TIM_CR1_DIR          /*!< Timer counter counts down 
 689:Drivers/STM32G0xx_HAL_Driver/Inc/stm32g0xx_ll_tim.h **** /**
 690:Drivers/STM32G0xx_HAL_Driver/Inc/stm32g0xx_ll_tim.h ****   * @}
 691:Drivers/STM32G0xx_HAL_Driver/Inc/stm32g0xx_ll_tim.h ****   */
 692:Drivers/STM32G0xx_HAL_Driver/Inc/stm32g0xx_ll_tim.h **** 
 693:Drivers/STM32G0xx_HAL_Driver/Inc/stm32g0xx_ll_tim.h **** /** @defgroup TIM_LL_EC_CCUPDATESOURCE Capture Compare  Update Source
 694:Drivers/STM32G0xx_HAL_Driver/Inc/stm32g0xx_ll_tim.h ****   * @{
 695:Drivers/STM32G0xx_HAL_Driver/Inc/stm32g0xx_ll_tim.h ****   */
 696:Drivers/STM32G0xx_HAL_Driver/Inc/stm32g0xx_ll_tim.h **** #define LL_TIM_CCUPDATESOURCE_COMG_ONLY        0x00000000U          /*!< Capture/compare control bi
ARM GAS  /tmp/ccjNLvMu.s 			page 31


 697:Drivers/STM32G0xx_HAL_Driver/Inc/stm32g0xx_ll_tim.h **** #define LL_TIM_CCUPDATESOURCE_COMG_AND_TRGI    TIM_CR2_CCUS         /*!< Capture/compare control bi
 698:Drivers/STM32G0xx_HAL_Driver/Inc/stm32g0xx_ll_tim.h **** /**
 699:Drivers/STM32G0xx_HAL_Driver/Inc/stm32g0xx_ll_tim.h ****   * @}
 700:Drivers/STM32G0xx_HAL_Driver/Inc/stm32g0xx_ll_tim.h ****   */
 701:Drivers/STM32G0xx_HAL_Driver/Inc/stm32g0xx_ll_tim.h **** 
 702:Drivers/STM32G0xx_HAL_Driver/Inc/stm32g0xx_ll_tim.h **** /** @defgroup TIM_LL_EC_CCDMAREQUEST Capture Compare DMA Request
 703:Drivers/STM32G0xx_HAL_Driver/Inc/stm32g0xx_ll_tim.h ****   * @{
 704:Drivers/STM32G0xx_HAL_Driver/Inc/stm32g0xx_ll_tim.h ****   */
 705:Drivers/STM32G0xx_HAL_Driver/Inc/stm32g0xx_ll_tim.h **** #define LL_TIM_CCDMAREQUEST_CC                 0x00000000U          /*!< CCx DMA request sent when 
 706:Drivers/STM32G0xx_HAL_Driver/Inc/stm32g0xx_ll_tim.h **** #define LL_TIM_CCDMAREQUEST_UPDATE             TIM_CR2_CCDS         /*!< CCx DMA requests sent when
 707:Drivers/STM32G0xx_HAL_Driver/Inc/stm32g0xx_ll_tim.h **** /**
 708:Drivers/STM32G0xx_HAL_Driver/Inc/stm32g0xx_ll_tim.h ****   * @}
 709:Drivers/STM32G0xx_HAL_Driver/Inc/stm32g0xx_ll_tim.h ****   */
 710:Drivers/STM32G0xx_HAL_Driver/Inc/stm32g0xx_ll_tim.h **** 
 711:Drivers/STM32G0xx_HAL_Driver/Inc/stm32g0xx_ll_tim.h **** /** @defgroup TIM_LL_EC_LOCKLEVEL Lock Level
 712:Drivers/STM32G0xx_HAL_Driver/Inc/stm32g0xx_ll_tim.h ****   * @{
 713:Drivers/STM32G0xx_HAL_Driver/Inc/stm32g0xx_ll_tim.h ****   */
 714:Drivers/STM32G0xx_HAL_Driver/Inc/stm32g0xx_ll_tim.h **** #define LL_TIM_LOCKLEVEL_OFF                   0x00000000U          /*!< LOCK OFF - No bit is write
 715:Drivers/STM32G0xx_HAL_Driver/Inc/stm32g0xx_ll_tim.h **** #define LL_TIM_LOCKLEVEL_1                     TIM_BDTR_LOCK_0      /*!< LOCK Level 1 */
 716:Drivers/STM32G0xx_HAL_Driver/Inc/stm32g0xx_ll_tim.h **** #define LL_TIM_LOCKLEVEL_2                     TIM_BDTR_LOCK_1      /*!< LOCK Level 2 */
 717:Drivers/STM32G0xx_HAL_Driver/Inc/stm32g0xx_ll_tim.h **** #define LL_TIM_LOCKLEVEL_3                     TIM_BDTR_LOCK        /*!< LOCK Level 3 */
 718:Drivers/STM32G0xx_HAL_Driver/Inc/stm32g0xx_ll_tim.h **** /**
 719:Drivers/STM32G0xx_HAL_Driver/Inc/stm32g0xx_ll_tim.h ****   * @}
 720:Drivers/STM32G0xx_HAL_Driver/Inc/stm32g0xx_ll_tim.h ****   */
 721:Drivers/STM32G0xx_HAL_Driver/Inc/stm32g0xx_ll_tim.h **** 
 722:Drivers/STM32G0xx_HAL_Driver/Inc/stm32g0xx_ll_tim.h **** /** @defgroup TIM_LL_EC_CHANNEL Channel
 723:Drivers/STM32G0xx_HAL_Driver/Inc/stm32g0xx_ll_tim.h ****   * @{
 724:Drivers/STM32G0xx_HAL_Driver/Inc/stm32g0xx_ll_tim.h ****   */
 725:Drivers/STM32G0xx_HAL_Driver/Inc/stm32g0xx_ll_tim.h **** #define LL_TIM_CHANNEL_CH1                     TIM_CCER_CC1E     /*!< Timer input/output channel 1 
 726:Drivers/STM32G0xx_HAL_Driver/Inc/stm32g0xx_ll_tim.h **** #define LL_TIM_CHANNEL_CH1N                    TIM_CCER_CC1NE    /*!< Timer complementary output ch
 727:Drivers/STM32G0xx_HAL_Driver/Inc/stm32g0xx_ll_tim.h **** #define LL_TIM_CHANNEL_CH2                     TIM_CCER_CC2E     /*!< Timer input/output channel 2 
 728:Drivers/STM32G0xx_HAL_Driver/Inc/stm32g0xx_ll_tim.h **** #define LL_TIM_CHANNEL_CH2N                    TIM_CCER_CC2NE    /*!< Timer complementary output ch
 729:Drivers/STM32G0xx_HAL_Driver/Inc/stm32g0xx_ll_tim.h **** #define LL_TIM_CHANNEL_CH3                     TIM_CCER_CC3E     /*!< Timer input/output channel 3 
 730:Drivers/STM32G0xx_HAL_Driver/Inc/stm32g0xx_ll_tim.h **** #define LL_TIM_CHANNEL_CH3N                    TIM_CCER_CC3NE    /*!< Timer complementary output ch
 731:Drivers/STM32G0xx_HAL_Driver/Inc/stm32g0xx_ll_tim.h **** #define LL_TIM_CHANNEL_CH4                     TIM_CCER_CC4E     /*!< Timer input/output channel 4 
 732:Drivers/STM32G0xx_HAL_Driver/Inc/stm32g0xx_ll_tim.h **** #define LL_TIM_CHANNEL_CH5                     TIM_CCER_CC5E     /*!< Timer output channel 5 */
 733:Drivers/STM32G0xx_HAL_Driver/Inc/stm32g0xx_ll_tim.h **** #define LL_TIM_CHANNEL_CH6                     TIM_CCER_CC6E     /*!< Timer output channel 6 */
 734:Drivers/STM32G0xx_HAL_Driver/Inc/stm32g0xx_ll_tim.h **** /**
 735:Drivers/STM32G0xx_HAL_Driver/Inc/stm32g0xx_ll_tim.h ****   * @}
 736:Drivers/STM32G0xx_HAL_Driver/Inc/stm32g0xx_ll_tim.h ****   */
 737:Drivers/STM32G0xx_HAL_Driver/Inc/stm32g0xx_ll_tim.h **** 
 738:Drivers/STM32G0xx_HAL_Driver/Inc/stm32g0xx_ll_tim.h **** #if defined(USE_FULL_LL_DRIVER)
 739:Drivers/STM32G0xx_HAL_Driver/Inc/stm32g0xx_ll_tim.h **** /** @defgroup TIM_LL_EC_OCSTATE Output Configuration State
 740:Drivers/STM32G0xx_HAL_Driver/Inc/stm32g0xx_ll_tim.h ****   * @{
 741:Drivers/STM32G0xx_HAL_Driver/Inc/stm32g0xx_ll_tim.h ****   */
 742:Drivers/STM32G0xx_HAL_Driver/Inc/stm32g0xx_ll_tim.h **** #define LL_TIM_OCSTATE_DISABLE                 0x00000000U             /*!< OCx is not active */
 743:Drivers/STM32G0xx_HAL_Driver/Inc/stm32g0xx_ll_tim.h **** #define LL_TIM_OCSTATE_ENABLE                  TIM_CCER_CC1E           /*!< OCx signal is output on
 744:Drivers/STM32G0xx_HAL_Driver/Inc/stm32g0xx_ll_tim.h **** /**
 745:Drivers/STM32G0xx_HAL_Driver/Inc/stm32g0xx_ll_tim.h ****   * @}
 746:Drivers/STM32G0xx_HAL_Driver/Inc/stm32g0xx_ll_tim.h ****   */
 747:Drivers/STM32G0xx_HAL_Driver/Inc/stm32g0xx_ll_tim.h **** #endif /* USE_FULL_LL_DRIVER */
 748:Drivers/STM32G0xx_HAL_Driver/Inc/stm32g0xx_ll_tim.h **** 
 749:Drivers/STM32G0xx_HAL_Driver/Inc/stm32g0xx_ll_tim.h **** /** Legacy definitions for compatibility purpose
 750:Drivers/STM32G0xx_HAL_Driver/Inc/stm32g0xx_ll_tim.h **** @cond 0
 751:Drivers/STM32G0xx_HAL_Driver/Inc/stm32g0xx_ll_tim.h ****   */
 752:Drivers/STM32G0xx_HAL_Driver/Inc/stm32g0xx_ll_tim.h **** #define LL_TIM_OCMODE_ASSYMETRIC_PWM1 LL_TIM_OCMODE_ASYMMETRIC_PWM1
 753:Drivers/STM32G0xx_HAL_Driver/Inc/stm32g0xx_ll_tim.h **** #define LL_TIM_OCMODE_ASSYMETRIC_PWM2 LL_TIM_OCMODE_ASYMMETRIC_PWM2
ARM GAS  /tmp/ccjNLvMu.s 			page 32


 754:Drivers/STM32G0xx_HAL_Driver/Inc/stm32g0xx_ll_tim.h **** /**
 755:Drivers/STM32G0xx_HAL_Driver/Inc/stm32g0xx_ll_tim.h **** @endcond
 756:Drivers/STM32G0xx_HAL_Driver/Inc/stm32g0xx_ll_tim.h ****   */
 757:Drivers/STM32G0xx_HAL_Driver/Inc/stm32g0xx_ll_tim.h **** 
 758:Drivers/STM32G0xx_HAL_Driver/Inc/stm32g0xx_ll_tim.h **** /** @defgroup TIM_LL_EC_OCMODE Output Configuration Mode
 759:Drivers/STM32G0xx_HAL_Driver/Inc/stm32g0xx_ll_tim.h ****   * @{
 760:Drivers/STM32G0xx_HAL_Driver/Inc/stm32g0xx_ll_tim.h ****   */
 761:Drivers/STM32G0xx_HAL_Driver/Inc/stm32g0xx_ll_tim.h **** #define LL_TIM_OCMODE_FROZEN                   0x00000000U                                         
 762:Drivers/STM32G0xx_HAL_Driver/Inc/stm32g0xx_ll_tim.h **** #define LL_TIM_OCMODE_ACTIVE                   TIM_CCMR1_OC1M_0                                    
 763:Drivers/STM32G0xx_HAL_Driver/Inc/stm32g0xx_ll_tim.h **** #define LL_TIM_OCMODE_INACTIVE                 TIM_CCMR1_OC1M_1                                    
 764:Drivers/STM32G0xx_HAL_Driver/Inc/stm32g0xx_ll_tim.h **** #define LL_TIM_OCMODE_TOGGLE                   (TIM_CCMR1_OC1M_1 | TIM_CCMR1_OC1M_0)               
 765:Drivers/STM32G0xx_HAL_Driver/Inc/stm32g0xx_ll_tim.h **** #define LL_TIM_OCMODE_FORCED_INACTIVE          TIM_CCMR1_OC1M_2                                    
 766:Drivers/STM32G0xx_HAL_Driver/Inc/stm32g0xx_ll_tim.h **** #define LL_TIM_OCMODE_FORCED_ACTIVE            (TIM_CCMR1_OC1M_2 | TIM_CCMR1_OC1M_0)               
 767:Drivers/STM32G0xx_HAL_Driver/Inc/stm32g0xx_ll_tim.h **** #define LL_TIM_OCMODE_PWM1                     (TIM_CCMR1_OC1M_2 | TIM_CCMR1_OC1M_1)               
 768:Drivers/STM32G0xx_HAL_Driver/Inc/stm32g0xx_ll_tim.h **** #define LL_TIM_OCMODE_PWM2                     (TIM_CCMR1_OC1M_2 | TIM_CCMR1_OC1M_1 | TIM_CCMR1_OC1
 769:Drivers/STM32G0xx_HAL_Driver/Inc/stm32g0xx_ll_tim.h **** #define LL_TIM_OCMODE_RETRIG_OPM1              TIM_CCMR1_OC1M_3                                    
 770:Drivers/STM32G0xx_HAL_Driver/Inc/stm32g0xx_ll_tim.h **** #define LL_TIM_OCMODE_RETRIG_OPM2              (TIM_CCMR1_OC1M_3 | TIM_CCMR1_OC1M_0)               
 771:Drivers/STM32G0xx_HAL_Driver/Inc/stm32g0xx_ll_tim.h **** #define LL_TIM_OCMODE_COMBINED_PWM1            (TIM_CCMR1_OC1M_3 | TIM_CCMR1_OC1M_2)               
 772:Drivers/STM32G0xx_HAL_Driver/Inc/stm32g0xx_ll_tim.h **** #define LL_TIM_OCMODE_COMBINED_PWM2            (TIM_CCMR1_OC1M_3 | TIM_CCMR1_OC1M_0 | TIM_CCMR1_OC1
 773:Drivers/STM32G0xx_HAL_Driver/Inc/stm32g0xx_ll_tim.h **** #define LL_TIM_OCMODE_ASYMMETRIC_PWM1          (TIM_CCMR1_OC1M_3 | TIM_CCMR1_OC1M_1 | TIM_CCMR1_OC1
 774:Drivers/STM32G0xx_HAL_Driver/Inc/stm32g0xx_ll_tim.h **** #define LL_TIM_OCMODE_ASYMMETRIC_PWM2          (TIM_CCMR1_OC1M_3 | TIM_CCMR1_OC1M)                 
 775:Drivers/STM32G0xx_HAL_Driver/Inc/stm32g0xx_ll_tim.h **** /**
 776:Drivers/STM32G0xx_HAL_Driver/Inc/stm32g0xx_ll_tim.h ****   * @}
 777:Drivers/STM32G0xx_HAL_Driver/Inc/stm32g0xx_ll_tim.h ****   */
 778:Drivers/STM32G0xx_HAL_Driver/Inc/stm32g0xx_ll_tim.h **** 
 779:Drivers/STM32G0xx_HAL_Driver/Inc/stm32g0xx_ll_tim.h **** /** @defgroup TIM_LL_EC_OCPOLARITY Output Configuration Polarity
 780:Drivers/STM32G0xx_HAL_Driver/Inc/stm32g0xx_ll_tim.h ****   * @{
 781:Drivers/STM32G0xx_HAL_Driver/Inc/stm32g0xx_ll_tim.h ****   */
 782:Drivers/STM32G0xx_HAL_Driver/Inc/stm32g0xx_ll_tim.h **** #define LL_TIM_OCPOLARITY_HIGH                 0x00000000U                 /*!< OCxactive high*/
 783:Drivers/STM32G0xx_HAL_Driver/Inc/stm32g0xx_ll_tim.h **** #define LL_TIM_OCPOLARITY_LOW                  TIM_CCER_CC1P               /*!< OCxactive low*/
 784:Drivers/STM32G0xx_HAL_Driver/Inc/stm32g0xx_ll_tim.h **** /**
 785:Drivers/STM32G0xx_HAL_Driver/Inc/stm32g0xx_ll_tim.h ****   * @}
 786:Drivers/STM32G0xx_HAL_Driver/Inc/stm32g0xx_ll_tim.h ****   */
 787:Drivers/STM32G0xx_HAL_Driver/Inc/stm32g0xx_ll_tim.h **** 
 788:Drivers/STM32G0xx_HAL_Driver/Inc/stm32g0xx_ll_tim.h **** /** @defgroup TIM_LL_EC_OCIDLESTATE Output Configuration Idle State
 789:Drivers/STM32G0xx_HAL_Driver/Inc/stm32g0xx_ll_tim.h ****   * @{
 790:Drivers/STM32G0xx_HAL_Driver/Inc/stm32g0xx_ll_tim.h ****   */
 791:Drivers/STM32G0xx_HAL_Driver/Inc/stm32g0xx_ll_tim.h **** #define LL_TIM_OCIDLESTATE_LOW                 0x00000000U             /*!<OCx=0 (after a dead-time
 792:Drivers/STM32G0xx_HAL_Driver/Inc/stm32g0xx_ll_tim.h **** #define LL_TIM_OCIDLESTATE_HIGH                TIM_CR2_OIS1            /*!<OCx=1 (after a dead-time
 793:Drivers/STM32G0xx_HAL_Driver/Inc/stm32g0xx_ll_tim.h **** /**
 794:Drivers/STM32G0xx_HAL_Driver/Inc/stm32g0xx_ll_tim.h ****   * @}
 795:Drivers/STM32G0xx_HAL_Driver/Inc/stm32g0xx_ll_tim.h ****   */
 796:Drivers/STM32G0xx_HAL_Driver/Inc/stm32g0xx_ll_tim.h **** 
 797:Drivers/STM32G0xx_HAL_Driver/Inc/stm32g0xx_ll_tim.h **** /** @defgroup TIM_LL_EC_GROUPCH5 GROUPCH5
 798:Drivers/STM32G0xx_HAL_Driver/Inc/stm32g0xx_ll_tim.h ****   * @{
 799:Drivers/STM32G0xx_HAL_Driver/Inc/stm32g0xx_ll_tim.h ****   */
 800:Drivers/STM32G0xx_HAL_Driver/Inc/stm32g0xx_ll_tim.h **** #define LL_TIM_GROUPCH5_NONE                   0x00000000U           /*!< No effect of OC5REF on OC
 801:Drivers/STM32G0xx_HAL_Driver/Inc/stm32g0xx_ll_tim.h **** #define LL_TIM_GROUPCH5_OC1REFC                TIM_CCR5_GC5C1        /*!< OC1REFC is the logical AN
 802:Drivers/STM32G0xx_HAL_Driver/Inc/stm32g0xx_ll_tim.h **** #define LL_TIM_GROUPCH5_OC2REFC                TIM_CCR5_GC5C2        /*!< OC2REFC is the logical AN
 803:Drivers/STM32G0xx_HAL_Driver/Inc/stm32g0xx_ll_tim.h **** #define LL_TIM_GROUPCH5_OC3REFC                TIM_CCR5_GC5C3        /*!< OC3REFC is the logical AN
 804:Drivers/STM32G0xx_HAL_Driver/Inc/stm32g0xx_ll_tim.h **** /**
 805:Drivers/STM32G0xx_HAL_Driver/Inc/stm32g0xx_ll_tim.h ****   * @}
 806:Drivers/STM32G0xx_HAL_Driver/Inc/stm32g0xx_ll_tim.h ****   */
 807:Drivers/STM32G0xx_HAL_Driver/Inc/stm32g0xx_ll_tim.h **** 
 808:Drivers/STM32G0xx_HAL_Driver/Inc/stm32g0xx_ll_tim.h **** /** @defgroup TIM_LL_EC_ACTIVEINPUT Active Input Selection
 809:Drivers/STM32G0xx_HAL_Driver/Inc/stm32g0xx_ll_tim.h ****   * @{
 810:Drivers/STM32G0xx_HAL_Driver/Inc/stm32g0xx_ll_tim.h ****   */
ARM GAS  /tmp/ccjNLvMu.s 			page 33


 811:Drivers/STM32G0xx_HAL_Driver/Inc/stm32g0xx_ll_tim.h **** #define LL_TIM_ACTIVEINPUT_DIRECTTI            (TIM_CCMR1_CC1S_0 << 16U) /*!< ICx is mapped on TIx 
 812:Drivers/STM32G0xx_HAL_Driver/Inc/stm32g0xx_ll_tim.h **** #define LL_TIM_ACTIVEINPUT_INDIRECTTI          (TIM_CCMR1_CC1S_1 << 16U) /*!< ICx is mapped on TIy 
 813:Drivers/STM32G0xx_HAL_Driver/Inc/stm32g0xx_ll_tim.h **** #define LL_TIM_ACTIVEINPUT_TRC                 (TIM_CCMR1_CC1S << 16U)   /*!< ICx is mapped on TRC 
 814:Drivers/STM32G0xx_HAL_Driver/Inc/stm32g0xx_ll_tim.h **** /**
 815:Drivers/STM32G0xx_HAL_Driver/Inc/stm32g0xx_ll_tim.h ****   * @}
 816:Drivers/STM32G0xx_HAL_Driver/Inc/stm32g0xx_ll_tim.h ****   */
 817:Drivers/STM32G0xx_HAL_Driver/Inc/stm32g0xx_ll_tim.h **** 
 818:Drivers/STM32G0xx_HAL_Driver/Inc/stm32g0xx_ll_tim.h **** /** @defgroup TIM_LL_EC_ICPSC Input Configuration Prescaler
 819:Drivers/STM32G0xx_HAL_Driver/Inc/stm32g0xx_ll_tim.h ****   * @{
 820:Drivers/STM32G0xx_HAL_Driver/Inc/stm32g0xx_ll_tim.h ****   */
 821:Drivers/STM32G0xx_HAL_Driver/Inc/stm32g0xx_ll_tim.h **** #define LL_TIM_ICPSC_DIV1                      0x00000000U                    /*!< No prescaler, ca
 822:Drivers/STM32G0xx_HAL_Driver/Inc/stm32g0xx_ll_tim.h **** #define LL_TIM_ICPSC_DIV2                      (TIM_CCMR1_IC1PSC_0 << 16U)    /*!< Capture is done 
 823:Drivers/STM32G0xx_HAL_Driver/Inc/stm32g0xx_ll_tim.h **** #define LL_TIM_ICPSC_DIV4                      (TIM_CCMR1_IC1PSC_1 << 16U)    /*!< Capture is done 
 824:Drivers/STM32G0xx_HAL_Driver/Inc/stm32g0xx_ll_tim.h **** #define LL_TIM_ICPSC_DIV8                      (TIM_CCMR1_IC1PSC << 16U)      /*!< Capture is done 
 825:Drivers/STM32G0xx_HAL_Driver/Inc/stm32g0xx_ll_tim.h **** /**
 826:Drivers/STM32G0xx_HAL_Driver/Inc/stm32g0xx_ll_tim.h ****   * @}
 827:Drivers/STM32G0xx_HAL_Driver/Inc/stm32g0xx_ll_tim.h ****   */
 828:Drivers/STM32G0xx_HAL_Driver/Inc/stm32g0xx_ll_tim.h **** 
 829:Drivers/STM32G0xx_HAL_Driver/Inc/stm32g0xx_ll_tim.h **** /** @defgroup TIM_LL_EC_IC_FILTER Input Configuration Filter
 830:Drivers/STM32G0xx_HAL_Driver/Inc/stm32g0xx_ll_tim.h ****   * @{
 831:Drivers/STM32G0xx_HAL_Driver/Inc/stm32g0xx_ll_tim.h ****   */
 832:Drivers/STM32G0xx_HAL_Driver/Inc/stm32g0xx_ll_tim.h **** #define LL_TIM_IC_FILTER_FDIV1                 0x00000000U                                         
 833:Drivers/STM32G0xx_HAL_Driver/Inc/stm32g0xx_ll_tim.h **** #define LL_TIM_IC_FILTER_FDIV1_N2              (TIM_CCMR1_IC1F_0 << 16U)                           
 834:Drivers/STM32G0xx_HAL_Driver/Inc/stm32g0xx_ll_tim.h **** #define LL_TIM_IC_FILTER_FDIV1_N4              (TIM_CCMR1_IC1F_1 << 16U)                           
 835:Drivers/STM32G0xx_HAL_Driver/Inc/stm32g0xx_ll_tim.h **** #define LL_TIM_IC_FILTER_FDIV1_N8              ((TIM_CCMR1_IC1F_1 | TIM_CCMR1_IC1F_0) << 16U)      
 836:Drivers/STM32G0xx_HAL_Driver/Inc/stm32g0xx_ll_tim.h **** #define LL_TIM_IC_FILTER_FDIV2_N6              (TIM_CCMR1_IC1F_2 << 16U)                           
 837:Drivers/STM32G0xx_HAL_Driver/Inc/stm32g0xx_ll_tim.h **** #define LL_TIM_IC_FILTER_FDIV2_N8              ((TIM_CCMR1_IC1F_2 | TIM_CCMR1_IC1F_0) << 16U)      
 838:Drivers/STM32G0xx_HAL_Driver/Inc/stm32g0xx_ll_tim.h **** #define LL_TIM_IC_FILTER_FDIV4_N6              ((TIM_CCMR1_IC1F_2 | TIM_CCMR1_IC1F_1) << 16U)      
 839:Drivers/STM32G0xx_HAL_Driver/Inc/stm32g0xx_ll_tim.h **** #define LL_TIM_IC_FILTER_FDIV4_N8              ((TIM_CCMR1_IC1F_2 | TIM_CCMR1_IC1F_1 | TIM_CCMR1_IC
 840:Drivers/STM32G0xx_HAL_Driver/Inc/stm32g0xx_ll_tim.h **** #define LL_TIM_IC_FILTER_FDIV8_N6              (TIM_CCMR1_IC1F_3 << 16U)                           
 841:Drivers/STM32G0xx_HAL_Driver/Inc/stm32g0xx_ll_tim.h **** #define LL_TIM_IC_FILTER_FDIV8_N8              ((TIM_CCMR1_IC1F_3 | TIM_CCMR1_IC1F_0) << 16U)      
 842:Drivers/STM32G0xx_HAL_Driver/Inc/stm32g0xx_ll_tim.h **** #define LL_TIM_IC_FILTER_FDIV16_N5             ((TIM_CCMR1_IC1F_3 | TIM_CCMR1_IC1F_1) << 16U)      
 843:Drivers/STM32G0xx_HAL_Driver/Inc/stm32g0xx_ll_tim.h **** #define LL_TIM_IC_FILTER_FDIV16_N6             ((TIM_CCMR1_IC1F_3 | TIM_CCMR1_IC1F_1 | TIM_CCMR1_IC
 844:Drivers/STM32G0xx_HAL_Driver/Inc/stm32g0xx_ll_tim.h **** #define LL_TIM_IC_FILTER_FDIV16_N8             ((TIM_CCMR1_IC1F_3 | TIM_CCMR1_IC1F_2) << 16U)      
 845:Drivers/STM32G0xx_HAL_Driver/Inc/stm32g0xx_ll_tim.h **** #define LL_TIM_IC_FILTER_FDIV32_N5             ((TIM_CCMR1_IC1F_3 | TIM_CCMR1_IC1F_2 | TIM_CCMR1_IC
 846:Drivers/STM32G0xx_HAL_Driver/Inc/stm32g0xx_ll_tim.h **** #define LL_TIM_IC_FILTER_FDIV32_N6             ((TIM_CCMR1_IC1F_3 | TIM_CCMR1_IC1F_2 | TIM_CCMR1_IC
 847:Drivers/STM32G0xx_HAL_Driver/Inc/stm32g0xx_ll_tim.h **** #define LL_TIM_IC_FILTER_FDIV32_N8             (TIM_CCMR1_IC1F << 16U)                             
 848:Drivers/STM32G0xx_HAL_Driver/Inc/stm32g0xx_ll_tim.h **** /**
 849:Drivers/STM32G0xx_HAL_Driver/Inc/stm32g0xx_ll_tim.h ****   * @}
 850:Drivers/STM32G0xx_HAL_Driver/Inc/stm32g0xx_ll_tim.h ****   */
 851:Drivers/STM32G0xx_HAL_Driver/Inc/stm32g0xx_ll_tim.h **** 
 852:Drivers/STM32G0xx_HAL_Driver/Inc/stm32g0xx_ll_tim.h **** /** @defgroup TIM_LL_EC_IC_POLARITY Input Configuration Polarity
 853:Drivers/STM32G0xx_HAL_Driver/Inc/stm32g0xx_ll_tim.h ****   * @{
 854:Drivers/STM32G0xx_HAL_Driver/Inc/stm32g0xx_ll_tim.h ****   */
 855:Drivers/STM32G0xx_HAL_Driver/Inc/stm32g0xx_ll_tim.h **** #define LL_TIM_IC_POLARITY_RISING              0x00000000U                      /*!< The circuit is
 856:Drivers/STM32G0xx_HAL_Driver/Inc/stm32g0xx_ll_tim.h **** #define LL_TIM_IC_POLARITY_FALLING             TIM_CCER_CC1P                    /*!< The circuit is
 857:Drivers/STM32G0xx_HAL_Driver/Inc/stm32g0xx_ll_tim.h **** #define LL_TIM_IC_POLARITY_BOTHEDGE            (TIM_CCER_CC1P | TIM_CCER_CC1NP) /*!< The circuit is
 858:Drivers/STM32G0xx_HAL_Driver/Inc/stm32g0xx_ll_tim.h **** /**
 859:Drivers/STM32G0xx_HAL_Driver/Inc/stm32g0xx_ll_tim.h ****   * @}
 860:Drivers/STM32G0xx_HAL_Driver/Inc/stm32g0xx_ll_tim.h ****   */
 861:Drivers/STM32G0xx_HAL_Driver/Inc/stm32g0xx_ll_tim.h **** 
 862:Drivers/STM32G0xx_HAL_Driver/Inc/stm32g0xx_ll_tim.h **** /** @defgroup TIM_LL_EC_CLOCKSOURCE Clock Source
 863:Drivers/STM32G0xx_HAL_Driver/Inc/stm32g0xx_ll_tim.h ****   * @{
 864:Drivers/STM32G0xx_HAL_Driver/Inc/stm32g0xx_ll_tim.h ****   */
 865:Drivers/STM32G0xx_HAL_Driver/Inc/stm32g0xx_ll_tim.h **** #define LL_TIM_CLOCKSOURCE_INTERNAL            0x00000000U                                         
 866:Drivers/STM32G0xx_HAL_Driver/Inc/stm32g0xx_ll_tim.h **** #define LL_TIM_CLOCKSOURCE_EXT_MODE1           (TIM_SMCR_SMS_2 | TIM_SMCR_SMS_1 | TIM_SMCR_SMS_0)  
 867:Drivers/STM32G0xx_HAL_Driver/Inc/stm32g0xx_ll_tim.h **** #define LL_TIM_CLOCKSOURCE_EXT_MODE2           TIM_SMCR_ECE                                        
ARM GAS  /tmp/ccjNLvMu.s 			page 34


 868:Drivers/STM32G0xx_HAL_Driver/Inc/stm32g0xx_ll_tim.h **** /**
 869:Drivers/STM32G0xx_HAL_Driver/Inc/stm32g0xx_ll_tim.h ****   * @}
 870:Drivers/STM32G0xx_HAL_Driver/Inc/stm32g0xx_ll_tim.h ****   */
 871:Drivers/STM32G0xx_HAL_Driver/Inc/stm32g0xx_ll_tim.h **** 
 872:Drivers/STM32G0xx_HAL_Driver/Inc/stm32g0xx_ll_tim.h **** /** @defgroup TIM_LL_EC_ENCODERMODE Encoder Mode
 873:Drivers/STM32G0xx_HAL_Driver/Inc/stm32g0xx_ll_tim.h ****   * @{
 874:Drivers/STM32G0xx_HAL_Driver/Inc/stm32g0xx_ll_tim.h ****   */
 875:Drivers/STM32G0xx_HAL_Driver/Inc/stm32g0xx_ll_tim.h **** #define LL_TIM_ENCODERMODE_X2_TI1                     TIM_SMCR_SMS_0                               
 876:Drivers/STM32G0xx_HAL_Driver/Inc/stm32g0xx_ll_tim.h **** #define LL_TIM_ENCODERMODE_X2_TI2                     TIM_SMCR_SMS_1                               
 877:Drivers/STM32G0xx_HAL_Driver/Inc/stm32g0xx_ll_tim.h **** #define LL_TIM_ENCODERMODE_X4_TI12                   (TIM_SMCR_SMS_1 | TIM_SMCR_SMS_0)             
 878:Drivers/STM32G0xx_HAL_Driver/Inc/stm32g0xx_ll_tim.h **** /**
 879:Drivers/STM32G0xx_HAL_Driver/Inc/stm32g0xx_ll_tim.h ****   * @}
 880:Drivers/STM32G0xx_HAL_Driver/Inc/stm32g0xx_ll_tim.h ****   */
 881:Drivers/STM32G0xx_HAL_Driver/Inc/stm32g0xx_ll_tim.h **** 
 882:Drivers/STM32G0xx_HAL_Driver/Inc/stm32g0xx_ll_tim.h **** /** @defgroup TIM_LL_EC_TRGO Trigger Output
 883:Drivers/STM32G0xx_HAL_Driver/Inc/stm32g0xx_ll_tim.h ****   * @{
 884:Drivers/STM32G0xx_HAL_Driver/Inc/stm32g0xx_ll_tim.h ****   */
 885:Drivers/STM32G0xx_HAL_Driver/Inc/stm32g0xx_ll_tim.h **** #define LL_TIM_TRGO_RESET                      0x00000000U                                     /*!<
 886:Drivers/STM32G0xx_HAL_Driver/Inc/stm32g0xx_ll_tim.h **** #define LL_TIM_TRGO_ENABLE                     TIM_CR2_MMS_0                                   /*!<
 887:Drivers/STM32G0xx_HAL_Driver/Inc/stm32g0xx_ll_tim.h **** #define LL_TIM_TRGO_UPDATE                     TIM_CR2_MMS_1                                   /*!<
 888:Drivers/STM32G0xx_HAL_Driver/Inc/stm32g0xx_ll_tim.h **** #define LL_TIM_TRGO_CC1IF                      (TIM_CR2_MMS_1 | TIM_CR2_MMS_0)                 /*!<
 889:Drivers/STM32G0xx_HAL_Driver/Inc/stm32g0xx_ll_tim.h **** #define LL_TIM_TRGO_OC1REF                     TIM_CR2_MMS_2                                   /*!<
 890:Drivers/STM32G0xx_HAL_Driver/Inc/stm32g0xx_ll_tim.h **** #define LL_TIM_TRGO_OC2REF                     (TIM_CR2_MMS_2 | TIM_CR2_MMS_0)                 /*!<
 891:Drivers/STM32G0xx_HAL_Driver/Inc/stm32g0xx_ll_tim.h **** #define LL_TIM_TRGO_OC3REF                     (TIM_CR2_MMS_2 | TIM_CR2_MMS_1)                 /*!<
 892:Drivers/STM32G0xx_HAL_Driver/Inc/stm32g0xx_ll_tim.h **** #define LL_TIM_TRGO_OC4REF                     (TIM_CR2_MMS_2 | TIM_CR2_MMS_1 | TIM_CR2_MMS_0) /*!<
 893:Drivers/STM32G0xx_HAL_Driver/Inc/stm32g0xx_ll_tim.h **** /**
 894:Drivers/STM32G0xx_HAL_Driver/Inc/stm32g0xx_ll_tim.h ****   * @}
 895:Drivers/STM32G0xx_HAL_Driver/Inc/stm32g0xx_ll_tim.h ****   */
 896:Drivers/STM32G0xx_HAL_Driver/Inc/stm32g0xx_ll_tim.h **** 
 897:Drivers/STM32G0xx_HAL_Driver/Inc/stm32g0xx_ll_tim.h **** /** @defgroup TIM_LL_EC_TRGO2 Trigger Output 2
 898:Drivers/STM32G0xx_HAL_Driver/Inc/stm32g0xx_ll_tim.h ****   * @{
 899:Drivers/STM32G0xx_HAL_Driver/Inc/stm32g0xx_ll_tim.h ****   */
 900:Drivers/STM32G0xx_HAL_Driver/Inc/stm32g0xx_ll_tim.h **** #define LL_TIM_TRGO2_RESET                     0x00000000U                                         
 901:Drivers/STM32G0xx_HAL_Driver/Inc/stm32g0xx_ll_tim.h **** #define LL_TIM_TRGO2_ENABLE                    TIM_CR2_MMS2_0                                      
 902:Drivers/STM32G0xx_HAL_Driver/Inc/stm32g0xx_ll_tim.h **** #define LL_TIM_TRGO2_UPDATE                    TIM_CR2_MMS2_1                                      
 903:Drivers/STM32G0xx_HAL_Driver/Inc/stm32g0xx_ll_tim.h **** #define LL_TIM_TRGO2_CC1F                      (TIM_CR2_MMS2_1 | TIM_CR2_MMS2_0)                   
 904:Drivers/STM32G0xx_HAL_Driver/Inc/stm32g0xx_ll_tim.h **** #define LL_TIM_TRGO2_OC1                       TIM_CR2_MMS2_2                                      
 905:Drivers/STM32G0xx_HAL_Driver/Inc/stm32g0xx_ll_tim.h **** #define LL_TIM_TRGO2_OC2                       (TIM_CR2_MMS2_2 | TIM_CR2_MMS2_0)                   
 906:Drivers/STM32G0xx_HAL_Driver/Inc/stm32g0xx_ll_tim.h **** #define LL_TIM_TRGO2_OC3                       (TIM_CR2_MMS2_2 | TIM_CR2_MMS2_1)                   
 907:Drivers/STM32G0xx_HAL_Driver/Inc/stm32g0xx_ll_tim.h **** #define LL_TIM_TRGO2_OC4                       (TIM_CR2_MMS2_2 | TIM_CR2_MMS2_1 | TIM_CR2_MMS2_0)  
 908:Drivers/STM32G0xx_HAL_Driver/Inc/stm32g0xx_ll_tim.h **** #define LL_TIM_TRGO2_OC5                       TIM_CR2_MMS2_3                                      
 909:Drivers/STM32G0xx_HAL_Driver/Inc/stm32g0xx_ll_tim.h **** #define LL_TIM_TRGO2_OC6                       (TIM_CR2_MMS2_3 | TIM_CR2_MMS2_0)                   
 910:Drivers/STM32G0xx_HAL_Driver/Inc/stm32g0xx_ll_tim.h **** #define LL_TIM_TRGO2_OC4_RISINGFALLING         (TIM_CR2_MMS2_3 | TIM_CR2_MMS2_1)                   
 911:Drivers/STM32G0xx_HAL_Driver/Inc/stm32g0xx_ll_tim.h **** #define LL_TIM_TRGO2_OC6_RISINGFALLING         (TIM_CR2_MMS2_3 | TIM_CR2_MMS2_1 | TIM_CR2_MMS2_0)  
 912:Drivers/STM32G0xx_HAL_Driver/Inc/stm32g0xx_ll_tim.h **** #define LL_TIM_TRGO2_OC4_RISING_OC6_RISING     (TIM_CR2_MMS2_3 | TIM_CR2_MMS2_2)                   
 913:Drivers/STM32G0xx_HAL_Driver/Inc/stm32g0xx_ll_tim.h **** #define LL_TIM_TRGO2_OC4_RISING_OC6_FALLING    (TIM_CR2_MMS2_3 | TIM_CR2_MMS2_2 | TIM_CR2_MMS2_0)  
 914:Drivers/STM32G0xx_HAL_Driver/Inc/stm32g0xx_ll_tim.h **** #define LL_TIM_TRGO2_OC5_RISING_OC6_RISING     (TIM_CR2_MMS2_3 | TIM_CR2_MMS2_2 |TIM_CR2_MMS2_1)   
 915:Drivers/STM32G0xx_HAL_Driver/Inc/stm32g0xx_ll_tim.h **** #define LL_TIM_TRGO2_OC5_RISING_OC6_FALLING    (TIM_CR2_MMS2_3 | TIM_CR2_MMS2_2 | TIM_CR2_MMS2_1 | 
 916:Drivers/STM32G0xx_HAL_Driver/Inc/stm32g0xx_ll_tim.h **** /**
 917:Drivers/STM32G0xx_HAL_Driver/Inc/stm32g0xx_ll_tim.h ****   * @}
 918:Drivers/STM32G0xx_HAL_Driver/Inc/stm32g0xx_ll_tim.h ****   */
 919:Drivers/STM32G0xx_HAL_Driver/Inc/stm32g0xx_ll_tim.h **** 
 920:Drivers/STM32G0xx_HAL_Driver/Inc/stm32g0xx_ll_tim.h **** /** @defgroup TIM_LL_EC_SLAVEMODE Slave Mode
 921:Drivers/STM32G0xx_HAL_Driver/Inc/stm32g0xx_ll_tim.h ****   * @{
 922:Drivers/STM32G0xx_HAL_Driver/Inc/stm32g0xx_ll_tim.h ****   */
 923:Drivers/STM32G0xx_HAL_Driver/Inc/stm32g0xx_ll_tim.h **** #define LL_TIM_SLAVEMODE_DISABLED              0x00000000U                         /*!< Slave mode 
 924:Drivers/STM32G0xx_HAL_Driver/Inc/stm32g0xx_ll_tim.h **** #define LL_TIM_SLAVEMODE_RESET                 TIM_SMCR_SMS_2                      /*!< Reset Mode 
ARM GAS  /tmp/ccjNLvMu.s 			page 35


 925:Drivers/STM32G0xx_HAL_Driver/Inc/stm32g0xx_ll_tim.h **** #define LL_TIM_SLAVEMODE_GATED                 (TIM_SMCR_SMS_2 | TIM_SMCR_SMS_0)   /*!< Gated Mode 
 926:Drivers/STM32G0xx_HAL_Driver/Inc/stm32g0xx_ll_tim.h **** #define LL_TIM_SLAVEMODE_TRIGGER               (TIM_SMCR_SMS_2 | TIM_SMCR_SMS_1)   /*!< Trigger Mod
 927:Drivers/STM32G0xx_HAL_Driver/Inc/stm32g0xx_ll_tim.h **** #define LL_TIM_SLAVEMODE_COMBINED_RESETTRIGGER TIM_SMCR_SMS_3                      /*!< Combined re
 928:Drivers/STM32G0xx_HAL_Driver/Inc/stm32g0xx_ll_tim.h **** /**
 929:Drivers/STM32G0xx_HAL_Driver/Inc/stm32g0xx_ll_tim.h ****   * @}
 930:Drivers/STM32G0xx_HAL_Driver/Inc/stm32g0xx_ll_tim.h ****   */
 931:Drivers/STM32G0xx_HAL_Driver/Inc/stm32g0xx_ll_tim.h **** 
 932:Drivers/STM32G0xx_HAL_Driver/Inc/stm32g0xx_ll_tim.h **** /** @defgroup TIM_LL_EC_TS Trigger Selection
 933:Drivers/STM32G0xx_HAL_Driver/Inc/stm32g0xx_ll_tim.h ****   * @{
 934:Drivers/STM32G0xx_HAL_Driver/Inc/stm32g0xx_ll_tim.h ****   */
 935:Drivers/STM32G0xx_HAL_Driver/Inc/stm32g0xx_ll_tim.h **** #define LL_TIM_TS_ITR0                         0x00000000U                                         
 936:Drivers/STM32G0xx_HAL_Driver/Inc/stm32g0xx_ll_tim.h **** #define LL_TIM_TS_ITR1                         TIM_SMCR_TS_0                                       
 937:Drivers/STM32G0xx_HAL_Driver/Inc/stm32g0xx_ll_tim.h **** #define LL_TIM_TS_ITR2                         TIM_SMCR_TS_1                                       
 938:Drivers/STM32G0xx_HAL_Driver/Inc/stm32g0xx_ll_tim.h **** #define LL_TIM_TS_ITR3                         (TIM_SMCR_TS_0 | TIM_SMCR_TS_1)                     
 939:Drivers/STM32G0xx_HAL_Driver/Inc/stm32g0xx_ll_tim.h **** #if defined(USB_BASE)
 940:Drivers/STM32G0xx_HAL_Driver/Inc/stm32g0xx_ll_tim.h **** #define LL_TIM_TS_ITR7                         (TIM_SMCR_TS_3 | TIM_SMCR_TS_1 | TIM_SMCR_TS_0)     
 941:Drivers/STM32G0xx_HAL_Driver/Inc/stm32g0xx_ll_tim.h **** #endif /* USB_BASE */
 942:Drivers/STM32G0xx_HAL_Driver/Inc/stm32g0xx_ll_tim.h **** #define LL_TIM_TS_TI1F_ED                      TIM_SMCR_TS_2                                       
 943:Drivers/STM32G0xx_HAL_Driver/Inc/stm32g0xx_ll_tim.h **** #define LL_TIM_TS_TI1FP1                       (TIM_SMCR_TS_2 | TIM_SMCR_TS_0)                     
 944:Drivers/STM32G0xx_HAL_Driver/Inc/stm32g0xx_ll_tim.h **** #define LL_TIM_TS_TI2FP2                       (TIM_SMCR_TS_2 | TIM_SMCR_TS_1)                     
 945:Drivers/STM32G0xx_HAL_Driver/Inc/stm32g0xx_ll_tim.h **** #define LL_TIM_TS_ETRF                         (TIM_SMCR_TS_2 | TIM_SMCR_TS_1 | TIM_SMCR_TS_0)     
 946:Drivers/STM32G0xx_HAL_Driver/Inc/stm32g0xx_ll_tim.h **** /**
 947:Drivers/STM32G0xx_HAL_Driver/Inc/stm32g0xx_ll_tim.h ****   * @}
 948:Drivers/STM32G0xx_HAL_Driver/Inc/stm32g0xx_ll_tim.h ****   */
 949:Drivers/STM32G0xx_HAL_Driver/Inc/stm32g0xx_ll_tim.h **** 
 950:Drivers/STM32G0xx_HAL_Driver/Inc/stm32g0xx_ll_tim.h **** /** @defgroup TIM_LL_EC_ETR_POLARITY External Trigger Polarity
 951:Drivers/STM32G0xx_HAL_Driver/Inc/stm32g0xx_ll_tim.h ****   * @{
 952:Drivers/STM32G0xx_HAL_Driver/Inc/stm32g0xx_ll_tim.h ****   */
 953:Drivers/STM32G0xx_HAL_Driver/Inc/stm32g0xx_ll_tim.h **** #define LL_TIM_ETR_POLARITY_NONINVERTED        0x00000000U             /*!< ETR is non-inverted, ac
 954:Drivers/STM32G0xx_HAL_Driver/Inc/stm32g0xx_ll_tim.h **** #define LL_TIM_ETR_POLARITY_INVERTED           TIM_SMCR_ETP            /*!< ETR is inverted, active
 955:Drivers/STM32G0xx_HAL_Driver/Inc/stm32g0xx_ll_tim.h **** /**
 956:Drivers/STM32G0xx_HAL_Driver/Inc/stm32g0xx_ll_tim.h ****   * @}
 957:Drivers/STM32G0xx_HAL_Driver/Inc/stm32g0xx_ll_tim.h ****   */
 958:Drivers/STM32G0xx_HAL_Driver/Inc/stm32g0xx_ll_tim.h **** 
 959:Drivers/STM32G0xx_HAL_Driver/Inc/stm32g0xx_ll_tim.h **** /** @defgroup TIM_LL_EC_ETR_PRESCALER External Trigger Prescaler
 960:Drivers/STM32G0xx_HAL_Driver/Inc/stm32g0xx_ll_tim.h ****   * @{
 961:Drivers/STM32G0xx_HAL_Driver/Inc/stm32g0xx_ll_tim.h ****   */
 962:Drivers/STM32G0xx_HAL_Driver/Inc/stm32g0xx_ll_tim.h **** #define LL_TIM_ETR_PRESCALER_DIV1              0x00000000U             /*!< ETR prescaler OFF */
 963:Drivers/STM32G0xx_HAL_Driver/Inc/stm32g0xx_ll_tim.h **** #define LL_TIM_ETR_PRESCALER_DIV2              TIM_SMCR_ETPS_0         /*!< ETR frequency is divide
 964:Drivers/STM32G0xx_HAL_Driver/Inc/stm32g0xx_ll_tim.h **** #define LL_TIM_ETR_PRESCALER_DIV4              TIM_SMCR_ETPS_1         /*!< ETR frequency is divide
 965:Drivers/STM32G0xx_HAL_Driver/Inc/stm32g0xx_ll_tim.h **** #define LL_TIM_ETR_PRESCALER_DIV8              TIM_SMCR_ETPS           /*!< ETR frequency is divide
 966:Drivers/STM32G0xx_HAL_Driver/Inc/stm32g0xx_ll_tim.h **** /**
 967:Drivers/STM32G0xx_HAL_Driver/Inc/stm32g0xx_ll_tim.h ****   * @}
 968:Drivers/STM32G0xx_HAL_Driver/Inc/stm32g0xx_ll_tim.h ****   */
 969:Drivers/STM32G0xx_HAL_Driver/Inc/stm32g0xx_ll_tim.h **** 
 970:Drivers/STM32G0xx_HAL_Driver/Inc/stm32g0xx_ll_tim.h **** /** @defgroup TIM_LL_EC_ETR_FILTER External Trigger Filter
 971:Drivers/STM32G0xx_HAL_Driver/Inc/stm32g0xx_ll_tim.h ****   * @{
 972:Drivers/STM32G0xx_HAL_Driver/Inc/stm32g0xx_ll_tim.h ****   */
 973:Drivers/STM32G0xx_HAL_Driver/Inc/stm32g0xx_ll_tim.h **** #define LL_TIM_ETR_FILTER_FDIV1                0x00000000U                                         
 974:Drivers/STM32G0xx_HAL_Driver/Inc/stm32g0xx_ll_tim.h **** #define LL_TIM_ETR_FILTER_FDIV1_N2             TIM_SMCR_ETF_0                                      
 975:Drivers/STM32G0xx_HAL_Driver/Inc/stm32g0xx_ll_tim.h **** #define LL_TIM_ETR_FILTER_FDIV1_N4             TIM_SMCR_ETF_1                                      
 976:Drivers/STM32G0xx_HAL_Driver/Inc/stm32g0xx_ll_tim.h **** #define LL_TIM_ETR_FILTER_FDIV1_N8             (TIM_SMCR_ETF_1 | TIM_SMCR_ETF_0)                   
 977:Drivers/STM32G0xx_HAL_Driver/Inc/stm32g0xx_ll_tim.h **** #define LL_TIM_ETR_FILTER_FDIV2_N6             TIM_SMCR_ETF_2                                      
 978:Drivers/STM32G0xx_HAL_Driver/Inc/stm32g0xx_ll_tim.h **** #define LL_TIM_ETR_FILTER_FDIV2_N8             (TIM_SMCR_ETF_2 | TIM_SMCR_ETF_0)                   
 979:Drivers/STM32G0xx_HAL_Driver/Inc/stm32g0xx_ll_tim.h **** #define LL_TIM_ETR_FILTER_FDIV4_N6             (TIM_SMCR_ETF_2 | TIM_SMCR_ETF_1)                   
 980:Drivers/STM32G0xx_HAL_Driver/Inc/stm32g0xx_ll_tim.h **** #define LL_TIM_ETR_FILTER_FDIV4_N8             (TIM_SMCR_ETF_2 | TIM_SMCR_ETF_1 | TIM_SMCR_ETF_0)  
 981:Drivers/STM32G0xx_HAL_Driver/Inc/stm32g0xx_ll_tim.h **** #define LL_TIM_ETR_FILTER_FDIV8_N6             TIM_SMCR_ETF_3                                      
ARM GAS  /tmp/ccjNLvMu.s 			page 36


 982:Drivers/STM32G0xx_HAL_Driver/Inc/stm32g0xx_ll_tim.h **** #define LL_TIM_ETR_FILTER_FDIV8_N8             (TIM_SMCR_ETF_3 | TIM_SMCR_ETF_0)                   
 983:Drivers/STM32G0xx_HAL_Driver/Inc/stm32g0xx_ll_tim.h **** #define LL_TIM_ETR_FILTER_FDIV16_N5            (TIM_SMCR_ETF_3 | TIM_SMCR_ETF_1)                   
 984:Drivers/STM32G0xx_HAL_Driver/Inc/stm32g0xx_ll_tim.h **** #define LL_TIM_ETR_FILTER_FDIV16_N6            (TIM_SMCR_ETF_3 | TIM_SMCR_ETF_1 | TIM_SMCR_ETF_0)  
 985:Drivers/STM32G0xx_HAL_Driver/Inc/stm32g0xx_ll_tim.h **** #define LL_TIM_ETR_FILTER_FDIV16_N8            (TIM_SMCR_ETF_3 | TIM_SMCR_ETF_2)                   
 986:Drivers/STM32G0xx_HAL_Driver/Inc/stm32g0xx_ll_tim.h **** #define LL_TIM_ETR_FILTER_FDIV32_N5            (TIM_SMCR_ETF_3 | TIM_SMCR_ETF_2 | TIM_SMCR_ETF_0)  
 987:Drivers/STM32G0xx_HAL_Driver/Inc/stm32g0xx_ll_tim.h **** #define LL_TIM_ETR_FILTER_FDIV32_N6            (TIM_SMCR_ETF_3 | TIM_SMCR_ETF_2 | TIM_SMCR_ETF_1)  
 988:Drivers/STM32G0xx_HAL_Driver/Inc/stm32g0xx_ll_tim.h **** #define LL_TIM_ETR_FILTER_FDIV32_N8            TIM_SMCR_ETF                                        
 989:Drivers/STM32G0xx_HAL_Driver/Inc/stm32g0xx_ll_tim.h **** /**
 990:Drivers/STM32G0xx_HAL_Driver/Inc/stm32g0xx_ll_tim.h ****   * @}
 991:Drivers/STM32G0xx_HAL_Driver/Inc/stm32g0xx_ll_tim.h ****   */
 992:Drivers/STM32G0xx_HAL_Driver/Inc/stm32g0xx_ll_tim.h **** 
 993:Drivers/STM32G0xx_HAL_Driver/Inc/stm32g0xx_ll_tim.h **** /** @defgroup TIM_LL_EC_ETRSOURCE External Trigger Source
 994:Drivers/STM32G0xx_HAL_Driver/Inc/stm32g0xx_ll_tim.h ****   * @{
 995:Drivers/STM32G0xx_HAL_Driver/Inc/stm32g0xx_ll_tim.h ****   */
 996:Drivers/STM32G0xx_HAL_Driver/Inc/stm32g0xx_ll_tim.h **** #define LL_TIM_ETRSOURCE_GPIO                  0x00000000U                             /*!< ETR inp
 997:Drivers/STM32G0xx_HAL_Driver/Inc/stm32g0xx_ll_tim.h **** #if defined(COMP1) && defined(COMP2)
 998:Drivers/STM32G0xx_HAL_Driver/Inc/stm32g0xx_ll_tim.h **** #define LL_TIM_ETRSOURCE_COMP1                 TIM1_AF1_ETRSEL_0                       /*!< ETR inp
 999:Drivers/STM32G0xx_HAL_Driver/Inc/stm32g0xx_ll_tim.h **** #define LL_TIM_ETRSOURCE_COMP2                 TIM1_AF1_ETRSEL_1                       /*!< ETR inp
1000:Drivers/STM32G0xx_HAL_Driver/Inc/stm32g0xx_ll_tim.h **** #endif /* COMP1 && COMP2 */
1001:Drivers/STM32G0xx_HAL_Driver/Inc/stm32g0xx_ll_tim.h **** #if defined(COMP3)
1002:Drivers/STM32G0xx_HAL_Driver/Inc/stm32g0xx_ll_tim.h **** #define LL_TIM_ETRSOURCE_COMP3                 (TIM1_AF1_ETRSEL_2 | TIM1_AF1_ETRSEL_1) /*!< ETR inp
1003:Drivers/STM32G0xx_HAL_Driver/Inc/stm32g0xx_ll_tim.h **** #endif /* COMP3 */
1004:Drivers/STM32G0xx_HAL_Driver/Inc/stm32g0xx_ll_tim.h **** #define LL_TIM_ETRSOURCE_ADC1_AWD1             (TIM1_AF1_ETRSEL_1 | TIM1_AF1_ETRSEL_0) /*!< ETR inp
1005:Drivers/STM32G0xx_HAL_Driver/Inc/stm32g0xx_ll_tim.h **** #define LL_TIM_ETRSOURCE_ADC1_AWD2             TIM1_AF1_ETRSEL_2                       /*!< ETR inp
1006:Drivers/STM32G0xx_HAL_Driver/Inc/stm32g0xx_ll_tim.h **** #define LL_TIM_ETRSOURCE_ADC1_AWD3             (TIM1_AF1_ETRSEL_2 | TIM1_AF1_ETRSEL_0) /*!< ETR inp
1007:Drivers/STM32G0xx_HAL_Driver/Inc/stm32g0xx_ll_tim.h **** #define LL_TIM_ETRSOURCE_LSE                   (TIM1_AF1_ETRSEL_1 | TIM1_AF1_ETRSEL_0) /*!< ETR inp
1008:Drivers/STM32G0xx_HAL_Driver/Inc/stm32g0xx_ll_tim.h **** #define LL_TIM_ETRSOURCE_MCO                   TIM1_AF1_ETRSEL_2                       /*!< ETR inp
1009:Drivers/STM32G0xx_HAL_Driver/Inc/stm32g0xx_ll_tim.h **** #define LL_TIM_ETRSOURCE_MCO2                  (TIM1_AF1_ETRSEL_2 | TIM1_AF1_ETRSEL_0) /*!< ETR inp
1010:Drivers/STM32G0xx_HAL_Driver/Inc/stm32g0xx_ll_tim.h **** /**
1011:Drivers/STM32G0xx_HAL_Driver/Inc/stm32g0xx_ll_tim.h ****   * @}
1012:Drivers/STM32G0xx_HAL_Driver/Inc/stm32g0xx_ll_tim.h ****   */
1013:Drivers/STM32G0xx_HAL_Driver/Inc/stm32g0xx_ll_tim.h **** 
1014:Drivers/STM32G0xx_HAL_Driver/Inc/stm32g0xx_ll_tim.h **** /** @defgroup TIM_LL_EC_BREAK_POLARITY break polarity
1015:Drivers/STM32G0xx_HAL_Driver/Inc/stm32g0xx_ll_tim.h ****   * @{
1016:Drivers/STM32G0xx_HAL_Driver/Inc/stm32g0xx_ll_tim.h ****   */
1017:Drivers/STM32G0xx_HAL_Driver/Inc/stm32g0xx_ll_tim.h **** #define LL_TIM_BREAK_POLARITY_LOW              0x00000000U               /*!< Break input BRK is ac
1018:Drivers/STM32G0xx_HAL_Driver/Inc/stm32g0xx_ll_tim.h **** #define LL_TIM_BREAK_POLARITY_HIGH             TIM_BDTR_BKP              /*!< Break input BRK is ac
1019:Drivers/STM32G0xx_HAL_Driver/Inc/stm32g0xx_ll_tim.h **** /**
1020:Drivers/STM32G0xx_HAL_Driver/Inc/stm32g0xx_ll_tim.h ****   * @}
1021:Drivers/STM32G0xx_HAL_Driver/Inc/stm32g0xx_ll_tim.h ****   */
1022:Drivers/STM32G0xx_HAL_Driver/Inc/stm32g0xx_ll_tim.h **** 
1023:Drivers/STM32G0xx_HAL_Driver/Inc/stm32g0xx_ll_tim.h **** /** @defgroup TIM_LL_EC_BREAK_FILTER break filter
1024:Drivers/STM32G0xx_HAL_Driver/Inc/stm32g0xx_ll_tim.h ****   * @{
1025:Drivers/STM32G0xx_HAL_Driver/Inc/stm32g0xx_ll_tim.h ****   */
1026:Drivers/STM32G0xx_HAL_Driver/Inc/stm32g0xx_ll_tim.h **** #define LL_TIM_BREAK_FILTER_FDIV1              0x00000000U   /*!< No filter, BRK acts asynchronousl
1027:Drivers/STM32G0xx_HAL_Driver/Inc/stm32g0xx_ll_tim.h **** #define LL_TIM_BREAK_FILTER_FDIV1_N2           0x00010000U   /*!< fSAMPLING=fCK_INT, N=2 */
1028:Drivers/STM32G0xx_HAL_Driver/Inc/stm32g0xx_ll_tim.h **** #define LL_TIM_BREAK_FILTER_FDIV1_N4           0x00020000U   /*!< fSAMPLING=fCK_INT, N=4 */
1029:Drivers/STM32G0xx_HAL_Driver/Inc/stm32g0xx_ll_tim.h **** #define LL_TIM_BREAK_FILTER_FDIV1_N8           0x00030000U   /*!< fSAMPLING=fCK_INT, N=8 */
1030:Drivers/STM32G0xx_HAL_Driver/Inc/stm32g0xx_ll_tim.h **** #define LL_TIM_BREAK_FILTER_FDIV2_N6           0x00040000U   /*!< fSAMPLING=fDTS/2, N=6 */
1031:Drivers/STM32G0xx_HAL_Driver/Inc/stm32g0xx_ll_tim.h **** #define LL_TIM_BREAK_FILTER_FDIV2_N8           0x00050000U   /*!< fSAMPLING=fDTS/2, N=8 */
1032:Drivers/STM32G0xx_HAL_Driver/Inc/stm32g0xx_ll_tim.h **** #define LL_TIM_BREAK_FILTER_FDIV4_N6           0x00060000U   /*!< fSAMPLING=fDTS/4, N=6 */
1033:Drivers/STM32G0xx_HAL_Driver/Inc/stm32g0xx_ll_tim.h **** #define LL_TIM_BREAK_FILTER_FDIV4_N8           0x00070000U   /*!< fSAMPLING=fDTS/4, N=8 */
1034:Drivers/STM32G0xx_HAL_Driver/Inc/stm32g0xx_ll_tim.h **** #define LL_TIM_BREAK_FILTER_FDIV8_N6           0x00080000U   /*!< fSAMPLING=fDTS/8, N=6 */
1035:Drivers/STM32G0xx_HAL_Driver/Inc/stm32g0xx_ll_tim.h **** #define LL_TIM_BREAK_FILTER_FDIV8_N8           0x00090000U   /*!< fSAMPLING=fDTS/8, N=8 */
1036:Drivers/STM32G0xx_HAL_Driver/Inc/stm32g0xx_ll_tim.h **** #define LL_TIM_BREAK_FILTER_FDIV16_N5          0x000A0000U   /*!< fSAMPLING=fDTS/16, N=5 */
1037:Drivers/STM32G0xx_HAL_Driver/Inc/stm32g0xx_ll_tim.h **** #define LL_TIM_BREAK_FILTER_FDIV16_N6          0x000B0000U   /*!< fSAMPLING=fDTS/16, N=6 */
1038:Drivers/STM32G0xx_HAL_Driver/Inc/stm32g0xx_ll_tim.h **** #define LL_TIM_BREAK_FILTER_FDIV16_N8          0x000C0000U   /*!< fSAMPLING=fDTS/16, N=8 */
ARM GAS  /tmp/ccjNLvMu.s 			page 37


1039:Drivers/STM32G0xx_HAL_Driver/Inc/stm32g0xx_ll_tim.h **** #define LL_TIM_BREAK_FILTER_FDIV32_N5          0x000D0000U   /*!< fSAMPLING=fDTS/32, N=5 */
1040:Drivers/STM32G0xx_HAL_Driver/Inc/stm32g0xx_ll_tim.h **** #define LL_TIM_BREAK_FILTER_FDIV32_N6          0x000E0000U   /*!< fSAMPLING=fDTS/32, N=6 */
1041:Drivers/STM32G0xx_HAL_Driver/Inc/stm32g0xx_ll_tim.h **** #define LL_TIM_BREAK_FILTER_FDIV32_N8          0x000F0000U   /*!< fSAMPLING=fDTS/32, N=8 */
1042:Drivers/STM32G0xx_HAL_Driver/Inc/stm32g0xx_ll_tim.h **** /**
1043:Drivers/STM32G0xx_HAL_Driver/Inc/stm32g0xx_ll_tim.h ****   * @}
1044:Drivers/STM32G0xx_HAL_Driver/Inc/stm32g0xx_ll_tim.h ****   */
1045:Drivers/STM32G0xx_HAL_Driver/Inc/stm32g0xx_ll_tim.h **** 
1046:Drivers/STM32G0xx_HAL_Driver/Inc/stm32g0xx_ll_tim.h **** /** @defgroup TIM_LL_EC_BREAK2_POLARITY BREAK2 POLARITY
1047:Drivers/STM32G0xx_HAL_Driver/Inc/stm32g0xx_ll_tim.h ****   * @{
1048:Drivers/STM32G0xx_HAL_Driver/Inc/stm32g0xx_ll_tim.h ****   */
1049:Drivers/STM32G0xx_HAL_Driver/Inc/stm32g0xx_ll_tim.h **** #define LL_TIM_BREAK2_POLARITY_LOW             0x00000000U             /*!< Break input BRK2 is act
1050:Drivers/STM32G0xx_HAL_Driver/Inc/stm32g0xx_ll_tim.h **** #define LL_TIM_BREAK2_POLARITY_HIGH            TIM_BDTR_BK2P           /*!< Break input BRK2 is act
1051:Drivers/STM32G0xx_HAL_Driver/Inc/stm32g0xx_ll_tim.h **** /**
1052:Drivers/STM32G0xx_HAL_Driver/Inc/stm32g0xx_ll_tim.h ****   * @}
1053:Drivers/STM32G0xx_HAL_Driver/Inc/stm32g0xx_ll_tim.h ****   */
1054:Drivers/STM32G0xx_HAL_Driver/Inc/stm32g0xx_ll_tim.h **** 
1055:Drivers/STM32G0xx_HAL_Driver/Inc/stm32g0xx_ll_tim.h **** /** @defgroup TIM_LL_EC_BREAK2_FILTER BREAK2 FILTER
1056:Drivers/STM32G0xx_HAL_Driver/Inc/stm32g0xx_ll_tim.h ****   * @{
1057:Drivers/STM32G0xx_HAL_Driver/Inc/stm32g0xx_ll_tim.h ****   */
1058:Drivers/STM32G0xx_HAL_Driver/Inc/stm32g0xx_ll_tim.h **** #define LL_TIM_BREAK2_FILTER_FDIV1             0x00000000U   /*!< No filter, BRK acts asynchronousl
1059:Drivers/STM32G0xx_HAL_Driver/Inc/stm32g0xx_ll_tim.h **** #define LL_TIM_BREAK2_FILTER_FDIV1_N2          0x00100000U   /*!< fSAMPLING=fCK_INT, N=2 */
1060:Drivers/STM32G0xx_HAL_Driver/Inc/stm32g0xx_ll_tim.h **** #define LL_TIM_BREAK2_FILTER_FDIV1_N4          0x00200000U   /*!< fSAMPLING=fCK_INT, N=4 */
1061:Drivers/STM32G0xx_HAL_Driver/Inc/stm32g0xx_ll_tim.h **** #define LL_TIM_BREAK2_FILTER_FDIV1_N8          0x00300000U   /*!< fSAMPLING=fCK_INT, N=8 */
1062:Drivers/STM32G0xx_HAL_Driver/Inc/stm32g0xx_ll_tim.h **** #define LL_TIM_BREAK2_FILTER_FDIV2_N6          0x00400000U   /*!< fSAMPLING=fDTS/2, N=6 */
1063:Drivers/STM32G0xx_HAL_Driver/Inc/stm32g0xx_ll_tim.h **** #define LL_TIM_BREAK2_FILTER_FDIV2_N8          0x00500000U   /*!< fSAMPLING=fDTS/2, N=8 */
1064:Drivers/STM32G0xx_HAL_Driver/Inc/stm32g0xx_ll_tim.h **** #define LL_TIM_BREAK2_FILTER_FDIV4_N6          0x00600000U   /*!< fSAMPLING=fDTS/4, N=6 */
1065:Drivers/STM32G0xx_HAL_Driver/Inc/stm32g0xx_ll_tim.h **** #define LL_TIM_BREAK2_FILTER_FDIV4_N8          0x00700000U   /*!< fSAMPLING=fDTS/4, N=8 */
1066:Drivers/STM32G0xx_HAL_Driver/Inc/stm32g0xx_ll_tim.h **** #define LL_TIM_BREAK2_FILTER_FDIV8_N6          0x00800000U   /*!< fSAMPLING=fDTS/8, N=6 */
1067:Drivers/STM32G0xx_HAL_Driver/Inc/stm32g0xx_ll_tim.h **** #define LL_TIM_BREAK2_FILTER_FDIV8_N8          0x00900000U   /*!< fSAMPLING=fDTS/8, N=8 */
1068:Drivers/STM32G0xx_HAL_Driver/Inc/stm32g0xx_ll_tim.h **** #define LL_TIM_BREAK2_FILTER_FDIV16_N5         0x00A00000U   /*!< fSAMPLING=fDTS/16, N=5 */
1069:Drivers/STM32G0xx_HAL_Driver/Inc/stm32g0xx_ll_tim.h **** #define LL_TIM_BREAK2_FILTER_FDIV16_N6         0x00B00000U   /*!< fSAMPLING=fDTS/16, N=6 */
1070:Drivers/STM32G0xx_HAL_Driver/Inc/stm32g0xx_ll_tim.h **** #define LL_TIM_BREAK2_FILTER_FDIV16_N8         0x00C00000U   /*!< fSAMPLING=fDTS/16, N=8 */
1071:Drivers/STM32G0xx_HAL_Driver/Inc/stm32g0xx_ll_tim.h **** #define LL_TIM_BREAK2_FILTER_FDIV32_N5         0x00D00000U   /*!< fSAMPLING=fDTS/32, N=5 */
1072:Drivers/STM32G0xx_HAL_Driver/Inc/stm32g0xx_ll_tim.h **** #define LL_TIM_BREAK2_FILTER_FDIV32_N6         0x00E00000U   /*!< fSAMPLING=fDTS/32, N=6 */
1073:Drivers/STM32G0xx_HAL_Driver/Inc/stm32g0xx_ll_tim.h **** #define LL_TIM_BREAK2_FILTER_FDIV32_N8         0x00F00000U   /*!< fSAMPLING=fDTS/32, N=8 */
1074:Drivers/STM32G0xx_HAL_Driver/Inc/stm32g0xx_ll_tim.h **** /**
1075:Drivers/STM32G0xx_HAL_Driver/Inc/stm32g0xx_ll_tim.h ****   * @}
1076:Drivers/STM32G0xx_HAL_Driver/Inc/stm32g0xx_ll_tim.h ****   */
1077:Drivers/STM32G0xx_HAL_Driver/Inc/stm32g0xx_ll_tim.h **** 
1078:Drivers/STM32G0xx_HAL_Driver/Inc/stm32g0xx_ll_tim.h **** /** @defgroup TIM_LL_EC_OSSI OSSI
1079:Drivers/STM32G0xx_HAL_Driver/Inc/stm32g0xx_ll_tim.h ****   * @{
1080:Drivers/STM32G0xx_HAL_Driver/Inc/stm32g0xx_ll_tim.h ****   */
1081:Drivers/STM32G0xx_HAL_Driver/Inc/stm32g0xx_ll_tim.h **** #define LL_TIM_OSSI_DISABLE                    0x00000000U             /*!< When inactive, OCx/OCxN
1082:Drivers/STM32G0xx_HAL_Driver/Inc/stm32g0xx_ll_tim.h **** #define LL_TIM_OSSI_ENABLE                     TIM_BDTR_OSSI           /*!< When inactive, OxC/OCxN
1083:Drivers/STM32G0xx_HAL_Driver/Inc/stm32g0xx_ll_tim.h **** /**
1084:Drivers/STM32G0xx_HAL_Driver/Inc/stm32g0xx_ll_tim.h ****   * @}
1085:Drivers/STM32G0xx_HAL_Driver/Inc/stm32g0xx_ll_tim.h ****   */
1086:Drivers/STM32G0xx_HAL_Driver/Inc/stm32g0xx_ll_tim.h **** 
1087:Drivers/STM32G0xx_HAL_Driver/Inc/stm32g0xx_ll_tim.h **** /** @defgroup TIM_LL_EC_OSSR OSSR
1088:Drivers/STM32G0xx_HAL_Driver/Inc/stm32g0xx_ll_tim.h ****   * @{
1089:Drivers/STM32G0xx_HAL_Driver/Inc/stm32g0xx_ll_tim.h ****   */
1090:Drivers/STM32G0xx_HAL_Driver/Inc/stm32g0xx_ll_tim.h **** #define LL_TIM_OSSR_DISABLE                    0x00000000U             /*!< When inactive, OCx/OCxN
1091:Drivers/STM32G0xx_HAL_Driver/Inc/stm32g0xx_ll_tim.h **** #define LL_TIM_OSSR_ENABLE                     TIM_BDTR_OSSR           /*!< When inactive, OC/OCN o
1092:Drivers/STM32G0xx_HAL_Driver/Inc/stm32g0xx_ll_tim.h **** /**
1093:Drivers/STM32G0xx_HAL_Driver/Inc/stm32g0xx_ll_tim.h ****   * @}
1094:Drivers/STM32G0xx_HAL_Driver/Inc/stm32g0xx_ll_tim.h ****   */
1095:Drivers/STM32G0xx_HAL_Driver/Inc/stm32g0xx_ll_tim.h **** 
ARM GAS  /tmp/ccjNLvMu.s 			page 38


1096:Drivers/STM32G0xx_HAL_Driver/Inc/stm32g0xx_ll_tim.h **** /** @defgroup TIM_LL_EC_BREAK_INPUT BREAK INPUT
1097:Drivers/STM32G0xx_HAL_Driver/Inc/stm32g0xx_ll_tim.h ****   * @{
1098:Drivers/STM32G0xx_HAL_Driver/Inc/stm32g0xx_ll_tim.h ****   */
1099:Drivers/STM32G0xx_HAL_Driver/Inc/stm32g0xx_ll_tim.h **** #define LL_TIM_BREAK_INPUT_BKIN                0x00000000U  /*!< TIMx_BKIN input */
1100:Drivers/STM32G0xx_HAL_Driver/Inc/stm32g0xx_ll_tim.h **** #define LL_TIM_BREAK_INPUT_BKIN2               0x00000004U  /*!< TIMx_BKIN2 input */
1101:Drivers/STM32G0xx_HAL_Driver/Inc/stm32g0xx_ll_tim.h **** /**
1102:Drivers/STM32G0xx_HAL_Driver/Inc/stm32g0xx_ll_tim.h ****   * @}
1103:Drivers/STM32G0xx_HAL_Driver/Inc/stm32g0xx_ll_tim.h ****   */
1104:Drivers/STM32G0xx_HAL_Driver/Inc/stm32g0xx_ll_tim.h **** 
1105:Drivers/STM32G0xx_HAL_Driver/Inc/stm32g0xx_ll_tim.h **** /** @defgroup TIM_LL_EC_BKIN_SOURCE BKIN SOURCE
1106:Drivers/STM32G0xx_HAL_Driver/Inc/stm32g0xx_ll_tim.h ****   * @{
1107:Drivers/STM32G0xx_HAL_Driver/Inc/stm32g0xx_ll_tim.h ****   */
1108:Drivers/STM32G0xx_HAL_Driver/Inc/stm32g0xx_ll_tim.h **** #define LL_TIM_BKIN_SOURCE_BKIN                TIM1_AF1_BKINE      /*!< BKIN input from AF controll
1109:Drivers/STM32G0xx_HAL_Driver/Inc/stm32g0xx_ll_tim.h **** #if defined(COMP1) && defined(COMP2)
1110:Drivers/STM32G0xx_HAL_Driver/Inc/stm32g0xx_ll_tim.h **** #define LL_TIM_BKIN_SOURCE_BKCOMP1             TIM1_AF1_BKCMP1E    /*!< internal signal: COMP1 outp
1111:Drivers/STM32G0xx_HAL_Driver/Inc/stm32g0xx_ll_tim.h **** #define LL_TIM_BKIN_SOURCE_BKCOMP2             TIM1_AF1_BKCMP2E    /*!< internal signal: COMP2 outp
1112:Drivers/STM32G0xx_HAL_Driver/Inc/stm32g0xx_ll_tim.h **** #endif /* COMP1 && COMP2 */
1113:Drivers/STM32G0xx_HAL_Driver/Inc/stm32g0xx_ll_tim.h **** #if defined(COMP3)
1114:Drivers/STM32G0xx_HAL_Driver/Inc/stm32g0xx_ll_tim.h **** #define LL_TIM_BKIN_SOURCE_BKCOMP3             TIM1_AF1_BKCMP3E    /*!< internal signal: COMP3 outp
1115:Drivers/STM32G0xx_HAL_Driver/Inc/stm32g0xx_ll_tim.h **** #endif /* COMP3 */
1116:Drivers/STM32G0xx_HAL_Driver/Inc/stm32g0xx_ll_tim.h **** /**
1117:Drivers/STM32G0xx_HAL_Driver/Inc/stm32g0xx_ll_tim.h ****   * @}
1118:Drivers/STM32G0xx_HAL_Driver/Inc/stm32g0xx_ll_tim.h ****   */
1119:Drivers/STM32G0xx_HAL_Driver/Inc/stm32g0xx_ll_tim.h **** 
1120:Drivers/STM32G0xx_HAL_Driver/Inc/stm32g0xx_ll_tim.h **** /** @defgroup TIM_LL_EC_BKIN_POLARITY BKIN POLARITY
1121:Drivers/STM32G0xx_HAL_Driver/Inc/stm32g0xx_ll_tim.h ****   * @{
1122:Drivers/STM32G0xx_HAL_Driver/Inc/stm32g0xx_ll_tim.h ****   */
1123:Drivers/STM32G0xx_HAL_Driver/Inc/stm32g0xx_ll_tim.h **** #define LL_TIM_BKIN_POLARITY_LOW               TIM1_AF1_BKINP           /*!< BRK BKIN input is acti
1124:Drivers/STM32G0xx_HAL_Driver/Inc/stm32g0xx_ll_tim.h **** #define LL_TIM_BKIN_POLARITY_HIGH              0x00000000U              /*!< BRK BKIN input is acti
1125:Drivers/STM32G0xx_HAL_Driver/Inc/stm32g0xx_ll_tim.h **** /**
1126:Drivers/STM32G0xx_HAL_Driver/Inc/stm32g0xx_ll_tim.h ****   * @}
1127:Drivers/STM32G0xx_HAL_Driver/Inc/stm32g0xx_ll_tim.h ****   */
1128:Drivers/STM32G0xx_HAL_Driver/Inc/stm32g0xx_ll_tim.h **** 
1129:Drivers/STM32G0xx_HAL_Driver/Inc/stm32g0xx_ll_tim.h **** /** @defgroup TIM_LL_EC_BREAK_AFMODE BREAK AF MODE
1130:Drivers/STM32G0xx_HAL_Driver/Inc/stm32g0xx_ll_tim.h ****   * @{
1131:Drivers/STM32G0xx_HAL_Driver/Inc/stm32g0xx_ll_tim.h ****   */
1132:Drivers/STM32G0xx_HAL_Driver/Inc/stm32g0xx_ll_tim.h **** #define LL_TIM_BREAK_AFMODE_INPUT              0x00000000U              /*!< Break input BRK in inp
1133:Drivers/STM32G0xx_HAL_Driver/Inc/stm32g0xx_ll_tim.h **** #define LL_TIM_BREAK_AFMODE_BIDIRECTIONAL      TIM_BDTR_BKBID           /*!< Break input BRK in bid
1134:Drivers/STM32G0xx_HAL_Driver/Inc/stm32g0xx_ll_tim.h **** /**
1135:Drivers/STM32G0xx_HAL_Driver/Inc/stm32g0xx_ll_tim.h ****   * @}
1136:Drivers/STM32G0xx_HAL_Driver/Inc/stm32g0xx_ll_tim.h ****   */
1137:Drivers/STM32G0xx_HAL_Driver/Inc/stm32g0xx_ll_tim.h **** 
1138:Drivers/STM32G0xx_HAL_Driver/Inc/stm32g0xx_ll_tim.h **** /** @defgroup TIM_LL_EC_BREAK2_AFMODE BREAK2 AF MODE
1139:Drivers/STM32G0xx_HAL_Driver/Inc/stm32g0xx_ll_tim.h ****   * @{
1140:Drivers/STM32G0xx_HAL_Driver/Inc/stm32g0xx_ll_tim.h ****   */
1141:Drivers/STM32G0xx_HAL_Driver/Inc/stm32g0xx_ll_tim.h **** #define LL_TIM_BREAK2_AFMODE_INPUT             0x00000000U             /*!< Break2 input BRK2 in in
1142:Drivers/STM32G0xx_HAL_Driver/Inc/stm32g0xx_ll_tim.h **** #define LL_TIM_BREAK2_AFMODE_BIDIRECTIONAL     TIM_BDTR_BK2BID         /*!< Break2 input BRK2 in bi
1143:Drivers/STM32G0xx_HAL_Driver/Inc/stm32g0xx_ll_tim.h **** /**
1144:Drivers/STM32G0xx_HAL_Driver/Inc/stm32g0xx_ll_tim.h ****   * @}
1145:Drivers/STM32G0xx_HAL_Driver/Inc/stm32g0xx_ll_tim.h ****   */
1146:Drivers/STM32G0xx_HAL_Driver/Inc/stm32g0xx_ll_tim.h **** 
1147:Drivers/STM32G0xx_HAL_Driver/Inc/stm32g0xx_ll_tim.h **** /** Legacy definitions for compatibility purpose
1148:Drivers/STM32G0xx_HAL_Driver/Inc/stm32g0xx_ll_tim.h **** @cond 0
1149:Drivers/STM32G0xx_HAL_Driver/Inc/stm32g0xx_ll_tim.h ****   */
1150:Drivers/STM32G0xx_HAL_Driver/Inc/stm32g0xx_ll_tim.h **** #define LL_TIM_ReArmBRK(_PARAM_)
1151:Drivers/STM32G0xx_HAL_Driver/Inc/stm32g0xx_ll_tim.h **** #define LL_TIM_ReArmBRK2(_PARAM_)
1152:Drivers/STM32G0xx_HAL_Driver/Inc/stm32g0xx_ll_tim.h **** /**
ARM GAS  /tmp/ccjNLvMu.s 			page 39


1153:Drivers/STM32G0xx_HAL_Driver/Inc/stm32g0xx_ll_tim.h **** @endcond
1154:Drivers/STM32G0xx_HAL_Driver/Inc/stm32g0xx_ll_tim.h ****   */
1155:Drivers/STM32G0xx_HAL_Driver/Inc/stm32g0xx_ll_tim.h **** 
1156:Drivers/STM32G0xx_HAL_Driver/Inc/stm32g0xx_ll_tim.h **** /** @defgroup TIM_LL_EC_DMABURST_BASEADDR DMA Burst Base Address
1157:Drivers/STM32G0xx_HAL_Driver/Inc/stm32g0xx_ll_tim.h ****   * @{
1158:Drivers/STM32G0xx_HAL_Driver/Inc/stm32g0xx_ll_tim.h ****   */
1159:Drivers/STM32G0xx_HAL_Driver/Inc/stm32g0xx_ll_tim.h **** #define LL_TIM_DMABURST_BASEADDR_CR1           0x00000000U                                         
1160:Drivers/STM32G0xx_HAL_Driver/Inc/stm32g0xx_ll_tim.h **** #define LL_TIM_DMABURST_BASEADDR_CR2           TIM_DCR_DBA_0                                       
1161:Drivers/STM32G0xx_HAL_Driver/Inc/stm32g0xx_ll_tim.h **** #define LL_TIM_DMABURST_BASEADDR_SMCR          TIM_DCR_DBA_1                                       
1162:Drivers/STM32G0xx_HAL_Driver/Inc/stm32g0xx_ll_tim.h **** #define LL_TIM_DMABURST_BASEADDR_DIER          (TIM_DCR_DBA_1 |  TIM_DCR_DBA_0)                    
1163:Drivers/STM32G0xx_HAL_Driver/Inc/stm32g0xx_ll_tim.h **** #define LL_TIM_DMABURST_BASEADDR_SR            TIM_DCR_DBA_2                                       
1164:Drivers/STM32G0xx_HAL_Driver/Inc/stm32g0xx_ll_tim.h **** #define LL_TIM_DMABURST_BASEADDR_EGR           (TIM_DCR_DBA_2 | TIM_DCR_DBA_0)                     
1165:Drivers/STM32G0xx_HAL_Driver/Inc/stm32g0xx_ll_tim.h **** #define LL_TIM_DMABURST_BASEADDR_CCMR1         (TIM_DCR_DBA_2 | TIM_DCR_DBA_1)                     
1166:Drivers/STM32G0xx_HAL_Driver/Inc/stm32g0xx_ll_tim.h **** #define LL_TIM_DMABURST_BASEADDR_CCMR2         (TIM_DCR_DBA_2 | TIM_DCR_DBA_1 | TIM_DCR_DBA_0)     
1167:Drivers/STM32G0xx_HAL_Driver/Inc/stm32g0xx_ll_tim.h **** #define LL_TIM_DMABURST_BASEADDR_CCER          TIM_DCR_DBA_3                                       
1168:Drivers/STM32G0xx_HAL_Driver/Inc/stm32g0xx_ll_tim.h **** #define LL_TIM_DMABURST_BASEADDR_CNT           (TIM_DCR_DBA_3 | TIM_DCR_DBA_0)                     
1169:Drivers/STM32G0xx_HAL_Driver/Inc/stm32g0xx_ll_tim.h **** #define LL_TIM_DMABURST_BASEADDR_PSC           (TIM_DCR_DBA_3 | TIM_DCR_DBA_1)                     
1170:Drivers/STM32G0xx_HAL_Driver/Inc/stm32g0xx_ll_tim.h **** #define LL_TIM_DMABURST_BASEADDR_ARR           (TIM_DCR_DBA_3 | TIM_DCR_DBA_1 | TIM_DCR_DBA_0)     
1171:Drivers/STM32G0xx_HAL_Driver/Inc/stm32g0xx_ll_tim.h **** #define LL_TIM_DMABURST_BASEADDR_RCR           (TIM_DCR_DBA_3 | TIM_DCR_DBA_2)                     
1172:Drivers/STM32G0xx_HAL_Driver/Inc/stm32g0xx_ll_tim.h **** #define LL_TIM_DMABURST_BASEADDR_CCR1          (TIM_DCR_DBA_3 | TIM_DCR_DBA_2 | TIM_DCR_DBA_0)     
1173:Drivers/STM32G0xx_HAL_Driver/Inc/stm32g0xx_ll_tim.h **** #define LL_TIM_DMABURST_BASEADDR_CCR2          (TIM_DCR_DBA_3 | TIM_DCR_DBA_2 | TIM_DCR_DBA_1)     
1174:Drivers/STM32G0xx_HAL_Driver/Inc/stm32g0xx_ll_tim.h **** #define LL_TIM_DMABURST_BASEADDR_CCR3          (TIM_DCR_DBA_3 | TIM_DCR_DBA_2 | TIM_DCR_DBA_1 | TIM
1175:Drivers/STM32G0xx_HAL_Driver/Inc/stm32g0xx_ll_tim.h **** #define LL_TIM_DMABURST_BASEADDR_CCR4          TIM_DCR_DBA_4                                       
1176:Drivers/STM32G0xx_HAL_Driver/Inc/stm32g0xx_ll_tim.h **** #define LL_TIM_DMABURST_BASEADDR_BDTR          (TIM_DCR_DBA_4 | TIM_DCR_DBA_0)                     
1177:Drivers/STM32G0xx_HAL_Driver/Inc/stm32g0xx_ll_tim.h **** #define LL_TIM_DMABURST_BASEADDR_OR1           (TIM_DCR_DBA_4 | TIM_DCR_DBA_2)                     
1178:Drivers/STM32G0xx_HAL_Driver/Inc/stm32g0xx_ll_tim.h **** #define LL_TIM_DMABURST_BASEADDR_CCMR3         (TIM_DCR_DBA_4 | TIM_DCR_DBA_2 | TIM_DCR_DBA_0)     
1179:Drivers/STM32G0xx_HAL_Driver/Inc/stm32g0xx_ll_tim.h **** #define LL_TIM_DMABURST_BASEADDR_CCR5          (TIM_DCR_DBA_4 | TIM_DCR_DBA_2 | TIM_DCR_DBA_1)     
1180:Drivers/STM32G0xx_HAL_Driver/Inc/stm32g0xx_ll_tim.h **** #define LL_TIM_DMABURST_BASEADDR_CCR6          (TIM_DCR_DBA_4 | TIM_DCR_DBA_2 | TIM_DCR_DBA_1 | TIM
1181:Drivers/STM32G0xx_HAL_Driver/Inc/stm32g0xx_ll_tim.h **** #define LL_TIM_DMABURST_BASEADDR_AF1           (TIM_DCR_DBA_4 | TIM_DCR_DBA_3)                     
1182:Drivers/STM32G0xx_HAL_Driver/Inc/stm32g0xx_ll_tim.h **** #define LL_TIM_DMABURST_BASEADDR_AF2           (TIM_DCR_DBA_4 | TIM_DCR_DBA_3 | TIM_DCR_DBA_0)     
1183:Drivers/STM32G0xx_HAL_Driver/Inc/stm32g0xx_ll_tim.h **** #define LL_TIM_DMABURST_BASEADDR_TISEL         (TIM_DCR_DBA_4 | TIM_DCR_DBA_3 | TIM_DCR_DBA_1)     
1184:Drivers/STM32G0xx_HAL_Driver/Inc/stm32g0xx_ll_tim.h **** /**
1185:Drivers/STM32G0xx_HAL_Driver/Inc/stm32g0xx_ll_tim.h ****   * @}
1186:Drivers/STM32G0xx_HAL_Driver/Inc/stm32g0xx_ll_tim.h ****   */
1187:Drivers/STM32G0xx_HAL_Driver/Inc/stm32g0xx_ll_tim.h **** 
1188:Drivers/STM32G0xx_HAL_Driver/Inc/stm32g0xx_ll_tim.h **** /** @defgroup TIM_LL_EC_DMABURST_LENGTH DMA Burst Length
1189:Drivers/STM32G0xx_HAL_Driver/Inc/stm32g0xx_ll_tim.h ****   * @{
1190:Drivers/STM32G0xx_HAL_Driver/Inc/stm32g0xx_ll_tim.h ****   */
1191:Drivers/STM32G0xx_HAL_Driver/Inc/stm32g0xx_ll_tim.h **** #define LL_TIM_DMABURST_LENGTH_1TRANSFER       0x00000000U                                         
1192:Drivers/STM32G0xx_HAL_Driver/Inc/stm32g0xx_ll_tim.h **** #define LL_TIM_DMABURST_LENGTH_2TRANSFERS      TIM_DCR_DBL_0                                       
1193:Drivers/STM32G0xx_HAL_Driver/Inc/stm32g0xx_ll_tim.h **** #define LL_TIM_DMABURST_LENGTH_3TRANSFERS      TIM_DCR_DBL_1                                       
1194:Drivers/STM32G0xx_HAL_Driver/Inc/stm32g0xx_ll_tim.h **** #define LL_TIM_DMABURST_LENGTH_4TRANSFERS      (TIM_DCR_DBL_1 |  TIM_DCR_DBL_0)                    
1195:Drivers/STM32G0xx_HAL_Driver/Inc/stm32g0xx_ll_tim.h **** #define LL_TIM_DMABURST_LENGTH_5TRANSFERS      TIM_DCR_DBL_2                                       
1196:Drivers/STM32G0xx_HAL_Driver/Inc/stm32g0xx_ll_tim.h **** #define LL_TIM_DMABURST_LENGTH_6TRANSFERS      (TIM_DCR_DBL_2 | TIM_DCR_DBL_0)                     
1197:Drivers/STM32G0xx_HAL_Driver/Inc/stm32g0xx_ll_tim.h **** #define LL_TIM_DMABURST_LENGTH_7TRANSFERS      (TIM_DCR_DBL_2 | TIM_DCR_DBL_1)                     
1198:Drivers/STM32G0xx_HAL_Driver/Inc/stm32g0xx_ll_tim.h **** #define LL_TIM_DMABURST_LENGTH_8TRANSFERS      (TIM_DCR_DBL_2 | TIM_DCR_DBL_1 | TIM_DCR_DBL_0)     
1199:Drivers/STM32G0xx_HAL_Driver/Inc/stm32g0xx_ll_tim.h **** #define LL_TIM_DMABURST_LENGTH_9TRANSFERS      TIM_DCR_DBL_3                                       
1200:Drivers/STM32G0xx_HAL_Driver/Inc/stm32g0xx_ll_tim.h **** #define LL_TIM_DMABURST_LENGTH_10TRANSFERS     (TIM_DCR_DBL_3 | TIM_DCR_DBL_0)                     
1201:Drivers/STM32G0xx_HAL_Driver/Inc/stm32g0xx_ll_tim.h **** #define LL_TIM_DMABURST_LENGTH_11TRANSFERS     (TIM_DCR_DBL_3 | TIM_DCR_DBL_1)                     
1202:Drivers/STM32G0xx_HAL_Driver/Inc/stm32g0xx_ll_tim.h **** #define LL_TIM_DMABURST_LENGTH_12TRANSFERS     (TIM_DCR_DBL_3 | TIM_DCR_DBL_1 | TIM_DCR_DBL_0)     
1203:Drivers/STM32G0xx_HAL_Driver/Inc/stm32g0xx_ll_tim.h **** #define LL_TIM_DMABURST_LENGTH_13TRANSFERS     (TIM_DCR_DBL_3 | TIM_DCR_DBL_2)                     
1204:Drivers/STM32G0xx_HAL_Driver/Inc/stm32g0xx_ll_tim.h **** #define LL_TIM_DMABURST_LENGTH_14TRANSFERS     (TIM_DCR_DBL_3 | TIM_DCR_DBL_2 | TIM_DCR_DBL_0)     
1205:Drivers/STM32G0xx_HAL_Driver/Inc/stm32g0xx_ll_tim.h **** #define LL_TIM_DMABURST_LENGTH_15TRANSFERS     (TIM_DCR_DBL_3 | TIM_DCR_DBL_2 | TIM_DCR_DBL_1)     
1206:Drivers/STM32G0xx_HAL_Driver/Inc/stm32g0xx_ll_tim.h **** #define LL_TIM_DMABURST_LENGTH_16TRANSFERS     (TIM_DCR_DBL_3 | TIM_DCR_DBL_2 | TIM_DCR_DBL_1 | TIM
1207:Drivers/STM32G0xx_HAL_Driver/Inc/stm32g0xx_ll_tim.h **** #define LL_TIM_DMABURST_LENGTH_17TRANSFERS     TIM_DCR_DBL_4                                       
1208:Drivers/STM32G0xx_HAL_Driver/Inc/stm32g0xx_ll_tim.h **** #define LL_TIM_DMABURST_LENGTH_18TRANSFERS     (TIM_DCR_DBL_4 |  TIM_DCR_DBL_0)                    
1209:Drivers/STM32G0xx_HAL_Driver/Inc/stm32g0xx_ll_tim.h **** /**
ARM GAS  /tmp/ccjNLvMu.s 			page 40


1210:Drivers/STM32G0xx_HAL_Driver/Inc/stm32g0xx_ll_tim.h ****   * @}
1211:Drivers/STM32G0xx_HAL_Driver/Inc/stm32g0xx_ll_tim.h ****   */
1212:Drivers/STM32G0xx_HAL_Driver/Inc/stm32g0xx_ll_tim.h **** 
1213:Drivers/STM32G0xx_HAL_Driver/Inc/stm32g0xx_ll_tim.h **** /** @defgroup TIM_LL_EC_TIM1_TI1_RMP  TIM1 Timer Input Ch1 Remap
1214:Drivers/STM32G0xx_HAL_Driver/Inc/stm32g0xx_ll_tim.h ****   * @{
1215:Drivers/STM32G0xx_HAL_Driver/Inc/stm32g0xx_ll_tim.h ****   */
1216:Drivers/STM32G0xx_HAL_Driver/Inc/stm32g0xx_ll_tim.h **** #define LL_TIM_TIM1_TI1_RMP_GPIO   0x00000000U                                       /*!< TIM1 inpu
1217:Drivers/STM32G0xx_HAL_Driver/Inc/stm32g0xx_ll_tim.h **** #if defined(COMP1)
1218:Drivers/STM32G0xx_HAL_Driver/Inc/stm32g0xx_ll_tim.h **** #define LL_TIM_TIM1_TI1_RMP_COMP1  TIM_TISEL_TI1SEL_0                                /*!< TIM1 inpu
1219:Drivers/STM32G0xx_HAL_Driver/Inc/stm32g0xx_ll_tim.h **** #endif /* COMP1 */
1220:Drivers/STM32G0xx_HAL_Driver/Inc/stm32g0xx_ll_tim.h **** /**
1221:Drivers/STM32G0xx_HAL_Driver/Inc/stm32g0xx_ll_tim.h ****   * @}
1222:Drivers/STM32G0xx_HAL_Driver/Inc/stm32g0xx_ll_tim.h ****   */
1223:Drivers/STM32G0xx_HAL_Driver/Inc/stm32g0xx_ll_tim.h **** 
1224:Drivers/STM32G0xx_HAL_Driver/Inc/stm32g0xx_ll_tim.h **** /** @defgroup TIM_LL_EC_TIM1_TI2_RMP  TIM1 Timer Input Ch2 Remap
1225:Drivers/STM32G0xx_HAL_Driver/Inc/stm32g0xx_ll_tim.h ****   * @{
1226:Drivers/STM32G0xx_HAL_Driver/Inc/stm32g0xx_ll_tim.h ****   */
1227:Drivers/STM32G0xx_HAL_Driver/Inc/stm32g0xx_ll_tim.h **** #define LL_TIM_TIM1_TI2_RMP_GPIO   0x00000000U                                       /*!< TIM1 inpu
1228:Drivers/STM32G0xx_HAL_Driver/Inc/stm32g0xx_ll_tim.h **** #if defined(COMP2)
1229:Drivers/STM32G0xx_HAL_Driver/Inc/stm32g0xx_ll_tim.h **** #define LL_TIM_TIM1_TI2_RMP_COMP2  TIM_TISEL_TI2SEL_0                                /*!< TIM1 inpu
1230:Drivers/STM32G0xx_HAL_Driver/Inc/stm32g0xx_ll_tim.h **** #endif /* COMP2 */
1231:Drivers/STM32G0xx_HAL_Driver/Inc/stm32g0xx_ll_tim.h **** /**
1232:Drivers/STM32G0xx_HAL_Driver/Inc/stm32g0xx_ll_tim.h ****   * @}
1233:Drivers/STM32G0xx_HAL_Driver/Inc/stm32g0xx_ll_tim.h ****   */
1234:Drivers/STM32G0xx_HAL_Driver/Inc/stm32g0xx_ll_tim.h **** 
1235:Drivers/STM32G0xx_HAL_Driver/Inc/stm32g0xx_ll_tim.h **** /** @defgroup TIM_LL_EC_TIM1_TI3_RMP  TIM1 Timer Input Ch3 Remap
1236:Drivers/STM32G0xx_HAL_Driver/Inc/stm32g0xx_ll_tim.h ****   * @{
1237:Drivers/STM32G0xx_HAL_Driver/Inc/stm32g0xx_ll_tim.h ****   */
1238:Drivers/STM32G0xx_HAL_Driver/Inc/stm32g0xx_ll_tim.h **** #define LL_TIM_TIM1_TI3_RMP_GPIO   0x00000000U                                       /*!< TIM1 inpu
1239:Drivers/STM32G0xx_HAL_Driver/Inc/stm32g0xx_ll_tim.h **** #if defined(COMP3)
1240:Drivers/STM32G0xx_HAL_Driver/Inc/stm32g0xx_ll_tim.h **** #define LL_TIM_TIM1_TI3_RMP_COMP3  TIM_TISEL_TI3SEL_0                                /*!< TIM1 inpu
1241:Drivers/STM32G0xx_HAL_Driver/Inc/stm32g0xx_ll_tim.h **** #endif  /* COMP3 */
1242:Drivers/STM32G0xx_HAL_Driver/Inc/stm32g0xx_ll_tim.h **** /**
1243:Drivers/STM32G0xx_HAL_Driver/Inc/stm32g0xx_ll_tim.h ****   * @}
1244:Drivers/STM32G0xx_HAL_Driver/Inc/stm32g0xx_ll_tim.h ****   */
1245:Drivers/STM32G0xx_HAL_Driver/Inc/stm32g0xx_ll_tim.h **** 
1246:Drivers/STM32G0xx_HAL_Driver/Inc/stm32g0xx_ll_tim.h **** #if defined(TIM2)
1247:Drivers/STM32G0xx_HAL_Driver/Inc/stm32g0xx_ll_tim.h **** /** @defgroup TIM_LL_EC_TIM2_TI1_RMP  TIM2 Timer Input Ch1 Remap
1248:Drivers/STM32G0xx_HAL_Driver/Inc/stm32g0xx_ll_tim.h ****   * @{
1249:Drivers/STM32G0xx_HAL_Driver/Inc/stm32g0xx_ll_tim.h ****   */
1250:Drivers/STM32G0xx_HAL_Driver/Inc/stm32g0xx_ll_tim.h **** #define LL_TIM_TIM2_TI1_RMP_GPIO   0x00000000U                                       /*!< TIM2 inpu
1251:Drivers/STM32G0xx_HAL_Driver/Inc/stm32g0xx_ll_tim.h **** #define LL_TIM_TIM2_TI1_RMP_COMP1  TIM_TISEL_TI1SEL_0                                /*!< TIM2 inpu
1252:Drivers/STM32G0xx_HAL_Driver/Inc/stm32g0xx_ll_tim.h **** /**
1253:Drivers/STM32G0xx_HAL_Driver/Inc/stm32g0xx_ll_tim.h ****   * @}
1254:Drivers/STM32G0xx_HAL_Driver/Inc/stm32g0xx_ll_tim.h ****   */
1255:Drivers/STM32G0xx_HAL_Driver/Inc/stm32g0xx_ll_tim.h **** 
1256:Drivers/STM32G0xx_HAL_Driver/Inc/stm32g0xx_ll_tim.h **** /** @defgroup TIM_LL_EC_TIM2_TI2_RMP  TIM2 Timer Input Ch2 Remap
1257:Drivers/STM32G0xx_HAL_Driver/Inc/stm32g0xx_ll_tim.h ****   * @{
1258:Drivers/STM32G0xx_HAL_Driver/Inc/stm32g0xx_ll_tim.h ****   */
1259:Drivers/STM32G0xx_HAL_Driver/Inc/stm32g0xx_ll_tim.h **** #define LL_TIM_TIM2_TI2_RMP_GPIO   0x00000000U                                       /*!< TIM2 inpu
1260:Drivers/STM32G0xx_HAL_Driver/Inc/stm32g0xx_ll_tim.h **** #define LL_TIM_TIM2_TI2_RMP_COMP2  TIM_TISEL_TI2SEL_0                                /*!< TIM2 inpu
1261:Drivers/STM32G0xx_HAL_Driver/Inc/stm32g0xx_ll_tim.h **** /**
1262:Drivers/STM32G0xx_HAL_Driver/Inc/stm32g0xx_ll_tim.h ****   * @}
1263:Drivers/STM32G0xx_HAL_Driver/Inc/stm32g0xx_ll_tim.h ****   */
1264:Drivers/STM32G0xx_HAL_Driver/Inc/stm32g0xx_ll_tim.h **** 
1265:Drivers/STM32G0xx_HAL_Driver/Inc/stm32g0xx_ll_tim.h **** /** @defgroup TIM_LL_EC_TIM2_TI3_RMP  TIM2 Timer Input Ch3 Remap
1266:Drivers/STM32G0xx_HAL_Driver/Inc/stm32g0xx_ll_tim.h ****   * @{
ARM GAS  /tmp/ccjNLvMu.s 			page 41


1267:Drivers/STM32G0xx_HAL_Driver/Inc/stm32g0xx_ll_tim.h ****   */
1268:Drivers/STM32G0xx_HAL_Driver/Inc/stm32g0xx_ll_tim.h **** #define LL_TIM_TIM2_TI3_RMP_GPIO   0x00000000U                                       /*!< TIM2 inpu
1269:Drivers/STM32G0xx_HAL_Driver/Inc/stm32g0xx_ll_tim.h **** #if defined(COMP3)
1270:Drivers/STM32G0xx_HAL_Driver/Inc/stm32g0xx_ll_tim.h **** #define LL_TIM_TIM2_TI3_RMP_COMP3  TIM_TISEL_TI3SEL_0                                /*!< TIM2 inpu
1271:Drivers/STM32G0xx_HAL_Driver/Inc/stm32g0xx_ll_tim.h **** #endif /* COMP3 */
1272:Drivers/STM32G0xx_HAL_Driver/Inc/stm32g0xx_ll_tim.h **** /**
1273:Drivers/STM32G0xx_HAL_Driver/Inc/stm32g0xx_ll_tim.h ****   * @}
1274:Drivers/STM32G0xx_HAL_Driver/Inc/stm32g0xx_ll_tim.h ****   */
1275:Drivers/STM32G0xx_HAL_Driver/Inc/stm32g0xx_ll_tim.h **** #endif /* TIM2 */
1276:Drivers/STM32G0xx_HAL_Driver/Inc/stm32g0xx_ll_tim.h **** 
1277:Drivers/STM32G0xx_HAL_Driver/Inc/stm32g0xx_ll_tim.h **** /** @defgroup TIM_LL_EC_TIM3_TI1_RMP  TIM3 Timer Input Ch1 Remap
1278:Drivers/STM32G0xx_HAL_Driver/Inc/stm32g0xx_ll_tim.h ****   * @{
1279:Drivers/STM32G0xx_HAL_Driver/Inc/stm32g0xx_ll_tim.h ****   */
1280:Drivers/STM32G0xx_HAL_Driver/Inc/stm32g0xx_ll_tim.h **** #define LL_TIM_TIM3_TI1_RMP_GPIO   0x00000000U                                       /*!< TIM3 inpu
1281:Drivers/STM32G0xx_HAL_Driver/Inc/stm32g0xx_ll_tim.h **** #if defined(COMP1)
1282:Drivers/STM32G0xx_HAL_Driver/Inc/stm32g0xx_ll_tim.h **** #define LL_TIM_TIM3_TI1_RMP_COMP1  TIM_TISEL_TI1SEL_0                                /*!< TIM3 inpu
1283:Drivers/STM32G0xx_HAL_Driver/Inc/stm32g0xx_ll_tim.h **** #endif /* COMP1 */
1284:Drivers/STM32G0xx_HAL_Driver/Inc/stm32g0xx_ll_tim.h **** /**
1285:Drivers/STM32G0xx_HAL_Driver/Inc/stm32g0xx_ll_tim.h ****   * @}
1286:Drivers/STM32G0xx_HAL_Driver/Inc/stm32g0xx_ll_tim.h ****   */
1287:Drivers/STM32G0xx_HAL_Driver/Inc/stm32g0xx_ll_tim.h **** 
1288:Drivers/STM32G0xx_HAL_Driver/Inc/stm32g0xx_ll_tim.h **** /** @defgroup TIM_LL_EC_TIM3_TI2_RMP  TIM3 Timer Input Ch2 Remap
1289:Drivers/STM32G0xx_HAL_Driver/Inc/stm32g0xx_ll_tim.h ****   * @{
1290:Drivers/STM32G0xx_HAL_Driver/Inc/stm32g0xx_ll_tim.h ****   */
1291:Drivers/STM32G0xx_HAL_Driver/Inc/stm32g0xx_ll_tim.h **** #define LL_TIM_TIM3_TI2_RMP_GPIO   0x00000000U                                       /*!< TIM3 inpu
1292:Drivers/STM32G0xx_HAL_Driver/Inc/stm32g0xx_ll_tim.h **** #if defined(COMP2)
1293:Drivers/STM32G0xx_HAL_Driver/Inc/stm32g0xx_ll_tim.h **** #define LL_TIM_TIM3_TI2_RMP_COMP2  TIM_TISEL_TI2SEL_0                                /*!< TIM3 inpu
1294:Drivers/STM32G0xx_HAL_Driver/Inc/stm32g0xx_ll_tim.h **** #endif /* COMP2 */
1295:Drivers/STM32G0xx_HAL_Driver/Inc/stm32g0xx_ll_tim.h **** /**
1296:Drivers/STM32G0xx_HAL_Driver/Inc/stm32g0xx_ll_tim.h ****   * @}
1297:Drivers/STM32G0xx_HAL_Driver/Inc/stm32g0xx_ll_tim.h ****   */
1298:Drivers/STM32G0xx_HAL_Driver/Inc/stm32g0xx_ll_tim.h **** 
1299:Drivers/STM32G0xx_HAL_Driver/Inc/stm32g0xx_ll_tim.h **** /** @defgroup TIM_LL_EC_TIM3_TI3_RMP  TIM3 Timer Input Ch3 Remap
1300:Drivers/STM32G0xx_HAL_Driver/Inc/stm32g0xx_ll_tim.h ****   * @{
1301:Drivers/STM32G0xx_HAL_Driver/Inc/stm32g0xx_ll_tim.h ****   */
1302:Drivers/STM32G0xx_HAL_Driver/Inc/stm32g0xx_ll_tim.h **** #define LL_TIM_TIM3_TI3_RMP_GPIO   0x00000000U                                       /*!< TIM3 inpu
1303:Drivers/STM32G0xx_HAL_Driver/Inc/stm32g0xx_ll_tim.h **** #if defined(COMP3)
1304:Drivers/STM32G0xx_HAL_Driver/Inc/stm32g0xx_ll_tim.h **** #define LL_TIM_TIM3_TI3_RMP_COMP3  TIM_TISEL_TI3SEL_0                                /*!< TIM3 inpu
1305:Drivers/STM32G0xx_HAL_Driver/Inc/stm32g0xx_ll_tim.h **** #endif /* COMP3 */
1306:Drivers/STM32G0xx_HAL_Driver/Inc/stm32g0xx_ll_tim.h **** /**
1307:Drivers/STM32G0xx_HAL_Driver/Inc/stm32g0xx_ll_tim.h ****   * @}
1308:Drivers/STM32G0xx_HAL_Driver/Inc/stm32g0xx_ll_tim.h ****   */
1309:Drivers/STM32G0xx_HAL_Driver/Inc/stm32g0xx_ll_tim.h **** 
1310:Drivers/STM32G0xx_HAL_Driver/Inc/stm32g0xx_ll_tim.h **** #if defined(TIM4)
1311:Drivers/STM32G0xx_HAL_Driver/Inc/stm32g0xx_ll_tim.h **** /** @defgroup TIM_LL_EC_TIM4_TI1_RMP  TIM4 Timer Input Ch1 Remap
1312:Drivers/STM32G0xx_HAL_Driver/Inc/stm32g0xx_ll_tim.h ****   * @{
1313:Drivers/STM32G0xx_HAL_Driver/Inc/stm32g0xx_ll_tim.h ****   */
1314:Drivers/STM32G0xx_HAL_Driver/Inc/stm32g0xx_ll_tim.h **** #define LL_TIM_TIM4_TI1_RMP_GPIO   0x00000000U                                       /*!< TIM4 inpu
1315:Drivers/STM32G0xx_HAL_Driver/Inc/stm32g0xx_ll_tim.h **** #if defined(COMP1)
1316:Drivers/STM32G0xx_HAL_Driver/Inc/stm32g0xx_ll_tim.h **** #define LL_TIM_TIM4_TI1_RMP_COMP1  TIM_TISEL_TI1SEL_0                                /*!< TIM4 inpu
1317:Drivers/STM32G0xx_HAL_Driver/Inc/stm32g0xx_ll_tim.h **** #endif /* COMP1 */
1318:Drivers/STM32G0xx_HAL_Driver/Inc/stm32g0xx_ll_tim.h **** /**
1319:Drivers/STM32G0xx_HAL_Driver/Inc/stm32g0xx_ll_tim.h ****   * @}
1320:Drivers/STM32G0xx_HAL_Driver/Inc/stm32g0xx_ll_tim.h ****   */
1321:Drivers/STM32G0xx_HAL_Driver/Inc/stm32g0xx_ll_tim.h **** 
1322:Drivers/STM32G0xx_HAL_Driver/Inc/stm32g0xx_ll_tim.h **** /** @defgroup TIM_LL_EC_TIM4_TI2_RMP  TIM4 Timer Input Ch2 Remap
1323:Drivers/STM32G0xx_HAL_Driver/Inc/stm32g0xx_ll_tim.h ****   * @{
ARM GAS  /tmp/ccjNLvMu.s 			page 42


1324:Drivers/STM32G0xx_HAL_Driver/Inc/stm32g0xx_ll_tim.h ****   */
1325:Drivers/STM32G0xx_HAL_Driver/Inc/stm32g0xx_ll_tim.h **** #define LL_TIM_TIM4_TI2_RMP_GPIO   0x00000000U                                       /*!< TIM4 inpu
1326:Drivers/STM32G0xx_HAL_Driver/Inc/stm32g0xx_ll_tim.h **** #if defined(COMP2)
1327:Drivers/STM32G0xx_HAL_Driver/Inc/stm32g0xx_ll_tim.h **** #define LL_TIM_TIM4_TI2_RMP_COMP2  TIM_TISEL_TI2SEL_0                                /*!< TIM4 inpu
1328:Drivers/STM32G0xx_HAL_Driver/Inc/stm32g0xx_ll_tim.h **** #endif /* COMP2 */
1329:Drivers/STM32G0xx_HAL_Driver/Inc/stm32g0xx_ll_tim.h **** /**
1330:Drivers/STM32G0xx_HAL_Driver/Inc/stm32g0xx_ll_tim.h ****   * @}
1331:Drivers/STM32G0xx_HAL_Driver/Inc/stm32g0xx_ll_tim.h ****   */
1332:Drivers/STM32G0xx_HAL_Driver/Inc/stm32g0xx_ll_tim.h **** 
1333:Drivers/STM32G0xx_HAL_Driver/Inc/stm32g0xx_ll_tim.h **** /** @defgroup TIM_LL_EC_TIM4_TI3_RMP  TIM4 Timer Input Ch3 Remap
1334:Drivers/STM32G0xx_HAL_Driver/Inc/stm32g0xx_ll_tim.h ****   * @{
1335:Drivers/STM32G0xx_HAL_Driver/Inc/stm32g0xx_ll_tim.h ****   */
1336:Drivers/STM32G0xx_HAL_Driver/Inc/stm32g0xx_ll_tim.h **** #define LL_TIM_TIM4_TI3_RMP_GPIO   0x00000000U                                       /*!< TIM4 inpu
1337:Drivers/STM32G0xx_HAL_Driver/Inc/stm32g0xx_ll_tim.h **** #if defined(COMP3)
1338:Drivers/STM32G0xx_HAL_Driver/Inc/stm32g0xx_ll_tim.h **** #define LL_TIM_TIM4_TI3_RMP_COMP3  TIM_TISEL_TI3SEL_0                                /*!< TIM4 inpu
1339:Drivers/STM32G0xx_HAL_Driver/Inc/stm32g0xx_ll_tim.h **** #endif /* COMP3 */
1340:Drivers/STM32G0xx_HAL_Driver/Inc/stm32g0xx_ll_tim.h **** /**
1341:Drivers/STM32G0xx_HAL_Driver/Inc/stm32g0xx_ll_tim.h ****   * @}
1342:Drivers/STM32G0xx_HAL_Driver/Inc/stm32g0xx_ll_tim.h ****   */
1343:Drivers/STM32G0xx_HAL_Driver/Inc/stm32g0xx_ll_tim.h **** #endif /* TIM4 */
1344:Drivers/STM32G0xx_HAL_Driver/Inc/stm32g0xx_ll_tim.h **** 
1345:Drivers/STM32G0xx_HAL_Driver/Inc/stm32g0xx_ll_tim.h **** /** @defgroup TIM_LL_EC_TIM14_TI1_RMP  TIM14 Timer Input Ch1 Remap
1346:Drivers/STM32G0xx_HAL_Driver/Inc/stm32g0xx_ll_tim.h ****   * @{
1347:Drivers/STM32G0xx_HAL_Driver/Inc/stm32g0xx_ll_tim.h ****   */
1348:Drivers/STM32G0xx_HAL_Driver/Inc/stm32g0xx_ll_tim.h **** #define LL_TIM_TIM14_TI1_RMP_GPIO     0x00000000U                                    /*!< TIM14 inp
1349:Drivers/STM32G0xx_HAL_Driver/Inc/stm32g0xx_ll_tim.h **** #define LL_TIM_TIM14_TI1_RMP_RTC_CLK  TIM_TISEL_TI1SEL_0                             /*!< TIM14 inp
1350:Drivers/STM32G0xx_HAL_Driver/Inc/stm32g0xx_ll_tim.h **** #define LL_TIM_TIM14_TI1_RMP_HSE_32   TIM_TISEL_TI1SEL_1                             /*!< TIM14 inp
1351:Drivers/STM32G0xx_HAL_Driver/Inc/stm32g0xx_ll_tim.h **** #define LL_TIM_TIM14_TI1_RMP_MCO     (TIM_TISEL_TI1SEL_0  | TIM_TISEL_TI1SEL_1)     /*!< TIM14 inpu
1352:Drivers/STM32G0xx_HAL_Driver/Inc/stm32g0xx_ll_tim.h **** #define LL_TIM_TIM14_TI1_RMP_MCO2    TIM_TISEL_TI1SEL_2                             /*!< TIM14 inpu
1353:Drivers/STM32G0xx_HAL_Driver/Inc/stm32g0xx_ll_tim.h **** /**
1354:Drivers/STM32G0xx_HAL_Driver/Inc/stm32g0xx_ll_tim.h ****   * @}
1355:Drivers/STM32G0xx_HAL_Driver/Inc/stm32g0xx_ll_tim.h ****   */
1356:Drivers/STM32G0xx_HAL_Driver/Inc/stm32g0xx_ll_tim.h **** 
1357:Drivers/STM32G0xx_HAL_Driver/Inc/stm32g0xx_ll_tim.h **** /** @defgroup TIM_LL_EC_TIM15_TI1_RMP  TIM15 Timer Input Ch1 Remap
1358:Drivers/STM32G0xx_HAL_Driver/Inc/stm32g0xx_ll_tim.h ****   * @{
1359:Drivers/STM32G0xx_HAL_Driver/Inc/stm32g0xx_ll_tim.h ****   */
1360:Drivers/STM32G0xx_HAL_Driver/Inc/stm32g0xx_ll_tim.h **** #if defined(TIM15)
1361:Drivers/STM32G0xx_HAL_Driver/Inc/stm32g0xx_ll_tim.h **** #define LL_TIM_TIM15_TI1_RMP_GPIO     0x00000000U                                    /*!< TIM15 inp
1362:Drivers/STM32G0xx_HAL_Driver/Inc/stm32g0xx_ll_tim.h **** #if defined(TIM2)
1363:Drivers/STM32G0xx_HAL_Driver/Inc/stm32g0xx_ll_tim.h **** #define LL_TIM_TIM15_TI1_RMP_TIM2_IC1 TIM_TISEL_TI1SEL_0                             /*!< TIM15 inp
1364:Drivers/STM32G0xx_HAL_Driver/Inc/stm32g0xx_ll_tim.h **** #endif /* TIM2 */
1365:Drivers/STM32G0xx_HAL_Driver/Inc/stm32g0xx_ll_tim.h **** #if defined(TIM3)
1366:Drivers/STM32G0xx_HAL_Driver/Inc/stm32g0xx_ll_tim.h **** #define LL_TIM_TIM15_TI1_RMP_TIM3_IC1 TIM_TISEL_TI1SEL_1                             /*!< TIM15 inp
1367:Drivers/STM32G0xx_HAL_Driver/Inc/stm32g0xx_ll_tim.h **** #endif /* TIM3 */
1368:Drivers/STM32G0xx_HAL_Driver/Inc/stm32g0xx_ll_tim.h **** #endif /* TIM15 */
1369:Drivers/STM32G0xx_HAL_Driver/Inc/stm32g0xx_ll_tim.h **** /**
1370:Drivers/STM32G0xx_HAL_Driver/Inc/stm32g0xx_ll_tim.h ****   * @}
1371:Drivers/STM32G0xx_HAL_Driver/Inc/stm32g0xx_ll_tim.h ****   */
1372:Drivers/STM32G0xx_HAL_Driver/Inc/stm32g0xx_ll_tim.h **** 
1373:Drivers/STM32G0xx_HAL_Driver/Inc/stm32g0xx_ll_tim.h **** /** @defgroup TIM_LL_EC_TIM15_TI2_RMP  TIM15 Timer Input Ch2 Remap
1374:Drivers/STM32G0xx_HAL_Driver/Inc/stm32g0xx_ll_tim.h ****   * @{
1375:Drivers/STM32G0xx_HAL_Driver/Inc/stm32g0xx_ll_tim.h ****   */
1376:Drivers/STM32G0xx_HAL_Driver/Inc/stm32g0xx_ll_tim.h **** #if defined(TIM15)
1377:Drivers/STM32G0xx_HAL_Driver/Inc/stm32g0xx_ll_tim.h **** #define LL_TIM_TIM15_TI2_RMP_GPIO     0x00000000U                                    /*!< TIM15 inp
1378:Drivers/STM32G0xx_HAL_Driver/Inc/stm32g0xx_ll_tim.h **** #if defined(TIM2)
1379:Drivers/STM32G0xx_HAL_Driver/Inc/stm32g0xx_ll_tim.h **** #define LL_TIM_TIM15_TI2_RMP_TIM2_IC2 TIM_TISEL_TI2SEL_0                             /*!< TIM15 inp
1380:Drivers/STM32G0xx_HAL_Driver/Inc/stm32g0xx_ll_tim.h **** #endif /* TIM2 */
ARM GAS  /tmp/ccjNLvMu.s 			page 43


1381:Drivers/STM32G0xx_HAL_Driver/Inc/stm32g0xx_ll_tim.h **** #if defined(TIM3)
1382:Drivers/STM32G0xx_HAL_Driver/Inc/stm32g0xx_ll_tim.h **** #define LL_TIM_TIM15_TI2_RMP_TIM3_IC2 TIM_TISEL_TI1SEL_1                             /*!< TIM15 inp
1383:Drivers/STM32G0xx_HAL_Driver/Inc/stm32g0xx_ll_tim.h **** #endif /* TIM3 */
1384:Drivers/STM32G0xx_HAL_Driver/Inc/stm32g0xx_ll_tim.h **** #endif /* TIM15 */
1385:Drivers/STM32G0xx_HAL_Driver/Inc/stm32g0xx_ll_tim.h **** /**
1386:Drivers/STM32G0xx_HAL_Driver/Inc/stm32g0xx_ll_tim.h ****   * @}
1387:Drivers/STM32G0xx_HAL_Driver/Inc/stm32g0xx_ll_tim.h ****   */
1388:Drivers/STM32G0xx_HAL_Driver/Inc/stm32g0xx_ll_tim.h **** 
1389:Drivers/STM32G0xx_HAL_Driver/Inc/stm32g0xx_ll_tim.h **** /** @defgroup TIM_LL_EC_TIM16_TI1_RMP  TIM16 Timer Input Ch1 Remap
1390:Drivers/STM32G0xx_HAL_Driver/Inc/stm32g0xx_ll_tim.h ****   * @{
1391:Drivers/STM32G0xx_HAL_Driver/Inc/stm32g0xx_ll_tim.h ****   */
1392:Drivers/STM32G0xx_HAL_Driver/Inc/stm32g0xx_ll_tim.h **** #define LL_TIM_TIM16_TI1_RMP_GPIO    0x00000000U                                     /*!< TIM16 inp
1393:Drivers/STM32G0xx_HAL_Driver/Inc/stm32g0xx_ll_tim.h **** #define LL_TIM_TIM16_TI1_RMP_LSI     TIM_TISEL_TI1SEL_0                              /*!< TIM16 inp
1394:Drivers/STM32G0xx_HAL_Driver/Inc/stm32g0xx_ll_tim.h **** #define LL_TIM_TIM16_TI1_RMP_LSE     TIM_TISEL_TI1SEL_1                              /*!< TIM16 inp
1395:Drivers/STM32G0xx_HAL_Driver/Inc/stm32g0xx_ll_tim.h **** #define LL_TIM_TIM16_TI1_RMP_RTC_WK  (TIM_TISEL_TI1SEL_0 | TIM_TISEL_TI1SEL_1)       /*!< TIM16 inp
1396:Drivers/STM32G0xx_HAL_Driver/Inc/stm32g0xx_ll_tim.h **** #define LL_TIM_TIM16_TI1_RMP_MCO2    TIM_TISEL_TI1SEL_2                              /*!< TIM16 inp
1397:Drivers/STM32G0xx_HAL_Driver/Inc/stm32g0xx_ll_tim.h **** /**
1398:Drivers/STM32G0xx_HAL_Driver/Inc/stm32g0xx_ll_tim.h ****   * @}
1399:Drivers/STM32G0xx_HAL_Driver/Inc/stm32g0xx_ll_tim.h ****   */
1400:Drivers/STM32G0xx_HAL_Driver/Inc/stm32g0xx_ll_tim.h **** 
1401:Drivers/STM32G0xx_HAL_Driver/Inc/stm32g0xx_ll_tim.h **** /** @defgroup TIM_LL_EC_TIM17_TI1_RMP  TIM17 Timer Input Ch1 Remap
1402:Drivers/STM32G0xx_HAL_Driver/Inc/stm32g0xx_ll_tim.h ****   * @{
1403:Drivers/STM32G0xx_HAL_Driver/Inc/stm32g0xx_ll_tim.h ****   */
1404:Drivers/STM32G0xx_HAL_Driver/Inc/stm32g0xx_ll_tim.h **** #define LL_TIM_TIM17_TI1_RMP_GPIO    0x00000000U                                     /*!< TIM17 inp
1405:Drivers/STM32G0xx_HAL_Driver/Inc/stm32g0xx_ll_tim.h **** #define LL_TIM_TIM17_TI1_RMP_HSI48   TIM_TISEL_TI1SEL_0                              /*!< TIM17 inp
1406:Drivers/STM32G0xx_HAL_Driver/Inc/stm32g0xx_ll_tim.h **** #define LL_TIM_TIM17_TI1_RMP_HSE_32  TIM_TISEL_TI1SEL_1                              /*!< TIM17 inp
1407:Drivers/STM32G0xx_HAL_Driver/Inc/stm32g0xx_ll_tim.h **** #define LL_TIM_TIM17_TI1_RMP_MCO    (TIM_TISEL_TI1SEL_0 | TIM_TISEL_TI1SEL_1)        /*!< TIM17 inp
