ARM GAS  /tmp/ccXPwwLX.s 			page 1


   1              		.cpu cortex-m0plus
   2              		.arch armv6s-m
   3              		.fpu softvfp
   4              		.eabi_attribute 20, 1
   5              		.eabi_attribute 21, 1
   6              		.eabi_attribute 23, 3
   7              		.eabi_attribute 24, 1
   8              		.eabi_attribute 25, 1
   9              		.eabi_attribute 26, 1
  10              		.eabi_attribute 30, 1
  11              		.eabi_attribute 34, 0
  12              		.eabi_attribute 18, 4
  13              		.file	"stm32g0xx_ll_exti.c"
  14              		.text
  15              	.Ltext0:
  16              		.cfi_sections	.debug_frame
  17              		.file 1 "Drivers/STM32G0xx_HAL_Driver/Src/stm32g0xx_ll_exti.c"
  18              		.section	.text.LL_EXTI_DeInit,"ax",%progbits
  19              		.align	1
  20              		.global	LL_EXTI_DeInit
  21              		.syntax unified
  22              		.code	16
  23              		.thumb_func
  25              	LL_EXTI_DeInit:
  26              	.LFB89:
   1:Drivers/STM32G0xx_HAL_Driver/Src/stm32g0xx_ll_exti.c **** /**
   2:Drivers/STM32G0xx_HAL_Driver/Src/stm32g0xx_ll_exti.c ****   ******************************************************************************
   3:Drivers/STM32G0xx_HAL_Driver/Src/stm32g0xx_ll_exti.c ****   * @file    stm32g0xx_ll_exti.c
   4:Drivers/STM32G0xx_HAL_Driver/Src/stm32g0xx_ll_exti.c ****   * @author  MCD Application Team
   5:Drivers/STM32G0xx_HAL_Driver/Src/stm32g0xx_ll_exti.c ****   * @brief   EXTI LL module driver.
   6:Drivers/STM32G0xx_HAL_Driver/Src/stm32g0xx_ll_exti.c ****   ******************************************************************************
   7:Drivers/STM32G0xx_HAL_Driver/Src/stm32g0xx_ll_exti.c ****   * @attention
   8:Drivers/STM32G0xx_HAL_Driver/Src/stm32g0xx_ll_exti.c ****   *
   9:Drivers/STM32G0xx_HAL_Driver/Src/stm32g0xx_ll_exti.c ****   * Copyright (c) 2018 STMicroelectronics.
  10:Drivers/STM32G0xx_HAL_Driver/Src/stm32g0xx_ll_exti.c ****   * All rights reserved.
  11:Drivers/STM32G0xx_HAL_Driver/Src/stm32g0xx_ll_exti.c ****   *
  12:Drivers/STM32G0xx_HAL_Driver/Src/stm32g0xx_ll_exti.c ****   * This software is licensed under terms that can be found in the LICENSE file
  13:Drivers/STM32G0xx_HAL_Driver/Src/stm32g0xx_ll_exti.c ****   * in the root directory of this software component.
  14:Drivers/STM32G0xx_HAL_Driver/Src/stm32g0xx_ll_exti.c ****   * If no LICENSE file comes with this software, it is provided AS-IS.
  15:Drivers/STM32G0xx_HAL_Driver/Src/stm32g0xx_ll_exti.c ****   *
  16:Drivers/STM32G0xx_HAL_Driver/Src/stm32g0xx_ll_exti.c ****   ******************************************************************************
  17:Drivers/STM32G0xx_HAL_Driver/Src/stm32g0xx_ll_exti.c ****   */
  18:Drivers/STM32G0xx_HAL_Driver/Src/stm32g0xx_ll_exti.c **** #if defined(USE_FULL_LL_DRIVER)
  19:Drivers/STM32G0xx_HAL_Driver/Src/stm32g0xx_ll_exti.c **** 
  20:Drivers/STM32G0xx_HAL_Driver/Src/stm32g0xx_ll_exti.c **** /* Includes ------------------------------------------------------------------*/
  21:Drivers/STM32G0xx_HAL_Driver/Src/stm32g0xx_ll_exti.c **** #include "stm32g0xx_ll_exti.h"
  22:Drivers/STM32G0xx_HAL_Driver/Src/stm32g0xx_ll_exti.c **** #ifdef  USE_FULL_ASSERT
  23:Drivers/STM32G0xx_HAL_Driver/Src/stm32g0xx_ll_exti.c **** #include "stm32_assert.h"
  24:Drivers/STM32G0xx_HAL_Driver/Src/stm32g0xx_ll_exti.c **** #else
  25:Drivers/STM32G0xx_HAL_Driver/Src/stm32g0xx_ll_exti.c **** #define assert_param(expr) ((void)0U)
  26:Drivers/STM32G0xx_HAL_Driver/Src/stm32g0xx_ll_exti.c **** #endif /* USE_FULL_ASSERT */
  27:Drivers/STM32G0xx_HAL_Driver/Src/stm32g0xx_ll_exti.c **** 
  28:Drivers/STM32G0xx_HAL_Driver/Src/stm32g0xx_ll_exti.c **** /** @addtogroup STM32G0xx_LL_Driver
  29:Drivers/STM32G0xx_HAL_Driver/Src/stm32g0xx_ll_exti.c ****   * @{
  30:Drivers/STM32G0xx_HAL_Driver/Src/stm32g0xx_ll_exti.c ****   */
  31:Drivers/STM32G0xx_HAL_Driver/Src/stm32g0xx_ll_exti.c **** 
  32:Drivers/STM32G0xx_HAL_Driver/Src/stm32g0xx_ll_exti.c **** #if defined (EXTI)
ARM GAS  /tmp/ccXPwwLX.s 			page 2


  33:Drivers/STM32G0xx_HAL_Driver/Src/stm32g0xx_ll_exti.c **** 
  34:Drivers/STM32G0xx_HAL_Driver/Src/stm32g0xx_ll_exti.c **** /** @defgroup EXTI_LL EXTI
  35:Drivers/STM32G0xx_HAL_Driver/Src/stm32g0xx_ll_exti.c ****   * @{
  36:Drivers/STM32G0xx_HAL_Driver/Src/stm32g0xx_ll_exti.c ****   */
  37:Drivers/STM32G0xx_HAL_Driver/Src/stm32g0xx_ll_exti.c **** 
  38:Drivers/STM32G0xx_HAL_Driver/Src/stm32g0xx_ll_exti.c **** /* Private types -------------------------------------------------------------*/
  39:Drivers/STM32G0xx_HAL_Driver/Src/stm32g0xx_ll_exti.c **** /* Private variables ---------------------------------------------------------*/
  40:Drivers/STM32G0xx_HAL_Driver/Src/stm32g0xx_ll_exti.c **** /* Private constants ---------------------------------------------------------*/
  41:Drivers/STM32G0xx_HAL_Driver/Src/stm32g0xx_ll_exti.c **** /* Private macros ------------------------------------------------------------*/
  42:Drivers/STM32G0xx_HAL_Driver/Src/stm32g0xx_ll_exti.c **** /** @addtogroup EXTI_LL_Private_Macros
  43:Drivers/STM32G0xx_HAL_Driver/Src/stm32g0xx_ll_exti.c ****   * @{
  44:Drivers/STM32G0xx_HAL_Driver/Src/stm32g0xx_ll_exti.c ****   */
  45:Drivers/STM32G0xx_HAL_Driver/Src/stm32g0xx_ll_exti.c **** 
  46:Drivers/STM32G0xx_HAL_Driver/Src/stm32g0xx_ll_exti.c **** #define IS_LL_EXTI_LINE_0_31(__VALUE__)              (((__VALUE__) & ~LL_EXTI_LINE_ALL_0_31) == 0x0
  47:Drivers/STM32G0xx_HAL_Driver/Src/stm32g0xx_ll_exti.c **** #if defined(STM32G081xx) || defined(STM32G071xx) || defined(STM32G0C1xx) || defined(STM32G0B1xx) ||
  48:Drivers/STM32G0xx_HAL_Driver/Src/stm32g0xx_ll_exti.c **** #define IS_LL_EXTI_LINE_32_63(__VALUE__)             (((__VALUE__) & ~LL_EXTI_LINE_ALL_32_63) == 0x
  49:Drivers/STM32G0xx_HAL_Driver/Src/stm32g0xx_ll_exti.c **** #endif /* STM32G081xx || STM32G071xx || STM32G0C1xx || STM32G0B1xx || STM32G0B0xx */
  50:Drivers/STM32G0xx_HAL_Driver/Src/stm32g0xx_ll_exti.c **** #define IS_LL_EXTI_MODE(__VALUE__)                   (((__VALUE__) == LL_EXTI_MODE_IT)            \
  51:Drivers/STM32G0xx_HAL_Driver/Src/stm32g0xx_ll_exti.c ****                                                    || ((__VALUE__) == LL_EXTI_MODE_EVENT)         \
  52:Drivers/STM32G0xx_HAL_Driver/Src/stm32g0xx_ll_exti.c ****                                                    || ((__VALUE__) == LL_EXTI_MODE_IT_EVENT))
  53:Drivers/STM32G0xx_HAL_Driver/Src/stm32g0xx_ll_exti.c **** 
  54:Drivers/STM32G0xx_HAL_Driver/Src/stm32g0xx_ll_exti.c **** 
  55:Drivers/STM32G0xx_HAL_Driver/Src/stm32g0xx_ll_exti.c **** #define IS_LL_EXTI_TRIGGER(__VALUE__)                (((__VALUE__) == LL_EXTI_TRIGGER_NONE)       \
  56:Drivers/STM32G0xx_HAL_Driver/Src/stm32g0xx_ll_exti.c ****                                                    || ((__VALUE__) == LL_EXTI_TRIGGER_RISING)     \
  57:Drivers/STM32G0xx_HAL_Driver/Src/stm32g0xx_ll_exti.c ****                                                    || ((__VALUE__) == LL_EXTI_TRIGGER_FALLING)    \
  58:Drivers/STM32G0xx_HAL_Driver/Src/stm32g0xx_ll_exti.c ****                                                    || ((__VALUE__) == LL_EXTI_TRIGGER_RISING_FALLIN
  59:Drivers/STM32G0xx_HAL_Driver/Src/stm32g0xx_ll_exti.c **** 
  60:Drivers/STM32G0xx_HAL_Driver/Src/stm32g0xx_ll_exti.c **** /**
  61:Drivers/STM32G0xx_HAL_Driver/Src/stm32g0xx_ll_exti.c ****   * @}
  62:Drivers/STM32G0xx_HAL_Driver/Src/stm32g0xx_ll_exti.c ****   */
  63:Drivers/STM32G0xx_HAL_Driver/Src/stm32g0xx_ll_exti.c **** 
  64:Drivers/STM32G0xx_HAL_Driver/Src/stm32g0xx_ll_exti.c **** /* Private function prototypes -----------------------------------------------*/
  65:Drivers/STM32G0xx_HAL_Driver/Src/stm32g0xx_ll_exti.c **** 
  66:Drivers/STM32G0xx_HAL_Driver/Src/stm32g0xx_ll_exti.c **** /* Exported functions --------------------------------------------------------*/
  67:Drivers/STM32G0xx_HAL_Driver/Src/stm32g0xx_ll_exti.c **** /** @addtogroup EXTI_LL_Exported_Functions
  68:Drivers/STM32G0xx_HAL_Driver/Src/stm32g0xx_ll_exti.c ****   * @{
  69:Drivers/STM32G0xx_HAL_Driver/Src/stm32g0xx_ll_exti.c ****   */
  70:Drivers/STM32G0xx_HAL_Driver/Src/stm32g0xx_ll_exti.c **** 
  71:Drivers/STM32G0xx_HAL_Driver/Src/stm32g0xx_ll_exti.c **** /** @addtogroup EXTI_LL_EF_Init
  72:Drivers/STM32G0xx_HAL_Driver/Src/stm32g0xx_ll_exti.c ****   * @{
  73:Drivers/STM32G0xx_HAL_Driver/Src/stm32g0xx_ll_exti.c ****   */
  74:Drivers/STM32G0xx_HAL_Driver/Src/stm32g0xx_ll_exti.c **** 
  75:Drivers/STM32G0xx_HAL_Driver/Src/stm32g0xx_ll_exti.c **** /**
  76:Drivers/STM32G0xx_HAL_Driver/Src/stm32g0xx_ll_exti.c ****   * @brief  De-initialize the EXTI registers to their default reset values.
  77:Drivers/STM32G0xx_HAL_Driver/Src/stm32g0xx_ll_exti.c ****   * @retval An ErrorStatus enumeration value:
  78:Drivers/STM32G0xx_HAL_Driver/Src/stm32g0xx_ll_exti.c ****   *          - 0x00: EXTI registers are de-initialized
  79:Drivers/STM32G0xx_HAL_Driver/Src/stm32g0xx_ll_exti.c ****   */
  80:Drivers/STM32G0xx_HAL_Driver/Src/stm32g0xx_ll_exti.c **** uint32_t LL_EXTI_DeInit(void)
  81:Drivers/STM32G0xx_HAL_Driver/Src/stm32g0xx_ll_exti.c **** {
  27              		.loc 1 81 1 view -0
  28              		.cfi_startproc
  29              		@ args = 0, pretend = 0, frame = 0
  30              		@ frame_needed = 0, uses_anonymous_args = 0
  31              		@ link register save eliminated.
  82:Drivers/STM32G0xx_HAL_Driver/Src/stm32g0xx_ll_exti.c ****   /* Interrupt mask register set to default reset values */
  83:Drivers/STM32G0xx_HAL_Driver/Src/stm32g0xx_ll_exti.c ****   LL_EXTI_WriteReg(IMR1,   0xFFF80000U);
  32              		.loc 1 83 3 view .LVU1
ARM GAS  /tmp/ccXPwwLX.s 			page 3


  33 0000 0C4B     		ldr	r3, .L2
  34 0002 8022     		movs	r2, #128
  35 0004 0C49     		ldr	r1, .L2+4
  36 0006 9950     		str	r1, [r3, r2]
  84:Drivers/STM32G0xx_HAL_Driver/Src/stm32g0xx_ll_exti.c ****   /* Event mask register set to default reset values */
  85:Drivers/STM32G0xx_HAL_Driver/Src/stm32g0xx_ll_exti.c ****   LL_EXTI_WriteReg(EMR1,   0x00000000U);
  37              		.loc 1 85 3 view .LVU2
  38 0008 0022     		movs	r2, #0
  39 000a 8421     		movs	r1, #132
  40 000c 5A50     		str	r2, [r3, r1]
  86:Drivers/STM32G0xx_HAL_Driver/Src/stm32g0xx_ll_exti.c ****   /* Rising Trigger selection register set to default reset values */
  87:Drivers/STM32G0xx_HAL_Driver/Src/stm32g0xx_ll_exti.c ****   LL_EXTI_WriteReg(RTSR1,  0x00000000U);
  41              		.loc 1 87 3 view .LVU3
  42 000e 1A60     		str	r2, [r3]
  88:Drivers/STM32G0xx_HAL_Driver/Src/stm32g0xx_ll_exti.c ****   /* Falling Trigger selection register set to default reset values */
  89:Drivers/STM32G0xx_HAL_Driver/Src/stm32g0xx_ll_exti.c ****   LL_EXTI_WriteReg(FTSR1,  0x00000000U);
  43              		.loc 1 89 3 view .LVU4
  44 0010 5A60     		str	r2, [r3, #4]
  90:Drivers/STM32G0xx_HAL_Driver/Src/stm32g0xx_ll_exti.c ****   /* Software interrupt event register set to default reset values */
  91:Drivers/STM32G0xx_HAL_Driver/Src/stm32g0xx_ll_exti.c ****   LL_EXTI_WriteReg(SWIER1, 0x00000000U);
  45              		.loc 1 91 3 view .LVU5
  46 0012 9A60     		str	r2, [r3, #8]
  92:Drivers/STM32G0xx_HAL_Driver/Src/stm32g0xx_ll_exti.c ****   /* Pending register set to default reset values */
  93:Drivers/STM32G0xx_HAL_Driver/Src/stm32g0xx_ll_exti.c **** #if defined(STM32G0C1xx) || defined(STM32G0B1xx)
  94:Drivers/STM32G0xx_HAL_Driver/Src/stm32g0xx_ll_exti.c ****   LL_EXTI_WriteReg(RPR1,    0x0017FFFFU);
  47              		.loc 1 94 3 view .LVU6
  48 0014 0949     		ldr	r1, .L2+8
  49 0016 D960     		str	r1, [r3, #12]
  95:Drivers/STM32G0xx_HAL_Driver/Src/stm32g0xx_ll_exti.c ****   LL_EXTI_WriteReg(FPR1,    0x0017FFFFU);
  50              		.loc 1 95 3 view .LVU7
  51 0018 1961     		str	r1, [r3, #16]
  96:Drivers/STM32G0xx_HAL_Driver/Src/stm32g0xx_ll_exti.c **** #elif defined(STM32G081xx) || defined(STM32G071xx) || defined(STM32G061xx) || defined(STM32G051xx)
  97:Drivers/STM32G0xx_HAL_Driver/Src/stm32g0xx_ll_exti.c ****   LL_EXTI_WriteReg(RPR1,    0x0007FFFFU);
  98:Drivers/STM32G0xx_HAL_Driver/Src/stm32g0xx_ll_exti.c ****   LL_EXTI_WriteReg(FPR1,    0x0007FFFFU);
  99:Drivers/STM32G0xx_HAL_Driver/Src/stm32g0xx_ll_exti.c **** #elif defined(STM32G041xx) || defined(STM32G031xx)
 100:Drivers/STM32G0xx_HAL_Driver/Src/stm32g0xx_ll_exti.c ****   LL_EXTI_WriteReg(RPR1,    0x0001FFFFU);
 101:Drivers/STM32G0xx_HAL_Driver/Src/stm32g0xx_ll_exti.c ****   LL_EXTI_WriteReg(FPR1,    0x0001FFFFU);
 102:Drivers/STM32G0xx_HAL_Driver/Src/stm32g0xx_ll_exti.c **** #elif defined(STM32G0B0xx) || defined(STM32G070xx) || defined(STM32G050xx) || defined(STM32G030xx)
 103:Drivers/STM32G0xx_HAL_Driver/Src/stm32g0xx_ll_exti.c ****   LL_EXTI_WriteReg(RPR1,    0x0000FFFFU);
 104:Drivers/STM32G0xx_HAL_Driver/Src/stm32g0xx_ll_exti.c ****   LL_EXTI_WriteReg(FPR1,    0x0000FFFFU);
 105:Drivers/STM32G0xx_HAL_Driver/Src/stm32g0xx_ll_exti.c **** #endif /* STM32G0C1xx || STM32G0B1xx */
 106:Drivers/STM32G0xx_HAL_Driver/Src/stm32g0xx_ll_exti.c **** 
 107:Drivers/STM32G0xx_HAL_Driver/Src/stm32g0xx_ll_exti.c **** #if defined(STM32G081xx) || defined(STM32G071xx)
 108:Drivers/STM32G0xx_HAL_Driver/Src/stm32g0xx_ll_exti.c ****   /* Interrupt mask register 2 set to default reset values */
 109:Drivers/STM32G0xx_HAL_Driver/Src/stm32g0xx_ll_exti.c ****   LL_EXTI_WriteReg(IMR2, 0x00000003U);
 110:Drivers/STM32G0xx_HAL_Driver/Src/stm32g0xx_ll_exti.c ****   /* Event mask register 2 set to default reset values */
 111:Drivers/STM32G0xx_HAL_Driver/Src/stm32g0xx_ll_exti.c ****   LL_EXTI_WriteReg(EMR2, 0x00000000U);
 112:Drivers/STM32G0xx_HAL_Driver/Src/stm32g0xx_ll_exti.c **** #elif defined(STM32G0C1xx) || defined(STM32G0B1xx)
 113:Drivers/STM32G0xx_HAL_Driver/Src/stm32g0xx_ll_exti.c ****   /* Interrupt mask register 2 set to default reset values */
 114:Drivers/STM32G0xx_HAL_Driver/Src/stm32g0xx_ll_exti.c ****   LL_EXTI_WriteReg(IMR2, 0x0000001FU);
  52              		.loc 1 114 3 view .LVU8
  53 001a 9021     		movs	r1, #144
  54 001c 1F20     		movs	r0, #31
  55 001e 5850     		str	r0, [r3, r1]
 115:Drivers/STM32G0xx_HAL_Driver/Src/stm32g0xx_ll_exti.c ****   /* Event mask register 2 set to default reset values */
 116:Drivers/STM32G0xx_HAL_Driver/Src/stm32g0xx_ll_exti.c ****   LL_EXTI_WriteReg(EMR2, 0x00000000U);
  56              		.loc 1 116 3 view .LVU9
ARM GAS  /tmp/ccXPwwLX.s 			page 4


  57 0020 0431     		adds	r1, r1, #4
  58 0022 5A50     		str	r2, [r3, r1]
 117:Drivers/STM32G0xx_HAL_Driver/Src/stm32g0xx_ll_exti.c ****   /* Rising Trigger selection register set to default reset values */
 118:Drivers/STM32G0xx_HAL_Driver/Src/stm32g0xx_ll_exti.c ****   LL_EXTI_WriteReg(RTSR2, 0x00000000U);
  59              		.loc 1 118 3 view .LVU10
  60 0024 1A62     		str	r2, [r3, #32]
 119:Drivers/STM32G0xx_HAL_Driver/Src/stm32g0xx_ll_exti.c ****   /* Falling Trigger selection register set to default reset values */
 120:Drivers/STM32G0xx_HAL_Driver/Src/stm32g0xx_ll_exti.c ****   LL_EXTI_WriteReg(FTSR2, 0x00000000U);
  61              		.loc 1 120 3 view .LVU11
  62 0026 5A62     		str	r2, [r3, #36]
 121:Drivers/STM32G0xx_HAL_Driver/Src/stm32g0xx_ll_exti.c ****   /* Software interrupt event register set to default reset values */
 122:Drivers/STM32G0xx_HAL_Driver/Src/stm32g0xx_ll_exti.c ****   LL_EXTI_WriteReg(SWIER2, 0x00000000U);
  63              		.loc 1 122 3 view .LVU12
  64 0028 9A62     		str	r2, [r3, #40]
 123:Drivers/STM32G0xx_HAL_Driver/Src/stm32g0xx_ll_exti.c ****   /* Pending register set to default reset values */
 124:Drivers/STM32G0xx_HAL_Driver/Src/stm32g0xx_ll_exti.c ****   LL_EXTI_WriteReg(RPR2, 0x00000004U);
  65              		.loc 1 124 3 view .LVU13
  66 002a 0432     		adds	r2, r2, #4
  67 002c DA62     		str	r2, [r3, #44]
 125:Drivers/STM32G0xx_HAL_Driver/Src/stm32g0xx_ll_exti.c ****   LL_EXTI_WriteReg(FPR2, 0x00000004U);
  68              		.loc 1 125 3 view .LVU14
  69 002e 1A63     		str	r2, [r3, #48]
 126:Drivers/STM32G0xx_HAL_Driver/Src/stm32g0xx_ll_exti.c **** #elif defined(STM32G0B0xx)
 127:Drivers/STM32G0xx_HAL_Driver/Src/stm32g0xx_ll_exti.c ****   /* Interrupt mask register 2 set to default reset values */
 128:Drivers/STM32G0xx_HAL_Driver/Src/stm32g0xx_ll_exti.c ****   LL_EXTI_WriteReg(IMR2, 0x00000010U);
 129:Drivers/STM32G0xx_HAL_Driver/Src/stm32g0xx_ll_exti.c ****   /* Event mask register 2 set to default reset values */
 130:Drivers/STM32G0xx_HAL_Driver/Src/stm32g0xx_ll_exti.c ****   LL_EXTI_WriteReg(EMR2, 0x00000000U);
 131:Drivers/STM32G0xx_HAL_Driver/Src/stm32g0xx_ll_exti.c **** #endif /* STM32G081xx || STM32G071xx */
 132:Drivers/STM32G0xx_HAL_Driver/Src/stm32g0xx_ll_exti.c **** 
 133:Drivers/STM32G0xx_HAL_Driver/Src/stm32g0xx_ll_exti.c ****   return 0x00u;
  70              		.loc 1 133 3 view .LVU15
 134:Drivers/STM32G0xx_HAL_Driver/Src/stm32g0xx_ll_exti.c **** }
  71              		.loc 1 134 1 is_stmt 0 view .LVU16
  72 0030 0020     		movs	r0, #0
  73              		@ sp needed
  74 0032 7047     		bx	lr
  75              	.L3:
  76              		.align	2
  77              	.L2:
  78 0034 00180240 		.word	1073879040
  79 0038 0000F8FF 		.word	-524288
  80 003c FFFF1700 		.word	1572863
  81              		.cfi_endproc
  82              	.LFE89:
  84              		.section	.text.LL_EXTI_Init,"ax",%progbits
  85              		.align	1
  86              		.global	LL_EXTI_Init
  87              		.syntax unified
  88              		.code	16
  89              		.thumb_func
  91              	LL_EXTI_Init:
  92              	.LVL0:
  93              	.LFB90:
 135:Drivers/STM32G0xx_HAL_Driver/Src/stm32g0xx_ll_exti.c **** 
 136:Drivers/STM32G0xx_HAL_Driver/Src/stm32g0xx_ll_exti.c **** /**
 137:Drivers/STM32G0xx_HAL_Driver/Src/stm32g0xx_ll_exti.c ****   * @brief  Initialize the EXTI registers according to the specified parameters in EXTI_InitStruct.
 138:Drivers/STM32G0xx_HAL_Driver/Src/stm32g0xx_ll_exti.c ****   * @param  EXTI_InitStruct pointer to a @ref LL_EXTI_InitTypeDef structure.
ARM GAS  /tmp/ccXPwwLX.s 			page 5


 139:Drivers/STM32G0xx_HAL_Driver/Src/stm32g0xx_ll_exti.c ****   * @retval An ErrorStatus enumeration value:
 140:Drivers/STM32G0xx_HAL_Driver/Src/stm32g0xx_ll_exti.c ****   *          - 0x00: EXTI registers are initialized
 141:Drivers/STM32G0xx_HAL_Driver/Src/stm32g0xx_ll_exti.c ****   *          - any other value : wrong configuration
 142:Drivers/STM32G0xx_HAL_Driver/Src/stm32g0xx_ll_exti.c ****   */
 143:Drivers/STM32G0xx_HAL_Driver/Src/stm32g0xx_ll_exti.c **** uint32_t LL_EXTI_Init(LL_EXTI_InitTypeDef *EXTI_InitStruct)
 144:Drivers/STM32G0xx_HAL_Driver/Src/stm32g0xx_ll_exti.c **** {
  94              		.loc 1 144 1 is_stmt 1 view -0
  95              		.cfi_startproc
  96              		@ args = 0, pretend = 0, frame = 0
  97              		@ frame_needed = 0, uses_anonymous_args = 0
  98              		.loc 1 144 1 is_stmt 0 view .LVU18
  99 0000 10B5     		push	{r4, lr}
 100              	.LCFI0:
 101              		.cfi_def_cfa_offset 8
 102              		.cfi_offset 4, -8
 103              		.cfi_offset 14, -4
 104 0002 0300     		movs	r3, r0
 145:Drivers/STM32G0xx_HAL_Driver/Src/stm32g0xx_ll_exti.c ****   uint32_t status = 0x00u;
 105              		.loc 1 145 3 is_stmt 1 view .LVU19
 106              	.LVL1:
 146:Drivers/STM32G0xx_HAL_Driver/Src/stm32g0xx_ll_exti.c **** 
 147:Drivers/STM32G0xx_HAL_Driver/Src/stm32g0xx_ll_exti.c ****   /* Check the parameters */
 148:Drivers/STM32G0xx_HAL_Driver/Src/stm32g0xx_ll_exti.c ****   assert_param(IS_LL_EXTI_LINE_0_31(EXTI_InitStruct->Line_0_31));
 107              		.loc 1 148 3 view .LVU20
 149:Drivers/STM32G0xx_HAL_Driver/Src/stm32g0xx_ll_exti.c **** #if defined(STM32G081xx) || defined(STM32G071xx) || defined(STM32G0C1xx) || defined(STM32G0B1xx) ||
 150:Drivers/STM32G0xx_HAL_Driver/Src/stm32g0xx_ll_exti.c ****   assert_param(IS_LL_EXTI_LINE_32_63(EXTI_InitStruct->Line_32_63));
 108              		.loc 1 150 3 view .LVU21
 151:Drivers/STM32G0xx_HAL_Driver/Src/stm32g0xx_ll_exti.c **** #endif /* STM32G081xx || STM32G071xx || STM32G0C1xx || STM32G0B1xx || STM32G0B0xx */
 152:Drivers/STM32G0xx_HAL_Driver/Src/stm32g0xx_ll_exti.c ****   assert_param(IS_FUNCTIONAL_STATE(EXTI_InitStruct->LineCommand));
 109              		.loc 1 152 3 view .LVU22
 153:Drivers/STM32G0xx_HAL_Driver/Src/stm32g0xx_ll_exti.c ****   assert_param(IS_LL_EXTI_MODE(EXTI_InitStruct->Mode));
 110              		.loc 1 153 3 view .LVU23
 154:Drivers/STM32G0xx_HAL_Driver/Src/stm32g0xx_ll_exti.c **** 
 155:Drivers/STM32G0xx_HAL_Driver/Src/stm32g0xx_ll_exti.c ****   /* ENABLE LineCommand */
 156:Drivers/STM32G0xx_HAL_Driver/Src/stm32g0xx_ll_exti.c ****   if (EXTI_InitStruct->LineCommand != DISABLE)
 111              		.loc 1 156 3 view .LVU24
 112              		.loc 1 156 22 is_stmt 0 view .LVU25
 113 0004 027A     		ldrb	r2, [r0, #8]
 114              		.loc 1 156 6 view .LVU26
 115 0006 002A     		cmp	r2, #0
 116 0008 00D1     		bne	.LCB79
 117 000a 98E0     		b	.L5	@long jump
 118              	.LCB79:
 157:Drivers/STM32G0xx_HAL_Driver/Src/stm32g0xx_ll_exti.c ****   {
 158:Drivers/STM32G0xx_HAL_Driver/Src/stm32g0xx_ll_exti.c ****     assert_param(IS_LL_EXTI_TRIGGER(EXTI_InitStruct->Trigger));
 119              		.loc 1 158 5 is_stmt 1 view .LVU27
 159:Drivers/STM32G0xx_HAL_Driver/Src/stm32g0xx_ll_exti.c **** 
 160:Drivers/STM32G0xx_HAL_Driver/Src/stm32g0xx_ll_exti.c ****     /* Configure EXTI Lines in range from 0 to 31 */
 161:Drivers/STM32G0xx_HAL_Driver/Src/stm32g0xx_ll_exti.c ****     if (EXTI_InitStruct->Line_0_31 != LL_EXTI_LINE_NONE)
 120              		.loc 1 161 5 view .LVU28
 121              		.loc 1 161 24 is_stmt 0 view .LVU29
 122 000c 0068     		ldr	r0, [r0]
 123              	.LVL2:
 124              		.loc 1 161 8 view .LVU30
 125 000e 0028     		cmp	r0, #0
 126 0010 27D0     		beq	.L6
 162:Drivers/STM32G0xx_HAL_Driver/Src/stm32g0xx_ll_exti.c ****     {
ARM GAS  /tmp/ccXPwwLX.s 			page 6


 163:Drivers/STM32G0xx_HAL_Driver/Src/stm32g0xx_ll_exti.c ****       switch (EXTI_InitStruct->Mode)
 127              		.loc 1 163 7 is_stmt 1 view .LVU31
 128              		.loc 1 163 30 is_stmt 0 view .LVU32
 129 0012 5A7A     		ldrb	r2, [r3, #9]
 130              		.loc 1 163 7 view .LVU33
 131 0014 012A     		cmp	r2, #1
 132 0016 3DD0     		beq	.L7
 133 0018 022A     		cmp	r2, #2
 134 001a 49D0     		beq	.L8
 135 001c 002A     		cmp	r2, #0
 136 001e 55D1     		bne	.L17
 164:Drivers/STM32G0xx_HAL_Driver/Src/stm32g0xx_ll_exti.c ****       {
 165:Drivers/STM32G0xx_HAL_Driver/Src/stm32g0xx_ll_exti.c ****         case LL_EXTI_MODE_IT:
 166:Drivers/STM32G0xx_HAL_Driver/Src/stm32g0xx_ll_exti.c ****           /* First Disable Event on provided Lines */
 167:Drivers/STM32G0xx_HAL_Driver/Src/stm32g0xx_ll_exti.c ****           LL_EXTI_DisableEvent_0_31(EXTI_InitStruct->Line_0_31);
 137              		.loc 1 167 11 is_stmt 1 view .LVU34
 138              	.LVL3:
 139              	.LBB46:
 140              	.LBI46:
 141              		.file 2 "Drivers/STM32G0xx_HAL_Driver/Inc/stm32g0xx_ll_exti.h"
   1:Drivers/STM32G0xx_HAL_Driver/Inc/stm32g0xx_ll_exti.h **** /**
   2:Drivers/STM32G0xx_HAL_Driver/Inc/stm32g0xx_ll_exti.h ****   ******************************************************************************
   3:Drivers/STM32G0xx_HAL_Driver/Inc/stm32g0xx_ll_exti.h ****   * @file    stm32g0xx_ll_exti.h
   4:Drivers/STM32G0xx_HAL_Driver/Inc/stm32g0xx_ll_exti.h ****   * @author  MCD Application Team
   5:Drivers/STM32G0xx_HAL_Driver/Inc/stm32g0xx_ll_exti.h ****   * @brief   Header file of EXTI LL module.
   6:Drivers/STM32G0xx_HAL_Driver/Inc/stm32g0xx_ll_exti.h ****   ******************************************************************************
   7:Drivers/STM32G0xx_HAL_Driver/Inc/stm32g0xx_ll_exti.h ****   * @attention
   8:Drivers/STM32G0xx_HAL_Driver/Inc/stm32g0xx_ll_exti.h ****   *
   9:Drivers/STM32G0xx_HAL_Driver/Inc/stm32g0xx_ll_exti.h ****   * Copyright (c) 2018 STMicroelectronics.
  10:Drivers/STM32G0xx_HAL_Driver/Inc/stm32g0xx_ll_exti.h ****   * All rights reserved.
  11:Drivers/STM32G0xx_HAL_Driver/Inc/stm32g0xx_ll_exti.h ****   *
  12:Drivers/STM32G0xx_HAL_Driver/Inc/stm32g0xx_ll_exti.h ****   * This software is licensed under terms that can be found in the LICENSE file
  13:Drivers/STM32G0xx_HAL_Driver/Inc/stm32g0xx_ll_exti.h ****   * in the root directory of this software component.
  14:Drivers/STM32G0xx_HAL_Driver/Inc/stm32g0xx_ll_exti.h ****   * If no LICENSE file comes with this software, it is provided AS-IS.
  15:Drivers/STM32G0xx_HAL_Driver/Inc/stm32g0xx_ll_exti.h ****   *
  16:Drivers/STM32G0xx_HAL_Driver/Inc/stm32g0xx_ll_exti.h ****   ******************************************************************************
  17:Drivers/STM32G0xx_HAL_Driver/Inc/stm32g0xx_ll_exti.h ****   */
  18:Drivers/STM32G0xx_HAL_Driver/Inc/stm32g0xx_ll_exti.h **** 
  19:Drivers/STM32G0xx_HAL_Driver/Inc/stm32g0xx_ll_exti.h **** /* Define to prevent recursive inclusion -------------------------------------*/
  20:Drivers/STM32G0xx_HAL_Driver/Inc/stm32g0xx_ll_exti.h **** #ifndef STM32G0xx_LL_EXTI_H
  21:Drivers/STM32G0xx_HAL_Driver/Inc/stm32g0xx_ll_exti.h **** #define STM32G0xx_LL_EXTI_H
  22:Drivers/STM32G0xx_HAL_Driver/Inc/stm32g0xx_ll_exti.h **** 
  23:Drivers/STM32G0xx_HAL_Driver/Inc/stm32g0xx_ll_exti.h **** #ifdef __cplusplus
  24:Drivers/STM32G0xx_HAL_Driver/Inc/stm32g0xx_ll_exti.h **** extern "C" {
  25:Drivers/STM32G0xx_HAL_Driver/Inc/stm32g0xx_ll_exti.h **** #endif
  26:Drivers/STM32G0xx_HAL_Driver/Inc/stm32g0xx_ll_exti.h **** 
  27:Drivers/STM32G0xx_HAL_Driver/Inc/stm32g0xx_ll_exti.h **** /* Includes ------------------------------------------------------------------*/
  28:Drivers/STM32G0xx_HAL_Driver/Inc/stm32g0xx_ll_exti.h **** #include "stm32g0xx.h"
  29:Drivers/STM32G0xx_HAL_Driver/Inc/stm32g0xx_ll_exti.h **** 
  30:Drivers/STM32G0xx_HAL_Driver/Inc/stm32g0xx_ll_exti.h **** /** @addtogroup STM32G0xx_LL_Driver
  31:Drivers/STM32G0xx_HAL_Driver/Inc/stm32g0xx_ll_exti.h ****   * @{
  32:Drivers/STM32G0xx_HAL_Driver/Inc/stm32g0xx_ll_exti.h ****   */
  33:Drivers/STM32G0xx_HAL_Driver/Inc/stm32g0xx_ll_exti.h **** 
  34:Drivers/STM32G0xx_HAL_Driver/Inc/stm32g0xx_ll_exti.h **** #if defined (EXTI)
  35:Drivers/STM32G0xx_HAL_Driver/Inc/stm32g0xx_ll_exti.h **** 
  36:Drivers/STM32G0xx_HAL_Driver/Inc/stm32g0xx_ll_exti.h **** /** @defgroup EXTI_LL EXTI
  37:Drivers/STM32G0xx_HAL_Driver/Inc/stm32g0xx_ll_exti.h ****   * @{
ARM GAS  /tmp/ccXPwwLX.s 			page 7


  38:Drivers/STM32G0xx_HAL_Driver/Inc/stm32g0xx_ll_exti.h ****   */
  39:Drivers/STM32G0xx_HAL_Driver/Inc/stm32g0xx_ll_exti.h **** 
  40:Drivers/STM32G0xx_HAL_Driver/Inc/stm32g0xx_ll_exti.h **** /* Private types -------------------------------------------------------------*/
  41:Drivers/STM32G0xx_HAL_Driver/Inc/stm32g0xx_ll_exti.h **** /* Private variables ---------------------------------------------------------*/
  42:Drivers/STM32G0xx_HAL_Driver/Inc/stm32g0xx_ll_exti.h **** /* Private constants ---------------------------------------------------------*/
  43:Drivers/STM32G0xx_HAL_Driver/Inc/stm32g0xx_ll_exti.h **** #define LL_EXTI_REGISTER_PINPOS_SHFT        16u   /*!< Define used to shift pin position in EXTICR 
  44:Drivers/STM32G0xx_HAL_Driver/Inc/stm32g0xx_ll_exti.h **** 
  45:Drivers/STM32G0xx_HAL_Driver/Inc/stm32g0xx_ll_exti.h **** /* Private Macros ------------------------------------------------------------*/
  46:Drivers/STM32G0xx_HAL_Driver/Inc/stm32g0xx_ll_exti.h **** #if defined(USE_FULL_LL_DRIVER)
  47:Drivers/STM32G0xx_HAL_Driver/Inc/stm32g0xx_ll_exti.h **** /** @defgroup EXTI_LL_Private_Macros EXTI Private Macros
  48:Drivers/STM32G0xx_HAL_Driver/Inc/stm32g0xx_ll_exti.h ****   * @{
  49:Drivers/STM32G0xx_HAL_Driver/Inc/stm32g0xx_ll_exti.h ****   */
  50:Drivers/STM32G0xx_HAL_Driver/Inc/stm32g0xx_ll_exti.h **** /**
  51:Drivers/STM32G0xx_HAL_Driver/Inc/stm32g0xx_ll_exti.h ****   * @}
  52:Drivers/STM32G0xx_HAL_Driver/Inc/stm32g0xx_ll_exti.h ****   */
  53:Drivers/STM32G0xx_HAL_Driver/Inc/stm32g0xx_ll_exti.h **** #endif /*USE_FULL_LL_DRIVER*/
  54:Drivers/STM32G0xx_HAL_Driver/Inc/stm32g0xx_ll_exti.h **** /* Exported types ------------------------------------------------------------*/
  55:Drivers/STM32G0xx_HAL_Driver/Inc/stm32g0xx_ll_exti.h **** #if defined(USE_FULL_LL_DRIVER)
  56:Drivers/STM32G0xx_HAL_Driver/Inc/stm32g0xx_ll_exti.h **** /** @defgroup EXTI_LL_ES_INIT EXTI Exported Init structure
  57:Drivers/STM32G0xx_HAL_Driver/Inc/stm32g0xx_ll_exti.h ****   * @{
  58:Drivers/STM32G0xx_HAL_Driver/Inc/stm32g0xx_ll_exti.h ****   */
  59:Drivers/STM32G0xx_HAL_Driver/Inc/stm32g0xx_ll_exti.h **** typedef struct
  60:Drivers/STM32G0xx_HAL_Driver/Inc/stm32g0xx_ll_exti.h **** {
  61:Drivers/STM32G0xx_HAL_Driver/Inc/stm32g0xx_ll_exti.h **** 
  62:Drivers/STM32G0xx_HAL_Driver/Inc/stm32g0xx_ll_exti.h ****   uint32_t Line_0_31;           /*!< Specifies the EXTI lines to be enabled or disabled for Lines i
  63:Drivers/STM32G0xx_HAL_Driver/Inc/stm32g0xx_ll_exti.h ****                                      This parameter can be any combination of @ref EXTI_LL_EC_LINE 
  64:Drivers/STM32G0xx_HAL_Driver/Inc/stm32g0xx_ll_exti.h **** #if defined(STM32G081xx) || defined(STM32G071xx) || defined(STM32G0C1xx) || defined(STM32G0B1xx) ||
  65:Drivers/STM32G0xx_HAL_Driver/Inc/stm32g0xx_ll_exti.h ****   uint32_t Line_32_63;          /*!< Specifies the EXTI lines to be enabled or disabled for Lines i
  66:Drivers/STM32G0xx_HAL_Driver/Inc/stm32g0xx_ll_exti.h ****                                      This parameter can be any combination of @ref EXTI_LL_EC_LINE 
  67:Drivers/STM32G0xx_HAL_Driver/Inc/stm32g0xx_ll_exti.h **** #endif /* STM32G081xx || STM32G071xx || STM32G0C1xx || STM32G0B1xx || STM32G0B0xx */
  68:Drivers/STM32G0xx_HAL_Driver/Inc/stm32g0xx_ll_exti.h ****   FunctionalState LineCommand;  /*!< Specifies the new state of the selected EXTI lines.
  69:Drivers/STM32G0xx_HAL_Driver/Inc/stm32g0xx_ll_exti.h ****                                      This parameter can be set either to ENABLE or DISABLE */
  70:Drivers/STM32G0xx_HAL_Driver/Inc/stm32g0xx_ll_exti.h **** 
  71:Drivers/STM32G0xx_HAL_Driver/Inc/stm32g0xx_ll_exti.h ****   uint8_t Mode;                 /*!< Specifies the mode for the EXTI lines.
  72:Drivers/STM32G0xx_HAL_Driver/Inc/stm32g0xx_ll_exti.h ****                                      This parameter can be a value of @ref EXTI_LL_EC_MODE. */
  73:Drivers/STM32G0xx_HAL_Driver/Inc/stm32g0xx_ll_exti.h **** 
  74:Drivers/STM32G0xx_HAL_Driver/Inc/stm32g0xx_ll_exti.h ****   uint8_t Trigger;              /*!< Specifies the trigger signal active edge for the EXTI lines.
  75:Drivers/STM32G0xx_HAL_Driver/Inc/stm32g0xx_ll_exti.h ****                                      This parameter can be a value of @ref EXTI_LL_EC_TRIGGER. */
  76:Drivers/STM32G0xx_HAL_Driver/Inc/stm32g0xx_ll_exti.h **** } LL_EXTI_InitTypeDef;
  77:Drivers/STM32G0xx_HAL_Driver/Inc/stm32g0xx_ll_exti.h **** 
  78:Drivers/STM32G0xx_HAL_Driver/Inc/stm32g0xx_ll_exti.h **** /**
  79:Drivers/STM32G0xx_HAL_Driver/Inc/stm32g0xx_ll_exti.h ****   * @}
  80:Drivers/STM32G0xx_HAL_Driver/Inc/stm32g0xx_ll_exti.h ****   */
  81:Drivers/STM32G0xx_HAL_Driver/Inc/stm32g0xx_ll_exti.h **** #endif /*USE_FULL_LL_DRIVER*/
  82:Drivers/STM32G0xx_HAL_Driver/Inc/stm32g0xx_ll_exti.h **** 
  83:Drivers/STM32G0xx_HAL_Driver/Inc/stm32g0xx_ll_exti.h **** /* Exported constants --------------------------------------------------------*/
  84:Drivers/STM32G0xx_HAL_Driver/Inc/stm32g0xx_ll_exti.h **** /** @defgroup EXTI_LL_Exported_Constants EXTI Exported Constants
  85:Drivers/STM32G0xx_HAL_Driver/Inc/stm32g0xx_ll_exti.h ****   * @{
  86:Drivers/STM32G0xx_HAL_Driver/Inc/stm32g0xx_ll_exti.h ****   */
  87:Drivers/STM32G0xx_HAL_Driver/Inc/stm32g0xx_ll_exti.h **** 
  88:Drivers/STM32G0xx_HAL_Driver/Inc/stm32g0xx_ll_exti.h **** /** @defgroup EXTI_LL_EC_LINE LINE
  89:Drivers/STM32G0xx_HAL_Driver/Inc/stm32g0xx_ll_exti.h ****   * @{
  90:Drivers/STM32G0xx_HAL_Driver/Inc/stm32g0xx_ll_exti.h ****   */
  91:Drivers/STM32G0xx_HAL_Driver/Inc/stm32g0xx_ll_exti.h **** #define LL_EXTI_LINE_0                 EXTI_IMR1_IM0           /*!< Extended line 0 */
  92:Drivers/STM32G0xx_HAL_Driver/Inc/stm32g0xx_ll_exti.h **** #define LL_EXTI_LINE_1                 EXTI_IMR1_IM1           /*!< Extended line 1 */
  93:Drivers/STM32G0xx_HAL_Driver/Inc/stm32g0xx_ll_exti.h **** #define LL_EXTI_LINE_2                 EXTI_IMR1_IM2           /*!< Extended line 2 */
  94:Drivers/STM32G0xx_HAL_Driver/Inc/stm32g0xx_ll_exti.h **** #define LL_EXTI_LINE_3                 EXTI_IMR1_IM3           /*!< Extended line 3 */
ARM GAS  /tmp/ccXPwwLX.s 			page 8


  95:Drivers/STM32G0xx_HAL_Driver/Inc/stm32g0xx_ll_exti.h **** #define LL_EXTI_LINE_4                 EXTI_IMR1_IM4           /*!< Extended line 4 */
  96:Drivers/STM32G0xx_HAL_Driver/Inc/stm32g0xx_ll_exti.h **** #define LL_EXTI_LINE_5                 EXTI_IMR1_IM5           /*!< Extended line 5 */
  97:Drivers/STM32G0xx_HAL_Driver/Inc/stm32g0xx_ll_exti.h **** #define LL_EXTI_LINE_6                 EXTI_IMR1_IM6           /*!< Extended line 6 */
  98:Drivers/STM32G0xx_HAL_Driver/Inc/stm32g0xx_ll_exti.h **** #define LL_EXTI_LINE_7                 EXTI_IMR1_IM7           /*!< Extended line 7 */
  99:Drivers/STM32G0xx_HAL_Driver/Inc/stm32g0xx_ll_exti.h **** #define LL_EXTI_LINE_8                 EXTI_IMR1_IM8           /*!< Extended line 8 */
 100:Drivers/STM32G0xx_HAL_Driver/Inc/stm32g0xx_ll_exti.h **** #define LL_EXTI_LINE_9                 EXTI_IMR1_IM9           /*!< Extended line 9 */
 101:Drivers/STM32G0xx_HAL_Driver/Inc/stm32g0xx_ll_exti.h **** #define LL_EXTI_LINE_10                EXTI_IMR1_IM10          /*!< Extended line 10 */
 102:Drivers/STM32G0xx_HAL_Driver/Inc/stm32g0xx_ll_exti.h **** #define LL_EXTI_LINE_11                EXTI_IMR1_IM11          /*!< Extended line 11 */
 103:Drivers/STM32G0xx_HAL_Driver/Inc/stm32g0xx_ll_exti.h **** #define LL_EXTI_LINE_12                EXTI_IMR1_IM12          /*!< Extended line 12 */
 104:Drivers/STM32G0xx_HAL_Driver/Inc/stm32g0xx_ll_exti.h **** #define LL_EXTI_LINE_13                EXTI_IMR1_IM13          /*!< Extended line 13 */
 105:Drivers/STM32G0xx_HAL_Driver/Inc/stm32g0xx_ll_exti.h **** #define LL_EXTI_LINE_14                EXTI_IMR1_IM14          /*!< Extended line 14 */
 106:Drivers/STM32G0xx_HAL_Driver/Inc/stm32g0xx_ll_exti.h **** #define LL_EXTI_LINE_15                EXTI_IMR1_IM15          /*!< Extended line 15 */
 107:Drivers/STM32G0xx_HAL_Driver/Inc/stm32g0xx_ll_exti.h **** #if defined(EXTI_IMR1_IM16)
 108:Drivers/STM32G0xx_HAL_Driver/Inc/stm32g0xx_ll_exti.h **** #define LL_EXTI_LINE_16                EXTI_IMR1_IM16          /*!< Extended line 16 */
 109:Drivers/STM32G0xx_HAL_Driver/Inc/stm32g0xx_ll_exti.h **** #endif /* EXTI_IMR1_IM16 */
 110:Drivers/STM32G0xx_HAL_Driver/Inc/stm32g0xx_ll_exti.h **** #if defined(EXTI_IMR1_IM17)
 111:Drivers/STM32G0xx_HAL_Driver/Inc/stm32g0xx_ll_exti.h **** #define LL_EXTI_LINE_17                EXTI_IMR1_IM17          /*!< Extended line 17 */
 112:Drivers/STM32G0xx_HAL_Driver/Inc/stm32g0xx_ll_exti.h **** #endif /* EXTI_IMR1_IM17 */
 113:Drivers/STM32G0xx_HAL_Driver/Inc/stm32g0xx_ll_exti.h **** #if defined(EXTI_IMR1_IM18)
 114:Drivers/STM32G0xx_HAL_Driver/Inc/stm32g0xx_ll_exti.h **** #define LL_EXTI_LINE_18                EXTI_IMR1_IM18          /*!< Extended line 18 */
 115:Drivers/STM32G0xx_HAL_Driver/Inc/stm32g0xx_ll_exti.h **** #endif /* EXTI_IMR1_IM18 */
 116:Drivers/STM32G0xx_HAL_Driver/Inc/stm32g0xx_ll_exti.h **** #define LL_EXTI_LINE_19                EXTI_IMR1_IM19          /*!< Extended line 19 */
 117:Drivers/STM32G0xx_HAL_Driver/Inc/stm32g0xx_ll_exti.h **** #if defined(EXTI_IMR1_IM20)
 118:Drivers/STM32G0xx_HAL_Driver/Inc/stm32g0xx_ll_exti.h **** #define LL_EXTI_LINE_20                EXTI_IMR1_IM20          /*!< Extended line 20 */
 119:Drivers/STM32G0xx_HAL_Driver/Inc/stm32g0xx_ll_exti.h **** #endif /* EXTI_IMR1_IM20 */ 
 120:Drivers/STM32G0xx_HAL_Driver/Inc/stm32g0xx_ll_exti.h **** #if defined(EXTI_IMR1_IM21)
 121:Drivers/STM32G0xx_HAL_Driver/Inc/stm32g0xx_ll_exti.h **** #define LL_EXTI_LINE_21                EXTI_IMR1_IM21          /*!< Extended line 21 */
 122:Drivers/STM32G0xx_HAL_Driver/Inc/stm32g0xx_ll_exti.h **** #endif /* EXTI_IMR1_IM21 */
 123:Drivers/STM32G0xx_HAL_Driver/Inc/stm32g0xx_ll_exti.h **** #if defined(EXTI_IMR1_IM22)
 124:Drivers/STM32G0xx_HAL_Driver/Inc/stm32g0xx_ll_exti.h **** #define LL_EXTI_LINE_22                EXTI_IMR1_IM22          /*!< Extended line 22 */
 125:Drivers/STM32G0xx_HAL_Driver/Inc/stm32g0xx_ll_exti.h **** #endif /* EXTI_IMR1_IM22 */
 126:Drivers/STM32G0xx_HAL_Driver/Inc/stm32g0xx_ll_exti.h **** #define LL_EXTI_LINE_23                EXTI_IMR1_IM23          /*!< Extended line 23 */
 127:Drivers/STM32G0xx_HAL_Driver/Inc/stm32g0xx_ll_exti.h **** #if defined(EXTI_IMR1_IM24)
 128:Drivers/STM32G0xx_HAL_Driver/Inc/stm32g0xx_ll_exti.h **** #define LL_EXTI_LINE_24                EXTI_IMR1_IM24          /*!< Extended line 24 */
 129:Drivers/STM32G0xx_HAL_Driver/Inc/stm32g0xx_ll_exti.h **** #endif /* EXTI_IMR1_IM24 */
 130:Drivers/STM32G0xx_HAL_Driver/Inc/stm32g0xx_ll_exti.h **** #if defined(EXTI_IMR1_IM25)
 131:Drivers/STM32G0xx_HAL_Driver/Inc/stm32g0xx_ll_exti.h **** #define LL_EXTI_LINE_25                EXTI_IMR1_IM25          /*!< Extended line 25 */
 132:Drivers/STM32G0xx_HAL_Driver/Inc/stm32g0xx_ll_exti.h **** #endif /* EXTI_IMR1_IM25 */
 133:Drivers/STM32G0xx_HAL_Driver/Inc/stm32g0xx_ll_exti.h **** #if defined(EXTI_IMR1_IM26)
 134:Drivers/STM32G0xx_HAL_Driver/Inc/stm32g0xx_ll_exti.h **** #define LL_EXTI_LINE_26                EXTI_IMR1_IM26          /*!< Extended line 26 */
 135:Drivers/STM32G0xx_HAL_Driver/Inc/stm32g0xx_ll_exti.h **** #endif /* EXTI_IMR1_IM26 */
 136:Drivers/STM32G0xx_HAL_Driver/Inc/stm32g0xx_ll_exti.h **** #if defined(EXTI_IMR1_IM27)
 137:Drivers/STM32G0xx_HAL_Driver/Inc/stm32g0xx_ll_exti.h **** #define LL_EXTI_LINE_27                EXTI_IMR1_IM27          /*!< Extended line 27 */
 138:Drivers/STM32G0xx_HAL_Driver/Inc/stm32g0xx_ll_exti.h **** #endif /* EXTI_IMR1_IM27 */
 139:Drivers/STM32G0xx_HAL_Driver/Inc/stm32g0xx_ll_exti.h **** #if defined(EXTI_IMR1_IM28)
 140:Drivers/STM32G0xx_HAL_Driver/Inc/stm32g0xx_ll_exti.h **** #define LL_EXTI_LINE_28                EXTI_IMR1_IM28          /*!< Extended line 28 */
 141:Drivers/STM32G0xx_HAL_Driver/Inc/stm32g0xx_ll_exti.h **** #endif /* EXTI_IMR1_IM28 */
 142:Drivers/STM32G0xx_HAL_Driver/Inc/stm32g0xx_ll_exti.h **** #if defined(EXTI_IMR1_IM29)
 143:Drivers/STM32G0xx_HAL_Driver/Inc/stm32g0xx_ll_exti.h **** #define LL_EXTI_LINE_29                EXTI_IMR1_IM29          /*!< Extended line 29 */
 144:Drivers/STM32G0xx_HAL_Driver/Inc/stm32g0xx_ll_exti.h **** #endif /* EXTI_IMR1_IM29 */
 145:Drivers/STM32G0xx_HAL_Driver/Inc/stm32g0xx_ll_exti.h **** #if defined(EXTI_IMR1_IM30)
 146:Drivers/STM32G0xx_HAL_Driver/Inc/stm32g0xx_ll_exti.h **** #define LL_EXTI_LINE_30                EXTI_IMR1_IM30          /*!< Extended line 30 */
 147:Drivers/STM32G0xx_HAL_Driver/Inc/stm32g0xx_ll_exti.h **** #endif /* EXTI_IMR1_IM30 */
 148:Drivers/STM32G0xx_HAL_Driver/Inc/stm32g0xx_ll_exti.h **** #if defined(EXTI_IMR1_IM31)
 149:Drivers/STM32G0xx_HAL_Driver/Inc/stm32g0xx_ll_exti.h **** #define LL_EXTI_LINE_31                EXTI_IMR1_IM31          /*!< Extended line 31 */
 150:Drivers/STM32G0xx_HAL_Driver/Inc/stm32g0xx_ll_exti.h **** #endif /* EXTI_IMR1_IM31 */
 151:Drivers/STM32G0xx_HAL_Driver/Inc/stm32g0xx_ll_exti.h **** #define LL_EXTI_LINE_ALL_0_31          EXTI_IMR1_IM            /*!< All Extended line not reserved*
ARM GAS  /tmp/ccXPwwLX.s 			page 9


 152:Drivers/STM32G0xx_HAL_Driver/Inc/stm32g0xx_ll_exti.h **** 
 153:Drivers/STM32G0xx_HAL_Driver/Inc/stm32g0xx_ll_exti.h **** #if defined(EXTI_IMR2_IM32)
 154:Drivers/STM32G0xx_HAL_Driver/Inc/stm32g0xx_ll_exti.h **** #define LL_EXTI_LINE_32                EXTI_IMR2_IM32          /*!< Extended line 32 */
 155:Drivers/STM32G0xx_HAL_Driver/Inc/stm32g0xx_ll_exti.h **** #endif /* EXTI_IMR2_IM32 */
 156:Drivers/STM32G0xx_HAL_Driver/Inc/stm32g0xx_ll_exti.h **** #if defined(EXTI_IMR2_IM33)
 157:Drivers/STM32G0xx_HAL_Driver/Inc/stm32g0xx_ll_exti.h **** #define LL_EXTI_LINE_33                EXTI_IMR2_IM33          /*!< Extended line 33 */
 158:Drivers/STM32G0xx_HAL_Driver/Inc/stm32g0xx_ll_exti.h **** #endif /* EXTI_IMR2_IM33 */
 159:Drivers/STM32G0xx_HAL_Driver/Inc/stm32g0xx_ll_exti.h **** #if defined(EXTI_IMR2_IM34)
 160:Drivers/STM32G0xx_HAL_Driver/Inc/stm32g0xx_ll_exti.h **** #define LL_EXTI_LINE_34                EXTI_IMR2_IM34          /*!< Extended line 34 */
 161:Drivers/STM32G0xx_HAL_Driver/Inc/stm32g0xx_ll_exti.h **** #endif /* EXTI_IMR2_IM34 */
 162:Drivers/STM32G0xx_HAL_Driver/Inc/stm32g0xx_ll_exti.h **** #if defined(EXTI_IMR2_IM35)
 163:Drivers/STM32G0xx_HAL_Driver/Inc/stm32g0xx_ll_exti.h **** #define LL_EXTI_LINE_35                EXTI_IMR2_IM35          /*!< Extended line 35 */
 164:Drivers/STM32G0xx_HAL_Driver/Inc/stm32g0xx_ll_exti.h **** #endif /* EXTI_IMR2_IM35 */
 165:Drivers/STM32G0xx_HAL_Driver/Inc/stm32g0xx_ll_exti.h **** #if defined(EXTI_IMR2_IM36)
 166:Drivers/STM32G0xx_HAL_Driver/Inc/stm32g0xx_ll_exti.h **** #define LL_EXTI_LINE_36                EXTI_IMR2_IM36          /*!< Extended line 36 */
 167:Drivers/STM32G0xx_HAL_Driver/Inc/stm32g0xx_ll_exti.h **** #endif /* EXTI_IMR2_IM36 */
 168:Drivers/STM32G0xx_HAL_Driver/Inc/stm32g0xx_ll_exti.h **** #if defined(EXTI_IMR2_IM32) || defined(EXTI_IMR2_IM33) || defined(EXTI_IMR2_IM34) || defined(EXTI_I
 169:Drivers/STM32G0xx_HAL_Driver/Inc/stm32g0xx_ll_exti.h **** #define LL_EXTI_LINE_ALL_32_63         EXTI_IMR2_IM            /*!< All Extended line not reserved*
 170:Drivers/STM32G0xx_HAL_Driver/Inc/stm32g0xx_ll_exti.h **** #endif /* EXTI_IMR2_IM32 || EXTI_IMR2_IM33 || EXTI_IMR2_IM34 || EXTI_IMR2_IM35 || EXTI_IMR2_IM36 */
 171:Drivers/STM32G0xx_HAL_Driver/Inc/stm32g0xx_ll_exti.h **** 
 172:Drivers/STM32G0xx_HAL_Driver/Inc/stm32g0xx_ll_exti.h **** #define LL_EXTI_LINE_ALL               0xFFFFFFFFU             /*!< All Extended line */
 173:Drivers/STM32G0xx_HAL_Driver/Inc/stm32g0xx_ll_exti.h **** 
 174:Drivers/STM32G0xx_HAL_Driver/Inc/stm32g0xx_ll_exti.h **** #if defined(USE_FULL_LL_DRIVER)
 175:Drivers/STM32G0xx_HAL_Driver/Inc/stm32g0xx_ll_exti.h **** #define LL_EXTI_LINE_NONE              0x00000000U             /*!< None Extended line */
 176:Drivers/STM32G0xx_HAL_Driver/Inc/stm32g0xx_ll_exti.h **** #endif /*USE_FULL_LL_DRIVER*/
 177:Drivers/STM32G0xx_HAL_Driver/Inc/stm32g0xx_ll_exti.h **** 
 178:Drivers/STM32G0xx_HAL_Driver/Inc/stm32g0xx_ll_exti.h **** /** @defgroup EXTI_LL_EC_CONFIG_PORT EXTI CONFIG PORT
 179:Drivers/STM32G0xx_HAL_Driver/Inc/stm32g0xx_ll_exti.h ****   * @{
 180:Drivers/STM32G0xx_HAL_Driver/Inc/stm32g0xx_ll_exti.h ****   */
 181:Drivers/STM32G0xx_HAL_Driver/Inc/stm32g0xx_ll_exti.h **** #define LL_EXTI_CONFIG_PORTA               0U                                          /*!< EXTI PO
 182:Drivers/STM32G0xx_HAL_Driver/Inc/stm32g0xx_ll_exti.h **** #define LL_EXTI_CONFIG_PORTB               EXTI_EXTICR1_EXTI0_0                        /*!< EXTI PO
 183:Drivers/STM32G0xx_HAL_Driver/Inc/stm32g0xx_ll_exti.h **** #define LL_EXTI_CONFIG_PORTC               EXTI_EXTICR1_EXTI0_1                        /*!< EXTI PO
 184:Drivers/STM32G0xx_HAL_Driver/Inc/stm32g0xx_ll_exti.h **** #if defined(GPIOD_BASE)
 185:Drivers/STM32G0xx_HAL_Driver/Inc/stm32g0xx_ll_exti.h **** #define LL_EXTI_CONFIG_PORTD               (EXTI_EXTICR1_EXTI0_1|EXTI_EXTICR1_EXTI0_0) /*!< EXTI PO
 186:Drivers/STM32G0xx_HAL_Driver/Inc/stm32g0xx_ll_exti.h **** #endif /*GPIOD_BASE*/
 187:Drivers/STM32G0xx_HAL_Driver/Inc/stm32g0xx_ll_exti.h **** #if defined(GPIOE_BASE)
 188:Drivers/STM32G0xx_HAL_Driver/Inc/stm32g0xx_ll_exti.h **** #define LL_EXTI_CONFIG_PORTE               EXTI_EXTICR1_EXTI0_2                        /*!< EXTI PO
 189:Drivers/STM32G0xx_HAL_Driver/Inc/stm32g0xx_ll_exti.h **** #endif /*GPIOE_BASE*/
 190:Drivers/STM32G0xx_HAL_Driver/Inc/stm32g0xx_ll_exti.h **** #define LL_EXTI_CONFIG_PORTF               (EXTI_EXTICR1_EXTI0_2|EXTI_EXTICR1_EXTI0_0) /*!< EXTI PO
 191:Drivers/STM32G0xx_HAL_Driver/Inc/stm32g0xx_ll_exti.h **** /**
 192:Drivers/STM32G0xx_HAL_Driver/Inc/stm32g0xx_ll_exti.h ****   * @}
 193:Drivers/STM32G0xx_HAL_Driver/Inc/stm32g0xx_ll_exti.h ****   */
 194:Drivers/STM32G0xx_HAL_Driver/Inc/stm32g0xx_ll_exti.h **** 
 195:Drivers/STM32G0xx_HAL_Driver/Inc/stm32g0xx_ll_exti.h **** /** @defgroup EXTI_LL_EC_CONFIG_LINE EXTI CONFIG LINE
 196:Drivers/STM32G0xx_HAL_Driver/Inc/stm32g0xx_ll_exti.h ****   * @{
 197:Drivers/STM32G0xx_HAL_Driver/Inc/stm32g0xx_ll_exti.h ****   */
 198:Drivers/STM32G0xx_HAL_Driver/Inc/stm32g0xx_ll_exti.h **** #define LL_EXTI_CONFIG_LINE0               ((0uL << LL_EXTI_REGISTER_PINPOS_SHFT)  | 0U)  /*!< EXTI
 199:Drivers/STM32G0xx_HAL_Driver/Inc/stm32g0xx_ll_exti.h **** #define LL_EXTI_CONFIG_LINE1               ((8uL << LL_EXTI_REGISTER_PINPOS_SHFT)  | 0U)  /*!< EXTI
 200:Drivers/STM32G0xx_HAL_Driver/Inc/stm32g0xx_ll_exti.h **** #define LL_EXTI_CONFIG_LINE2               ((16uL << LL_EXTI_REGISTER_PINPOS_SHFT) | 0U)  /*!< EXTI
 201:Drivers/STM32G0xx_HAL_Driver/Inc/stm32g0xx_ll_exti.h **** #define LL_EXTI_CONFIG_LINE3               ((24uL << LL_EXTI_REGISTER_PINPOS_SHFT) | 0U)  /*!< EXTI
 202:Drivers/STM32G0xx_HAL_Driver/Inc/stm32g0xx_ll_exti.h **** #define LL_EXTI_CONFIG_LINE4               ((0uL << LL_EXTI_REGISTER_PINPOS_SHFT)  | 1U)  /*!< EXTI
 203:Drivers/STM32G0xx_HAL_Driver/Inc/stm32g0xx_ll_exti.h **** #define LL_EXTI_CONFIG_LINE5               ((8uL << LL_EXTI_REGISTER_PINPOS_SHFT)  | 1U)  /*!< EXTI
 204:Drivers/STM32G0xx_HAL_Driver/Inc/stm32g0xx_ll_exti.h **** #define LL_EXTI_CONFIG_LINE6               ((16uL << LL_EXTI_REGISTER_PINPOS_SHFT) | 1U)  /*!< EXTI
 205:Drivers/STM32G0xx_HAL_Driver/Inc/stm32g0xx_ll_exti.h **** #define LL_EXTI_CONFIG_LINE7               ((24uL << LL_EXTI_REGISTER_PINPOS_SHFT) | 1U)  /*!< EXTI
 206:Drivers/STM32G0xx_HAL_Driver/Inc/stm32g0xx_ll_exti.h **** #define LL_EXTI_CONFIG_LINE8               ((0uL << LL_EXTI_REGISTER_PINPOS_SHFT)  | 2U)  /*!< EXTI
 207:Drivers/STM32G0xx_HAL_Driver/Inc/stm32g0xx_ll_exti.h **** #define LL_EXTI_CONFIG_LINE9               ((8uL << LL_EXTI_REGISTER_PINPOS_SHFT)  | 2U)  /*!< EXTI
 208:Drivers/STM32G0xx_HAL_Driver/Inc/stm32g0xx_ll_exti.h **** #define LL_EXTI_CONFIG_LINE10              ((16uL << LL_EXTI_REGISTER_PINPOS_SHFT) | 2U)  /*!< EXTI
ARM GAS  /tmp/ccXPwwLX.s 			page 10


 209:Drivers/STM32G0xx_HAL_Driver/Inc/stm32g0xx_ll_exti.h **** #define LL_EXTI_CONFIG_LINE11              ((24uL << LL_EXTI_REGISTER_PINPOS_SHFT) | 2U)  /*!< EXTI
 210:Drivers/STM32G0xx_HAL_Driver/Inc/stm32g0xx_ll_exti.h **** #define LL_EXTI_CONFIG_LINE12              ((0uL << LL_EXTI_REGISTER_PINPOS_SHFT)  | 3U)  /*!< EXTI
 211:Drivers/STM32G0xx_HAL_Driver/Inc/stm32g0xx_ll_exti.h **** #define LL_EXTI_CONFIG_LINE13              ((8uL << LL_EXTI_REGISTER_PINPOS_SHFT)  | 3U)  /*!< EXTI
 212:Drivers/STM32G0xx_HAL_Driver/Inc/stm32g0xx_ll_exti.h **** #define LL_EXTI_CONFIG_LINE14              ((16uL << LL_EXTI_REGISTER_PINPOS_SHFT) | 3U)  /*!< EXTI
 213:Drivers/STM32G0xx_HAL_Driver/Inc/stm32g0xx_ll_exti.h **** #define LL_EXTI_CONFIG_LINE15              ((24uL << LL_EXTI_REGISTER_PINPOS_SHFT) | 3U)  /*!< EXTI
 214:Drivers/STM32G0xx_HAL_Driver/Inc/stm32g0xx_ll_exti.h **** /**
 215:Drivers/STM32G0xx_HAL_Driver/Inc/stm32g0xx_ll_exti.h ****   * @}
 216:Drivers/STM32G0xx_HAL_Driver/Inc/stm32g0xx_ll_exti.h ****   */
 217:Drivers/STM32G0xx_HAL_Driver/Inc/stm32g0xx_ll_exti.h **** /**
 218:Drivers/STM32G0xx_HAL_Driver/Inc/stm32g0xx_ll_exti.h ****   * @}
 219:Drivers/STM32G0xx_HAL_Driver/Inc/stm32g0xx_ll_exti.h ****   */
 220:Drivers/STM32G0xx_HAL_Driver/Inc/stm32g0xx_ll_exti.h **** #if defined(USE_FULL_LL_DRIVER)
 221:Drivers/STM32G0xx_HAL_Driver/Inc/stm32g0xx_ll_exti.h **** 
 222:Drivers/STM32G0xx_HAL_Driver/Inc/stm32g0xx_ll_exti.h **** /** @defgroup EXTI_LL_EC_MODE Mode
 223:Drivers/STM32G0xx_HAL_Driver/Inc/stm32g0xx_ll_exti.h ****   * @{
 224:Drivers/STM32G0xx_HAL_Driver/Inc/stm32g0xx_ll_exti.h ****   */
 225:Drivers/STM32G0xx_HAL_Driver/Inc/stm32g0xx_ll_exti.h **** #define LL_EXTI_MODE_IT                 ((uint8_t)0x00U) /*!< Interrupt Mode */
 226:Drivers/STM32G0xx_HAL_Driver/Inc/stm32g0xx_ll_exti.h **** #define LL_EXTI_MODE_EVENT              ((uint8_t)0x01U) /*!< Event Mode */
 227:Drivers/STM32G0xx_HAL_Driver/Inc/stm32g0xx_ll_exti.h **** #define LL_EXTI_MODE_IT_EVENT           ((uint8_t)0x02U) /*!< Interrupt & Event Mode */
 228:Drivers/STM32G0xx_HAL_Driver/Inc/stm32g0xx_ll_exti.h **** /**
 229:Drivers/STM32G0xx_HAL_Driver/Inc/stm32g0xx_ll_exti.h ****   * @}
 230:Drivers/STM32G0xx_HAL_Driver/Inc/stm32g0xx_ll_exti.h ****   */
 231:Drivers/STM32G0xx_HAL_Driver/Inc/stm32g0xx_ll_exti.h **** 
 232:Drivers/STM32G0xx_HAL_Driver/Inc/stm32g0xx_ll_exti.h **** /** @defgroup EXTI_LL_EC_TRIGGER Edge Trigger
 233:Drivers/STM32G0xx_HAL_Driver/Inc/stm32g0xx_ll_exti.h ****   * @{
 234:Drivers/STM32G0xx_HAL_Driver/Inc/stm32g0xx_ll_exti.h ****   */
 235:Drivers/STM32G0xx_HAL_Driver/Inc/stm32g0xx_ll_exti.h **** #define LL_EXTI_TRIGGER_NONE            ((uint8_t)0x00U) /*!< No Trigger Mode */
 236:Drivers/STM32G0xx_HAL_Driver/Inc/stm32g0xx_ll_exti.h **** #define LL_EXTI_TRIGGER_RISING          ((uint8_t)0x01U) /*!< Trigger Rising Mode */
 237:Drivers/STM32G0xx_HAL_Driver/Inc/stm32g0xx_ll_exti.h **** #define LL_EXTI_TRIGGER_FALLING         ((uint8_t)0x02U) /*!< Trigger Falling Mode */
 238:Drivers/STM32G0xx_HAL_Driver/Inc/stm32g0xx_ll_exti.h **** #define LL_EXTI_TRIGGER_RISING_FALLING  ((uint8_t)0x03U) /*!< Trigger Rising & Falling Mode */
 239:Drivers/STM32G0xx_HAL_Driver/Inc/stm32g0xx_ll_exti.h **** 
 240:Drivers/STM32G0xx_HAL_Driver/Inc/stm32g0xx_ll_exti.h **** /**
 241:Drivers/STM32G0xx_HAL_Driver/Inc/stm32g0xx_ll_exti.h ****   * @}
 242:Drivers/STM32G0xx_HAL_Driver/Inc/stm32g0xx_ll_exti.h ****   */
 243:Drivers/STM32G0xx_HAL_Driver/Inc/stm32g0xx_ll_exti.h **** 
 244:Drivers/STM32G0xx_HAL_Driver/Inc/stm32g0xx_ll_exti.h **** 
 245:Drivers/STM32G0xx_HAL_Driver/Inc/stm32g0xx_ll_exti.h **** #endif /*USE_FULL_LL_DRIVER*/
 246:Drivers/STM32G0xx_HAL_Driver/Inc/stm32g0xx_ll_exti.h **** 
 247:Drivers/STM32G0xx_HAL_Driver/Inc/stm32g0xx_ll_exti.h **** 
 248:Drivers/STM32G0xx_HAL_Driver/Inc/stm32g0xx_ll_exti.h **** /**
 249:Drivers/STM32G0xx_HAL_Driver/Inc/stm32g0xx_ll_exti.h ****   * @}
 250:Drivers/STM32G0xx_HAL_Driver/Inc/stm32g0xx_ll_exti.h ****   */
 251:Drivers/STM32G0xx_HAL_Driver/Inc/stm32g0xx_ll_exti.h **** 
 252:Drivers/STM32G0xx_HAL_Driver/Inc/stm32g0xx_ll_exti.h **** /* Exported macro ------------------------------------------------------------*/
 253:Drivers/STM32G0xx_HAL_Driver/Inc/stm32g0xx_ll_exti.h **** /** @defgroup EXTI_LL_Exported_Macros EXTI Exported Macros
 254:Drivers/STM32G0xx_HAL_Driver/Inc/stm32g0xx_ll_exti.h ****   * @{
 255:Drivers/STM32G0xx_HAL_Driver/Inc/stm32g0xx_ll_exti.h ****   */
 256:Drivers/STM32G0xx_HAL_Driver/Inc/stm32g0xx_ll_exti.h **** 
 257:Drivers/STM32G0xx_HAL_Driver/Inc/stm32g0xx_ll_exti.h **** /** @defgroup EXTI_LL_EM_WRITE_READ Common Write and read registers Macros
 258:Drivers/STM32G0xx_HAL_Driver/Inc/stm32g0xx_ll_exti.h ****   * @{
 259:Drivers/STM32G0xx_HAL_Driver/Inc/stm32g0xx_ll_exti.h ****   */
 260:Drivers/STM32G0xx_HAL_Driver/Inc/stm32g0xx_ll_exti.h **** 
 261:Drivers/STM32G0xx_HAL_Driver/Inc/stm32g0xx_ll_exti.h **** /**
 262:Drivers/STM32G0xx_HAL_Driver/Inc/stm32g0xx_ll_exti.h ****   * @brief  Write a value in EXTI register
 263:Drivers/STM32G0xx_HAL_Driver/Inc/stm32g0xx_ll_exti.h ****   * @param  __REG__ Register to be written
 264:Drivers/STM32G0xx_HAL_Driver/Inc/stm32g0xx_ll_exti.h ****   * @param  __VALUE__ Value to be written in the register
 265:Drivers/STM32G0xx_HAL_Driver/Inc/stm32g0xx_ll_exti.h ****   * @retval None
ARM GAS  /tmp/ccXPwwLX.s 			page 11


 266:Drivers/STM32G0xx_HAL_Driver/Inc/stm32g0xx_ll_exti.h ****   */
 267:Drivers/STM32G0xx_HAL_Driver/Inc/stm32g0xx_ll_exti.h **** #define LL_EXTI_WriteReg(__REG__, __VALUE__) WRITE_REG(EXTI->__REG__, (__VALUE__))
 268:Drivers/STM32G0xx_HAL_Driver/Inc/stm32g0xx_ll_exti.h **** 
 269:Drivers/STM32G0xx_HAL_Driver/Inc/stm32g0xx_ll_exti.h **** /**
 270:Drivers/STM32G0xx_HAL_Driver/Inc/stm32g0xx_ll_exti.h ****   * @brief  Read a value in EXTI register
 271:Drivers/STM32G0xx_HAL_Driver/Inc/stm32g0xx_ll_exti.h ****   * @param  __REG__ Register to be read
 272:Drivers/STM32G0xx_HAL_Driver/Inc/stm32g0xx_ll_exti.h ****   * @retval Register value
 273:Drivers/STM32G0xx_HAL_Driver/Inc/stm32g0xx_ll_exti.h ****   */
 274:Drivers/STM32G0xx_HAL_Driver/Inc/stm32g0xx_ll_exti.h **** #define LL_EXTI_ReadReg(__REG__) READ_REG(EXTI->__REG__)
 275:Drivers/STM32G0xx_HAL_Driver/Inc/stm32g0xx_ll_exti.h **** /**
 276:Drivers/STM32G0xx_HAL_Driver/Inc/stm32g0xx_ll_exti.h ****   * @}
 277:Drivers/STM32G0xx_HAL_Driver/Inc/stm32g0xx_ll_exti.h ****   */
 278:Drivers/STM32G0xx_HAL_Driver/Inc/stm32g0xx_ll_exti.h **** 
 279:Drivers/STM32G0xx_HAL_Driver/Inc/stm32g0xx_ll_exti.h **** 
 280:Drivers/STM32G0xx_HAL_Driver/Inc/stm32g0xx_ll_exti.h **** /**
 281:Drivers/STM32G0xx_HAL_Driver/Inc/stm32g0xx_ll_exti.h ****   * @}
 282:Drivers/STM32G0xx_HAL_Driver/Inc/stm32g0xx_ll_exti.h ****   */
 283:Drivers/STM32G0xx_HAL_Driver/Inc/stm32g0xx_ll_exti.h **** 
 284:Drivers/STM32G0xx_HAL_Driver/Inc/stm32g0xx_ll_exti.h **** 
 285:Drivers/STM32G0xx_HAL_Driver/Inc/stm32g0xx_ll_exti.h **** 
 286:Drivers/STM32G0xx_HAL_Driver/Inc/stm32g0xx_ll_exti.h **** /* Exported functions --------------------------------------------------------*/
 287:Drivers/STM32G0xx_HAL_Driver/Inc/stm32g0xx_ll_exti.h **** /** @defgroup EXTI_LL_Exported_Functions EXTI Exported Functions
 288:Drivers/STM32G0xx_HAL_Driver/Inc/stm32g0xx_ll_exti.h ****  * @{
 289:Drivers/STM32G0xx_HAL_Driver/Inc/stm32g0xx_ll_exti.h ****  */
 290:Drivers/STM32G0xx_HAL_Driver/Inc/stm32g0xx_ll_exti.h **** /** @defgroup EXTI_LL_EF_IT_Management IT_Management
 291:Drivers/STM32G0xx_HAL_Driver/Inc/stm32g0xx_ll_exti.h ****   * @{
 292:Drivers/STM32G0xx_HAL_Driver/Inc/stm32g0xx_ll_exti.h ****   */
 293:Drivers/STM32G0xx_HAL_Driver/Inc/stm32g0xx_ll_exti.h **** 
 294:Drivers/STM32G0xx_HAL_Driver/Inc/stm32g0xx_ll_exti.h **** /**
 295:Drivers/STM32G0xx_HAL_Driver/Inc/stm32g0xx_ll_exti.h ****   * @brief  Enable ExtiLine Interrupt request for Lines in range 0 to 31
 296:Drivers/STM32G0xx_HAL_Driver/Inc/stm32g0xx_ll_exti.h ****   * @note The reset value for the direct or internal lines (see RM)
 297:Drivers/STM32G0xx_HAL_Driver/Inc/stm32g0xx_ll_exti.h ****   *       is set to 1 in order to enable the interrupt by default.
 298:Drivers/STM32G0xx_HAL_Driver/Inc/stm32g0xx_ll_exti.h ****   *       Bits are set automatically at Power on.
 299:Drivers/STM32G0xx_HAL_Driver/Inc/stm32g0xx_ll_exti.h ****   * @rmtoll IMR1         IMx           LL_EXTI_EnableIT_0_31
 300:Drivers/STM32G0xx_HAL_Driver/Inc/stm32g0xx_ll_exti.h ****   * @param  ExtiLine This parameter can be one of the following values:
 301:Drivers/STM32G0xx_HAL_Driver/Inc/stm32g0xx_ll_exti.h ****   *         @arg @ref LL_EXTI_LINE_0
 302:Drivers/STM32G0xx_HAL_Driver/Inc/stm32g0xx_ll_exti.h ****   *         @arg @ref LL_EXTI_LINE_1
 303:Drivers/STM32G0xx_HAL_Driver/Inc/stm32g0xx_ll_exti.h ****   *         @arg @ref LL_EXTI_LINE_2
 304:Drivers/STM32G0xx_HAL_Driver/Inc/stm32g0xx_ll_exti.h ****   *         @arg @ref LL_EXTI_LINE_3
 305:Drivers/STM32G0xx_HAL_Driver/Inc/stm32g0xx_ll_exti.h ****   *         @arg @ref LL_EXTI_LINE_4
 306:Drivers/STM32G0xx_HAL_Driver/Inc/stm32g0xx_ll_exti.h ****   *         @arg @ref LL_EXTI_LINE_5
 307:Drivers/STM32G0xx_HAL_Driver/Inc/stm32g0xx_ll_exti.h ****   *         @arg @ref LL_EXTI_LINE_6
 308:Drivers/STM32G0xx_HAL_Driver/Inc/stm32g0xx_ll_exti.h ****   *         @arg @ref LL_EXTI_LINE_7
 309:Drivers/STM32G0xx_HAL_Driver/Inc/stm32g0xx_ll_exti.h ****   *         @arg @ref LL_EXTI_LINE_8
 310:Drivers/STM32G0xx_HAL_Driver/Inc/stm32g0xx_ll_exti.h ****   *         @arg @ref LL_EXTI_LINE_9
 311:Drivers/STM32G0xx_HAL_Driver/Inc/stm32g0xx_ll_exti.h ****   *         @arg @ref LL_EXTI_LINE_10
 312:Drivers/STM32G0xx_HAL_Driver/Inc/stm32g0xx_ll_exti.h ****   *         @arg @ref LL_EXTI_LINE_11
 313:Drivers/STM32G0xx_HAL_Driver/Inc/stm32g0xx_ll_exti.h ****   *         @arg @ref LL_EXTI_LINE_12
 314:Drivers/STM32G0xx_HAL_Driver/Inc/stm32g0xx_ll_exti.h ****   *         @arg @ref LL_EXTI_LINE_13
 315:Drivers/STM32G0xx_HAL_Driver/Inc/stm32g0xx_ll_exti.h ****   *         @arg @ref LL_EXTI_LINE_14
 316:Drivers/STM32G0xx_HAL_Driver/Inc/stm32g0xx_ll_exti.h ****   *         @arg @ref LL_EXTI_LINE_15
 317:Drivers/STM32G0xx_HAL_Driver/Inc/stm32g0xx_ll_exti.h ****   *         @arg @ref LL_EXTI_LINE_16
 318:Drivers/STM32G0xx_HAL_Driver/Inc/stm32g0xx_ll_exti.h ****   *         @arg @ref LL_EXTI_LINE_17
 319:Drivers/STM32G0xx_HAL_Driver/Inc/stm32g0xx_ll_exti.h ****   *         @arg @ref LL_EXTI_LINE_18
 320:Drivers/STM32G0xx_HAL_Driver/Inc/stm32g0xx_ll_exti.h ****   *         @arg @ref LL_EXTI_LINE_19
 321:Drivers/STM32G0xx_HAL_Driver/Inc/stm32g0xx_ll_exti.h ****   *         @arg @ref LL_EXTI_LINE_21
 322:Drivers/STM32G0xx_HAL_Driver/Inc/stm32g0xx_ll_exti.h ****   *         @arg @ref LL_EXTI_LINE_23
ARM GAS  /tmp/ccXPwwLX.s 			page 12


 323:Drivers/STM32G0xx_HAL_Driver/Inc/stm32g0xx_ll_exti.h ****   *         @arg @ref LL_EXTI_LINE_25
 324:Drivers/STM32G0xx_HAL_Driver/Inc/stm32g0xx_ll_exti.h ****   *         @arg @ref LL_EXTI_LINE_26
 325:Drivers/STM32G0xx_HAL_Driver/Inc/stm32g0xx_ll_exti.h ****   *         @arg @ref LL_EXTI_LINE_27
 326:Drivers/STM32G0xx_HAL_Driver/Inc/stm32g0xx_ll_exti.h ****   *         @arg @ref LL_EXTI_LINE_28
 327:Drivers/STM32G0xx_HAL_Driver/Inc/stm32g0xx_ll_exti.h ****   *         @arg @ref LL_EXTI_LINE_29
 328:Drivers/STM32G0xx_HAL_Driver/Inc/stm32g0xx_ll_exti.h ****   *         @arg @ref LL_EXTI_LINE_30
 329:Drivers/STM32G0xx_HAL_Driver/Inc/stm32g0xx_ll_exti.h ****   *         @arg @ref LL_EXTI_LINE_31
 330:Drivers/STM32G0xx_HAL_Driver/Inc/stm32g0xx_ll_exti.h ****   *         @arg @ref LL_EXTI_LINE_ALL_0_31
 331:Drivers/STM32G0xx_HAL_Driver/Inc/stm32g0xx_ll_exti.h ****   * @note   Please check each device line mapping for EXTI Line availability
 332:Drivers/STM32G0xx_HAL_Driver/Inc/stm32g0xx_ll_exti.h ****   * @retval None
 333:Drivers/STM32G0xx_HAL_Driver/Inc/stm32g0xx_ll_exti.h ****   */
 334:Drivers/STM32G0xx_HAL_Driver/Inc/stm32g0xx_ll_exti.h **** __STATIC_INLINE void LL_EXTI_EnableIT_0_31(uint32_t ExtiLine)
 335:Drivers/STM32G0xx_HAL_Driver/Inc/stm32g0xx_ll_exti.h **** {
 336:Drivers/STM32G0xx_HAL_Driver/Inc/stm32g0xx_ll_exti.h ****   SET_BIT(EXTI->IMR1, ExtiLine);
 337:Drivers/STM32G0xx_HAL_Driver/Inc/stm32g0xx_ll_exti.h **** }
 338:Drivers/STM32G0xx_HAL_Driver/Inc/stm32g0xx_ll_exti.h **** 
 339:Drivers/STM32G0xx_HAL_Driver/Inc/stm32g0xx_ll_exti.h **** #if defined(STM32G081xx) || defined(STM32G071xx) || defined(STM32G0C1xx) || defined(STM32G0B1xx) ||
 340:Drivers/STM32G0xx_HAL_Driver/Inc/stm32g0xx_ll_exti.h **** /**
 341:Drivers/STM32G0xx_HAL_Driver/Inc/stm32g0xx_ll_exti.h ****   * @brief  Enable ExtiLine Interrupt request for Lines in range 32 to 63
 342:Drivers/STM32G0xx_HAL_Driver/Inc/stm32g0xx_ll_exti.h ****   * @note The reset value for the direct lines (lines 32 & 33)
 343:Drivers/STM32G0xx_HAL_Driver/Inc/stm32g0xx_ll_exti.h ****   *       is set to 1 in order to enable the interrupt by default.
 344:Drivers/STM32G0xx_HAL_Driver/Inc/stm32g0xx_ll_exti.h ****   *       Bits are set automatically at Power on.
 345:Drivers/STM32G0xx_HAL_Driver/Inc/stm32g0xx_ll_exti.h ****   * @rmtoll IMR2         IMx           LL_EXTI_EnableIT_32_63
 346:Drivers/STM32G0xx_HAL_Driver/Inc/stm32g0xx_ll_exti.h ****   * @param  ExtiLine This parameter can be one of the following values:
 347:Drivers/STM32G0xx_HAL_Driver/Inc/stm32g0xx_ll_exti.h ****   *         @arg @ref LL_EXTI_LINE_32
 348:Drivers/STM32G0xx_HAL_Driver/Inc/stm32g0xx_ll_exti.h ****   *         @arg @ref LL_EXTI_LINE_33
 349:Drivers/STM32G0xx_HAL_Driver/Inc/stm32g0xx_ll_exti.h ****   *         @arg @ref LL_EXTI_LINE_34
 350:Drivers/STM32G0xx_HAL_Driver/Inc/stm32g0xx_ll_exti.h ****   *         @arg @ref LL_EXTI_LINE_35
 351:Drivers/STM32G0xx_HAL_Driver/Inc/stm32g0xx_ll_exti.h ****   *         @arg @ref LL_EXTI_LINE_36
 352:Drivers/STM32G0xx_HAL_Driver/Inc/stm32g0xx_ll_exti.h ****   *         @arg @ref LL_EXTI_LINE_ALL_32_63
 353:Drivers/STM32G0xx_HAL_Driver/Inc/stm32g0xx_ll_exti.h ****   * @note   Please check each device line mapping for EXTI Line availability
 354:Drivers/STM32G0xx_HAL_Driver/Inc/stm32g0xx_ll_exti.h ****   * @retval None
 355:Drivers/STM32G0xx_HAL_Driver/Inc/stm32g0xx_ll_exti.h ****   */
 356:Drivers/STM32G0xx_HAL_Driver/Inc/stm32g0xx_ll_exti.h **** __STATIC_INLINE void LL_EXTI_EnableIT_32_63(uint32_t ExtiLine)
 357:Drivers/STM32G0xx_HAL_Driver/Inc/stm32g0xx_ll_exti.h **** {
 358:Drivers/STM32G0xx_HAL_Driver/Inc/stm32g0xx_ll_exti.h ****   SET_BIT(EXTI->IMR2, ExtiLine);
 359:Drivers/STM32G0xx_HAL_Driver/Inc/stm32g0xx_ll_exti.h **** }
 360:Drivers/STM32G0xx_HAL_Driver/Inc/stm32g0xx_ll_exti.h **** #endif /* STM32G081xx || STM32G071xx || STM32G0C1xx || STM32G0B1xx || STM32G0B0xx */
 361:Drivers/STM32G0xx_HAL_Driver/Inc/stm32g0xx_ll_exti.h **** 
 362:Drivers/STM32G0xx_HAL_Driver/Inc/stm32g0xx_ll_exti.h **** /**
 363:Drivers/STM32G0xx_HAL_Driver/Inc/stm32g0xx_ll_exti.h ****   * @brief  Disable ExtiLine Interrupt request for Lines in range 0 to 31
 364:Drivers/STM32G0xx_HAL_Driver/Inc/stm32g0xx_ll_exti.h ****   * @note The reset value for the direct or internal lines (see RM)
 365:Drivers/STM32G0xx_HAL_Driver/Inc/stm32g0xx_ll_exti.h ****   *       is set to 1 in order to enable the interrupt by default.
 366:Drivers/STM32G0xx_HAL_Driver/Inc/stm32g0xx_ll_exti.h ****   *       Bits are set automatically at Power on.
 367:Drivers/STM32G0xx_HAL_Driver/Inc/stm32g0xx_ll_exti.h ****   * @rmtoll IMR1         IMx           LL_EXTI_DisableIT_0_31
 368:Drivers/STM32G0xx_HAL_Driver/Inc/stm32g0xx_ll_exti.h ****   * @param  ExtiLine This parameter can be one of the following values:
 369:Drivers/STM32G0xx_HAL_Driver/Inc/stm32g0xx_ll_exti.h ****   *         @arg @ref LL_EXTI_LINE_0
 370:Drivers/STM32G0xx_HAL_Driver/Inc/stm32g0xx_ll_exti.h ****   *         @arg @ref LL_EXTI_LINE_1
 371:Drivers/STM32G0xx_HAL_Driver/Inc/stm32g0xx_ll_exti.h ****   *         @arg @ref LL_EXTI_LINE_2
 372:Drivers/STM32G0xx_HAL_Driver/Inc/stm32g0xx_ll_exti.h ****   *         @arg @ref LL_EXTI_LINE_3
 373:Drivers/STM32G0xx_HAL_Driver/Inc/stm32g0xx_ll_exti.h ****   *         @arg @ref LL_EXTI_LINE_4
 374:Drivers/STM32G0xx_HAL_Driver/Inc/stm32g0xx_ll_exti.h ****   *         @arg @ref LL_EXTI_LINE_5
 375:Drivers/STM32G0xx_HAL_Driver/Inc/stm32g0xx_ll_exti.h ****   *         @arg @ref LL_EXTI_LINE_6
 376:Drivers/STM32G0xx_HAL_Driver/Inc/stm32g0xx_ll_exti.h ****   *         @arg @ref LL_EXTI_LINE_7
 377:Drivers/STM32G0xx_HAL_Driver/Inc/stm32g0xx_ll_exti.h ****   *         @arg @ref LL_EXTI_LINE_8
 378:Drivers/STM32G0xx_HAL_Driver/Inc/stm32g0xx_ll_exti.h ****   *         @arg @ref LL_EXTI_LINE_9
 379:Drivers/STM32G0xx_HAL_Driver/Inc/stm32g0xx_ll_exti.h ****   *         @arg @ref LL_EXTI_LINE_10
ARM GAS  /tmp/ccXPwwLX.s 			page 13


 380:Drivers/STM32G0xx_HAL_Driver/Inc/stm32g0xx_ll_exti.h ****   *         @arg @ref LL_EXTI_LINE_11
 381:Drivers/STM32G0xx_HAL_Driver/Inc/stm32g0xx_ll_exti.h ****   *         @arg @ref LL_EXTI_LINE_12
 382:Drivers/STM32G0xx_HAL_Driver/Inc/stm32g0xx_ll_exti.h ****   *         @arg @ref LL_EXTI_LINE_13
 383:Drivers/STM32G0xx_HAL_Driver/Inc/stm32g0xx_ll_exti.h ****   *         @arg @ref LL_EXTI_LINE_14
 384:Drivers/STM32G0xx_HAL_Driver/Inc/stm32g0xx_ll_exti.h ****   *         @arg @ref LL_EXTI_LINE_15
 385:Drivers/STM32G0xx_HAL_Driver/Inc/stm32g0xx_ll_exti.h ****   *         @arg @ref LL_EXTI_LINE_16
 386:Drivers/STM32G0xx_HAL_Driver/Inc/stm32g0xx_ll_exti.h ****   *         @arg @ref LL_EXTI_LINE_17
 387:Drivers/STM32G0xx_HAL_Driver/Inc/stm32g0xx_ll_exti.h ****   *         @arg @ref LL_EXTI_LINE_18
 388:Drivers/STM32G0xx_HAL_Driver/Inc/stm32g0xx_ll_exti.h ****   *         @arg @ref LL_EXTI_LINE_19
 389:Drivers/STM32G0xx_HAL_Driver/Inc/stm32g0xx_ll_exti.h ****   *         @arg @ref LL_EXTI_LINE_21
 390:Drivers/STM32G0xx_HAL_Driver/Inc/stm32g0xx_ll_exti.h ****   *         @arg @ref LL_EXTI_LINE_23
 391:Drivers/STM32G0xx_HAL_Driver/Inc/stm32g0xx_ll_exti.h ****   *         @arg @ref LL_EXTI_LINE_25
 392:Drivers/STM32G0xx_HAL_Driver/Inc/stm32g0xx_ll_exti.h ****   *         @arg @ref LL_EXTI_LINE_26
 393:Drivers/STM32G0xx_HAL_Driver/Inc/stm32g0xx_ll_exti.h ****   *         @arg @ref LL_EXTI_LINE_27
 394:Drivers/STM32G0xx_HAL_Driver/Inc/stm32g0xx_ll_exti.h ****   *         @arg @ref LL_EXTI_LINE_28
 395:Drivers/STM32G0xx_HAL_Driver/Inc/stm32g0xx_ll_exti.h ****   *         @arg @ref LL_EXTI_LINE_29
 396:Drivers/STM32G0xx_HAL_Driver/Inc/stm32g0xx_ll_exti.h ****   *         @arg @ref LL_EXTI_LINE_30
 397:Drivers/STM32G0xx_HAL_Driver/Inc/stm32g0xx_ll_exti.h ****   *         @arg @ref LL_EXTI_LINE_31
 398:Drivers/STM32G0xx_HAL_Driver/Inc/stm32g0xx_ll_exti.h ****   *         @arg @ref LL_EXTI_LINE_ALL_0_31
 399:Drivers/STM32G0xx_HAL_Driver/Inc/stm32g0xx_ll_exti.h ****   * @note   Please check each device line mapping for EXTI Line availability
 400:Drivers/STM32G0xx_HAL_Driver/Inc/stm32g0xx_ll_exti.h ****   * @retval None
 401:Drivers/STM32G0xx_HAL_Driver/Inc/stm32g0xx_ll_exti.h ****   */
 402:Drivers/STM32G0xx_HAL_Driver/Inc/stm32g0xx_ll_exti.h **** __STATIC_INLINE void LL_EXTI_DisableIT_0_31(uint32_t ExtiLine)
 403:Drivers/STM32G0xx_HAL_Driver/Inc/stm32g0xx_ll_exti.h **** {
 404:Drivers/STM32G0xx_HAL_Driver/Inc/stm32g0xx_ll_exti.h ****   CLEAR_BIT(EXTI->IMR1, ExtiLine);
 405:Drivers/STM32G0xx_HAL_Driver/Inc/stm32g0xx_ll_exti.h **** }
 406:Drivers/STM32G0xx_HAL_Driver/Inc/stm32g0xx_ll_exti.h **** 
 407:Drivers/STM32G0xx_HAL_Driver/Inc/stm32g0xx_ll_exti.h **** #if defined(STM32G081xx) || defined(STM32G071xx) || defined(STM32G0C1xx) || defined(STM32G0B1xx) ||
 408:Drivers/STM32G0xx_HAL_Driver/Inc/stm32g0xx_ll_exti.h **** /**
 409:Drivers/STM32G0xx_HAL_Driver/Inc/stm32g0xx_ll_exti.h ****   * @brief  Disable ExtiLine Interrupt request for Lines in range 32 to 63
 410:Drivers/STM32G0xx_HAL_Driver/Inc/stm32g0xx_ll_exti.h ****   * @note The reset value for the direct lines (lines 32 & 33)
 411:Drivers/STM32G0xx_HAL_Driver/Inc/stm32g0xx_ll_exti.h ****   *       is set to 1 in order to enable the interrupt by default.
 412:Drivers/STM32G0xx_HAL_Driver/Inc/stm32g0xx_ll_exti.h ****   *       Bits are set automatically at Power on.
 413:Drivers/STM32G0xx_HAL_Driver/Inc/stm32g0xx_ll_exti.h ****   * @rmtoll IMR2         IMx           LL_EXTI_DisableIT_32_63
 414:Drivers/STM32G0xx_HAL_Driver/Inc/stm32g0xx_ll_exti.h ****   * @param  ExtiLine This parameter can be one of the following values:
 415:Drivers/STM32G0xx_HAL_Driver/Inc/stm32g0xx_ll_exti.h ****   *         @arg @ref LL_EXTI_LINE_32
 416:Drivers/STM32G0xx_HAL_Driver/Inc/stm32g0xx_ll_exti.h ****   *         @arg @ref LL_EXTI_LINE_33
 417:Drivers/STM32G0xx_HAL_Driver/Inc/stm32g0xx_ll_exti.h ****   *         @arg @ref LL_EXTI_LINE_34
 418:Drivers/STM32G0xx_HAL_Driver/Inc/stm32g0xx_ll_exti.h ****   *         @arg @ref LL_EXTI_LINE_35
 419:Drivers/STM32G0xx_HAL_Driver/Inc/stm32g0xx_ll_exti.h ****   *         @arg @ref LL_EXTI_LINE_36
 420:Drivers/STM32G0xx_HAL_Driver/Inc/stm32g0xx_ll_exti.h ****   *         @arg @ref LL_EXTI_LINE_ALL_32_63
 421:Drivers/STM32G0xx_HAL_Driver/Inc/stm32g0xx_ll_exti.h ****   * @note   Please check each device line mapping for EXTI Line availability
 422:Drivers/STM32G0xx_HAL_Driver/Inc/stm32g0xx_ll_exti.h ****   * @retval None
 423:Drivers/STM32G0xx_HAL_Driver/Inc/stm32g0xx_ll_exti.h ****   */
 424:Drivers/STM32G0xx_HAL_Driver/Inc/stm32g0xx_ll_exti.h **** __STATIC_INLINE void LL_EXTI_DisableIT_32_63(uint32_t ExtiLine)
 425:Drivers/STM32G0xx_HAL_Driver/Inc/stm32g0xx_ll_exti.h **** {
 426:Drivers/STM32G0xx_HAL_Driver/Inc/stm32g0xx_ll_exti.h ****   CLEAR_BIT(EXTI->IMR2, ExtiLine);
 427:Drivers/STM32G0xx_HAL_Driver/Inc/stm32g0xx_ll_exti.h **** }
 428:Drivers/STM32G0xx_HAL_Driver/Inc/stm32g0xx_ll_exti.h **** #endif /* STM32G081xx || STM32G071xx || STM32G0C1xx || STM32G0B1xx || STM32G0B0xx */
 429:Drivers/STM32G0xx_HAL_Driver/Inc/stm32g0xx_ll_exti.h **** 
 430:Drivers/STM32G0xx_HAL_Driver/Inc/stm32g0xx_ll_exti.h **** /**
 431:Drivers/STM32G0xx_HAL_Driver/Inc/stm32g0xx_ll_exti.h ****   * @brief  Indicate if ExtiLine Interrupt request is enabled for Lines in range 0 to 31
 432:Drivers/STM32G0xx_HAL_Driver/Inc/stm32g0xx_ll_exti.h ****   * @note The reset value for the direct or internal lines (see RM)
 433:Drivers/STM32G0xx_HAL_Driver/Inc/stm32g0xx_ll_exti.h ****   *       is set to 1 in order to enable the interrupt by default.
 434:Drivers/STM32G0xx_HAL_Driver/Inc/stm32g0xx_ll_exti.h ****   *       Bits are set automatically at Power on.
 435:Drivers/STM32G0xx_HAL_Driver/Inc/stm32g0xx_ll_exti.h ****   * @rmtoll IMR1         IMx           LL_EXTI_IsEnabledIT_0_31
 436:Drivers/STM32G0xx_HAL_Driver/Inc/stm32g0xx_ll_exti.h ****   * @param  ExtiLine This parameter can be one of the following values:
ARM GAS  /tmp/ccXPwwLX.s 			page 14


 437:Drivers/STM32G0xx_HAL_Driver/Inc/stm32g0xx_ll_exti.h ****   *         @arg @ref LL_EXTI_LINE_0
 438:Drivers/STM32G0xx_HAL_Driver/Inc/stm32g0xx_ll_exti.h ****   *         @arg @ref LL_EXTI_LINE_1
 439:Drivers/STM32G0xx_HAL_Driver/Inc/stm32g0xx_ll_exti.h ****   *         @arg @ref LL_EXTI_LINE_2
 440:Drivers/STM32G0xx_HAL_Driver/Inc/stm32g0xx_ll_exti.h ****   *         @arg @ref LL_EXTI_LINE_3
 441:Drivers/STM32G0xx_HAL_Driver/Inc/stm32g0xx_ll_exti.h ****   *         @arg @ref LL_EXTI_LINE_4
 442:Drivers/STM32G0xx_HAL_Driver/Inc/stm32g0xx_ll_exti.h ****   *         @arg @ref LL_EXTI_LINE_5
 443:Drivers/STM32G0xx_HAL_Driver/Inc/stm32g0xx_ll_exti.h ****   *         @arg @ref LL_EXTI_LINE_6
 444:Drivers/STM32G0xx_HAL_Driver/Inc/stm32g0xx_ll_exti.h ****   *         @arg @ref LL_EXTI_LINE_7
 445:Drivers/STM32G0xx_HAL_Driver/Inc/stm32g0xx_ll_exti.h ****   *         @arg @ref LL_EXTI_LINE_8
 446:Drivers/STM32G0xx_HAL_Driver/Inc/stm32g0xx_ll_exti.h ****   *         @arg @ref LL_EXTI_LINE_9
 447:Drivers/STM32G0xx_HAL_Driver/Inc/stm32g0xx_ll_exti.h ****   *         @arg @ref LL_EXTI_LINE_10
 448:Drivers/STM32G0xx_HAL_Driver/Inc/stm32g0xx_ll_exti.h ****   *         @arg @ref LL_EXTI_LINE_11
 449:Drivers/STM32G0xx_HAL_Driver/Inc/stm32g0xx_ll_exti.h ****   *         @arg @ref LL_EXTI_LINE_12
 450:Drivers/STM32G0xx_HAL_Driver/Inc/stm32g0xx_ll_exti.h ****   *         @arg @ref LL_EXTI_LINE_13
 451:Drivers/STM32G0xx_HAL_Driver/Inc/stm32g0xx_ll_exti.h ****   *         @arg @ref LL_EXTI_LINE_14
 452:Drivers/STM32G0xx_HAL_Driver/Inc/stm32g0xx_ll_exti.h ****   *         @arg @ref LL_EXTI_LINE_15
 453:Drivers/STM32G0xx_HAL_Driver/Inc/stm32g0xx_ll_exti.h ****   *         @arg @ref LL_EXTI_LINE_16
 454:Drivers/STM32G0xx_HAL_Driver/Inc/stm32g0xx_ll_exti.h ****   *         @arg @ref LL_EXTI_LINE_17
 455:Drivers/STM32G0xx_HAL_Driver/Inc/stm32g0xx_ll_exti.h ****   *         @arg @ref LL_EXTI_LINE_18
 456:Drivers/STM32G0xx_HAL_Driver/Inc/stm32g0xx_ll_exti.h ****   *         @arg @ref LL_EXTI_LINE_19
 457:Drivers/STM32G0xx_HAL_Driver/Inc/stm32g0xx_ll_exti.h ****   *         @arg @ref LL_EXTI_LINE_21
 458:Drivers/STM32G0xx_HAL_Driver/Inc/stm32g0xx_ll_exti.h ****   *         @arg @ref LL_EXTI_LINE_23
 459:Drivers/STM32G0xx_HAL_Driver/Inc/stm32g0xx_ll_exti.h ****   *         @arg @ref LL_EXTI_LINE_25
 460:Drivers/STM32G0xx_HAL_Driver/Inc/stm32g0xx_ll_exti.h ****   *         @arg @ref LL_EXTI_LINE_26
 461:Drivers/STM32G0xx_HAL_Driver/Inc/stm32g0xx_ll_exti.h ****   *         @arg @ref LL_EXTI_LINE_27
 462:Drivers/STM32G0xx_HAL_Driver/Inc/stm32g0xx_ll_exti.h ****   *         @arg @ref LL_EXTI_LINE_28
 463:Drivers/STM32G0xx_HAL_Driver/Inc/stm32g0xx_ll_exti.h ****   *         @arg @ref LL_EXTI_LINE_29
 464:Drivers/STM32G0xx_HAL_Driver/Inc/stm32g0xx_ll_exti.h ****   *         @arg @ref LL_EXTI_LINE_30
 465:Drivers/STM32G0xx_HAL_Driver/Inc/stm32g0xx_ll_exti.h ****   *         @arg @ref LL_EXTI_LINE_31
 466:Drivers/STM32G0xx_HAL_Driver/Inc/stm32g0xx_ll_exti.h ****   *         @arg @ref LL_EXTI_LINE_ALL_0_31
 467:Drivers/STM32G0xx_HAL_Driver/Inc/stm32g0xx_ll_exti.h ****   * @note   Please check each device line mapping for EXTI Line availability
 468:Drivers/STM32G0xx_HAL_Driver/Inc/stm32g0xx_ll_exti.h ****   * @retval State of bit (1 or 0).
 469:Drivers/STM32G0xx_HAL_Driver/Inc/stm32g0xx_ll_exti.h ****   */
 470:Drivers/STM32G0xx_HAL_Driver/Inc/stm32g0xx_ll_exti.h **** __STATIC_INLINE uint32_t LL_EXTI_IsEnabledIT_0_31(uint32_t ExtiLine)
 471:Drivers/STM32G0xx_HAL_Driver/Inc/stm32g0xx_ll_exti.h **** {
 472:Drivers/STM32G0xx_HAL_Driver/Inc/stm32g0xx_ll_exti.h ****   return ((READ_BIT(EXTI->IMR1, ExtiLine) == (ExtiLine)) ? 1UL : 0UL);
 473:Drivers/STM32G0xx_HAL_Driver/Inc/stm32g0xx_ll_exti.h **** }
 474:Drivers/STM32G0xx_HAL_Driver/Inc/stm32g0xx_ll_exti.h **** 
 475:Drivers/STM32G0xx_HAL_Driver/Inc/stm32g0xx_ll_exti.h **** #if defined(STM32G081xx) || defined(STM32G071xx) || defined(STM32G0C1xx) || defined(STM32G0B1xx) ||
 476:Drivers/STM32G0xx_HAL_Driver/Inc/stm32g0xx_ll_exti.h **** /**
 477:Drivers/STM32G0xx_HAL_Driver/Inc/stm32g0xx_ll_exti.h ****   * @brief  Indicate if ExtiLine Interrupt request is enabled for Lines in range 32 to 63
 478:Drivers/STM32G0xx_HAL_Driver/Inc/stm32g0xx_ll_exti.h ****   * @note The reset value for the direct lines (lines 32 & 33)
 479:Drivers/STM32G0xx_HAL_Driver/Inc/stm32g0xx_ll_exti.h ****   *       is set to 1 in order to enable the interrupt by default.
 480:Drivers/STM32G0xx_HAL_Driver/Inc/stm32g0xx_ll_exti.h ****   * @rmtoll IMR2         IMx           LL_EXTI_IsEnabledIT_32_63
 481:Drivers/STM32G0xx_HAL_Driver/Inc/stm32g0xx_ll_exti.h ****   * @param  ExtiLine This parameter can be one of the following values:
 482:Drivers/STM32G0xx_HAL_Driver/Inc/stm32g0xx_ll_exti.h ****   *         @arg @ref LL_EXTI_LINE_32
 483:Drivers/STM32G0xx_HAL_Driver/Inc/stm32g0xx_ll_exti.h ****   *         @arg @ref LL_EXTI_LINE_33
 484:Drivers/STM32G0xx_HAL_Driver/Inc/stm32g0xx_ll_exti.h ****   *         @arg @ref LL_EXTI_LINE_34
 485:Drivers/STM32G0xx_HAL_Driver/Inc/stm32g0xx_ll_exti.h ****   *         @arg @ref LL_EXTI_LINE_35
 486:Drivers/STM32G0xx_HAL_Driver/Inc/stm32g0xx_ll_exti.h ****   *         @arg @ref LL_EXTI_LINE_36
 487:Drivers/STM32G0xx_HAL_Driver/Inc/stm32g0xx_ll_exti.h ****   *         @arg @ref LL_EXTI_LINE_ALL_32_63
 488:Drivers/STM32G0xx_HAL_Driver/Inc/stm32g0xx_ll_exti.h ****   * @note   Please check each device line mapping for EXTI Line availability
 489:Drivers/STM32G0xx_HAL_Driver/Inc/stm32g0xx_ll_exti.h ****   * @retval State of bit (1 or 0).
 490:Drivers/STM32G0xx_HAL_Driver/Inc/stm32g0xx_ll_exti.h ****   */
 491:Drivers/STM32G0xx_HAL_Driver/Inc/stm32g0xx_ll_exti.h **** __STATIC_INLINE uint32_t LL_EXTI_IsEnabledIT_32_63(uint32_t ExtiLine)
 492:Drivers/STM32G0xx_HAL_Driver/Inc/stm32g0xx_ll_exti.h **** {
 493:Drivers/STM32G0xx_HAL_Driver/Inc/stm32g0xx_ll_exti.h ****   return ((READ_BIT(EXTI->IMR2, ExtiLine) == (ExtiLine)) ? 1UL : 0UL);
ARM GAS  /tmp/ccXPwwLX.s 			page 15


 494:Drivers/STM32G0xx_HAL_Driver/Inc/stm32g0xx_ll_exti.h **** }
 495:Drivers/STM32G0xx_HAL_Driver/Inc/stm32g0xx_ll_exti.h **** #endif /* STM32G081xx || STM32G071xx || STM32G0C1xx || STM32G0B1xx || STM32G0B0xx */
 496:Drivers/STM32G0xx_HAL_Driver/Inc/stm32g0xx_ll_exti.h **** 
 497:Drivers/STM32G0xx_HAL_Driver/Inc/stm32g0xx_ll_exti.h **** /**
 498:Drivers/STM32G0xx_HAL_Driver/Inc/stm32g0xx_ll_exti.h ****   * @}
 499:Drivers/STM32G0xx_HAL_Driver/Inc/stm32g0xx_ll_exti.h ****   */
 500:Drivers/STM32G0xx_HAL_Driver/Inc/stm32g0xx_ll_exti.h **** 
 501:Drivers/STM32G0xx_HAL_Driver/Inc/stm32g0xx_ll_exti.h **** /** @defgroup EXTI_LL_EF_Event_Management Event_Management
 502:Drivers/STM32G0xx_HAL_Driver/Inc/stm32g0xx_ll_exti.h ****   * @{
 503:Drivers/STM32G0xx_HAL_Driver/Inc/stm32g0xx_ll_exti.h ****   */
 504:Drivers/STM32G0xx_HAL_Driver/Inc/stm32g0xx_ll_exti.h **** 
 505:Drivers/STM32G0xx_HAL_Driver/Inc/stm32g0xx_ll_exti.h **** /**
 506:Drivers/STM32G0xx_HAL_Driver/Inc/stm32g0xx_ll_exti.h ****   * @brief  Enable ExtiLine Event request for Lines in range 0 to 31
 507:Drivers/STM32G0xx_HAL_Driver/Inc/stm32g0xx_ll_exti.h ****   * @rmtoll EMR1         EMx           LL_EXTI_EnableEvent_0_31
 508:Drivers/STM32G0xx_HAL_Driver/Inc/stm32g0xx_ll_exti.h ****   * @param  ExtiLine This parameter can be one of the following values:
 509:Drivers/STM32G0xx_HAL_Driver/Inc/stm32g0xx_ll_exti.h ****   *         @arg @ref LL_EXTI_LINE_0
 510:Drivers/STM32G0xx_HAL_Driver/Inc/stm32g0xx_ll_exti.h ****   *         @arg @ref LL_EXTI_LINE_1
 511:Drivers/STM32G0xx_HAL_Driver/Inc/stm32g0xx_ll_exti.h ****   *         @arg @ref LL_EXTI_LINE_2
 512:Drivers/STM32G0xx_HAL_Driver/Inc/stm32g0xx_ll_exti.h ****   *         @arg @ref LL_EXTI_LINE_3
 513:Drivers/STM32G0xx_HAL_Driver/Inc/stm32g0xx_ll_exti.h ****   *         @arg @ref LL_EXTI_LINE_4
 514:Drivers/STM32G0xx_HAL_Driver/Inc/stm32g0xx_ll_exti.h ****   *         @arg @ref LL_EXTI_LINE_5
 515:Drivers/STM32G0xx_HAL_Driver/Inc/stm32g0xx_ll_exti.h ****   *         @arg @ref LL_EXTI_LINE_6
 516:Drivers/STM32G0xx_HAL_Driver/Inc/stm32g0xx_ll_exti.h ****   *         @arg @ref LL_EXTI_LINE_7
 517:Drivers/STM32G0xx_HAL_Driver/Inc/stm32g0xx_ll_exti.h ****   *         @arg @ref LL_EXTI_LINE_8
 518:Drivers/STM32G0xx_HAL_Driver/Inc/stm32g0xx_ll_exti.h ****   *         @arg @ref LL_EXTI_LINE_9
 519:Drivers/STM32G0xx_HAL_Driver/Inc/stm32g0xx_ll_exti.h ****   *         @arg @ref LL_EXTI_LINE_10
 520:Drivers/STM32G0xx_HAL_Driver/Inc/stm32g0xx_ll_exti.h ****   *         @arg @ref LL_EXTI_LINE_11
 521:Drivers/STM32G0xx_HAL_Driver/Inc/stm32g0xx_ll_exti.h ****   *         @arg @ref LL_EXTI_LINE_12
 522:Drivers/STM32G0xx_HAL_Driver/Inc/stm32g0xx_ll_exti.h ****   *         @arg @ref LL_EXTI_LINE_13
 523:Drivers/STM32G0xx_HAL_Driver/Inc/stm32g0xx_ll_exti.h ****   *         @arg @ref LL_EXTI_LINE_14
 524:Drivers/STM32G0xx_HAL_Driver/Inc/stm32g0xx_ll_exti.h ****   *         @arg @ref LL_EXTI_LINE_15
 525:Drivers/STM32G0xx_HAL_Driver/Inc/stm32g0xx_ll_exti.h ****   *         @arg @ref LL_EXTI_LINE_16
 526:Drivers/STM32G0xx_HAL_Driver/Inc/stm32g0xx_ll_exti.h ****   *         @arg @ref LL_EXTI_LINE_17
 527:Drivers/STM32G0xx_HAL_Driver/Inc/stm32g0xx_ll_exti.h ****   *         @arg @ref LL_EXTI_LINE_18
 528:Drivers/STM32G0xx_HAL_Driver/Inc/stm32g0xx_ll_exti.h ****   *         @arg @ref LL_EXTI_LINE_19
 529:Drivers/STM32G0xx_HAL_Driver/Inc/stm32g0xx_ll_exti.h ****   *         @arg @ref LL_EXTI_LINE_21
 530:Drivers/STM32G0xx_HAL_Driver/Inc/stm32g0xx_ll_exti.h ****   *         @arg @ref LL_EXTI_LINE_23
 531:Drivers/STM32G0xx_HAL_Driver/Inc/stm32g0xx_ll_exti.h ****   *         @arg @ref LL_EXTI_LINE_25
 532:Drivers/STM32G0xx_HAL_Driver/Inc/stm32g0xx_ll_exti.h ****   *         @arg @ref LL_EXTI_LINE_26
 533:Drivers/STM32G0xx_HAL_Driver/Inc/stm32g0xx_ll_exti.h ****   *         @arg @ref LL_EXTI_LINE_27
 534:Drivers/STM32G0xx_HAL_Driver/Inc/stm32g0xx_ll_exti.h ****   *         @arg @ref LL_EXTI_LINE_28
 535:Drivers/STM32G0xx_HAL_Driver/Inc/stm32g0xx_ll_exti.h ****   *         @arg @ref LL_EXTI_LINE_29
 536:Drivers/STM32G0xx_HAL_Driver/Inc/stm32g0xx_ll_exti.h ****   *         @arg @ref LL_EXTI_LINE_30
 537:Drivers/STM32G0xx_HAL_Driver/Inc/stm32g0xx_ll_exti.h ****   *         @arg @ref LL_EXTI_LINE_31
 538:Drivers/STM32G0xx_HAL_Driver/Inc/stm32g0xx_ll_exti.h ****   *         @arg @ref LL_EXTI_LINE_ALL_0_31
 539:Drivers/STM32G0xx_HAL_Driver/Inc/stm32g0xx_ll_exti.h ****   * @note   Please check each device line mapping for EXTI Line availability
 540:Drivers/STM32G0xx_HAL_Driver/Inc/stm32g0xx_ll_exti.h ****   * @retval None
 541:Drivers/STM32G0xx_HAL_Driver/Inc/stm32g0xx_ll_exti.h ****   */
 542:Drivers/STM32G0xx_HAL_Driver/Inc/stm32g0xx_ll_exti.h **** __STATIC_INLINE void LL_EXTI_EnableEvent_0_31(uint32_t ExtiLine)
 543:Drivers/STM32G0xx_HAL_Driver/Inc/stm32g0xx_ll_exti.h **** {
 544:Drivers/STM32G0xx_HAL_Driver/Inc/stm32g0xx_ll_exti.h ****   SET_BIT(EXTI->EMR1, ExtiLine);
 545:Drivers/STM32G0xx_HAL_Driver/Inc/stm32g0xx_ll_exti.h **** 
 546:Drivers/STM32G0xx_HAL_Driver/Inc/stm32g0xx_ll_exti.h **** }
 547:Drivers/STM32G0xx_HAL_Driver/Inc/stm32g0xx_ll_exti.h **** 
 548:Drivers/STM32G0xx_HAL_Driver/Inc/stm32g0xx_ll_exti.h **** #if defined(STM32G081xx) || defined(STM32G071xx) || defined(STM32G0C1xx) || defined(STM32G0B1xx) ||
 549:Drivers/STM32G0xx_HAL_Driver/Inc/stm32g0xx_ll_exti.h **** /**
 550:Drivers/STM32G0xx_HAL_Driver/Inc/stm32g0xx_ll_exti.h ****   * @brief  Enable ExtiLine Event request for Lines in range 32 to 63
ARM GAS  /tmp/ccXPwwLX.s 			page 16


 551:Drivers/STM32G0xx_HAL_Driver/Inc/stm32g0xx_ll_exti.h ****   * @rmtoll EMR2         EMx           LL_EXTI_EnableEvent_32_63
 552:Drivers/STM32G0xx_HAL_Driver/Inc/stm32g0xx_ll_exti.h ****   * @param  ExtiLine This parameter can be a combination of the following values:
 553:Drivers/STM32G0xx_HAL_Driver/Inc/stm32g0xx_ll_exti.h ****   *         @arg @ref LL_EXTI_LINE_32
 554:Drivers/STM32G0xx_HAL_Driver/Inc/stm32g0xx_ll_exti.h ****   *         @arg @ref LL_EXTI_LINE_33
 555:Drivers/STM32G0xx_HAL_Driver/Inc/stm32g0xx_ll_exti.h ****   *         @arg @ref LL_EXTI_LINE_34
 556:Drivers/STM32G0xx_HAL_Driver/Inc/stm32g0xx_ll_exti.h ****   *         @arg @ref LL_EXTI_LINE_35
 557:Drivers/STM32G0xx_HAL_Driver/Inc/stm32g0xx_ll_exti.h ****   *         @arg @ref LL_EXTI_LINE_36
 558:Drivers/STM32G0xx_HAL_Driver/Inc/stm32g0xx_ll_exti.h ****   *         @arg @ref LL_EXTI_LINE_ALL_32_63
 559:Drivers/STM32G0xx_HAL_Driver/Inc/stm32g0xx_ll_exti.h ****   * @note   Please check each device line mapping for EXTI Line availability
 560:Drivers/STM32G0xx_HAL_Driver/Inc/stm32g0xx_ll_exti.h ****   * @retval None
 561:Drivers/STM32G0xx_HAL_Driver/Inc/stm32g0xx_ll_exti.h ****   */
 562:Drivers/STM32G0xx_HAL_Driver/Inc/stm32g0xx_ll_exti.h **** __STATIC_INLINE void LL_EXTI_EnableEvent_32_63(uint32_t ExtiLine)
 563:Drivers/STM32G0xx_HAL_Driver/Inc/stm32g0xx_ll_exti.h **** {
 564:Drivers/STM32G0xx_HAL_Driver/Inc/stm32g0xx_ll_exti.h ****   SET_BIT(EXTI->EMR2, ExtiLine);
 565:Drivers/STM32G0xx_HAL_Driver/Inc/stm32g0xx_ll_exti.h **** }
 566:Drivers/STM32G0xx_HAL_Driver/Inc/stm32g0xx_ll_exti.h **** #endif /* STM32G081xx || STM32G071xx || STM32G0C1xx || STM32G0B1xx || STM32G0B0xx */
 567:Drivers/STM32G0xx_HAL_Driver/Inc/stm32g0xx_ll_exti.h **** /**
 568:Drivers/STM32G0xx_HAL_Driver/Inc/stm32g0xx_ll_exti.h ****   * @brief  Disable ExtiLine Event request for Lines in range 0 to 31
 569:Drivers/STM32G0xx_HAL_Driver/Inc/stm32g0xx_ll_exti.h ****   * @rmtoll EMR1         EMx           LL_EXTI_DisableEvent_0_31
 570:Drivers/STM32G0xx_HAL_Driver/Inc/stm32g0xx_ll_exti.h ****   * @param  ExtiLine This parameter can be one of the following values:
 571:Drivers/STM32G0xx_HAL_Driver/Inc/stm32g0xx_ll_exti.h ****   *         @arg @ref LL_EXTI_LINE_0
 572:Drivers/STM32G0xx_HAL_Driver/Inc/stm32g0xx_ll_exti.h ****   *         @arg @ref LL_EXTI_LINE_1
 573:Drivers/STM32G0xx_HAL_Driver/Inc/stm32g0xx_ll_exti.h ****   *         @arg @ref LL_EXTI_LINE_2
 574:Drivers/STM32G0xx_HAL_Driver/Inc/stm32g0xx_ll_exti.h ****   *         @arg @ref LL_EXTI_LINE_3
 575:Drivers/STM32G0xx_HAL_Driver/Inc/stm32g0xx_ll_exti.h ****   *         @arg @ref LL_EXTI_LINE_4
 576:Drivers/STM32G0xx_HAL_Driver/Inc/stm32g0xx_ll_exti.h ****   *         @arg @ref LL_EXTI_LINE_5
 577:Drivers/STM32G0xx_HAL_Driver/Inc/stm32g0xx_ll_exti.h ****   *         @arg @ref LL_EXTI_LINE_6
 578:Drivers/STM32G0xx_HAL_Driver/Inc/stm32g0xx_ll_exti.h ****   *         @arg @ref LL_EXTI_LINE_7
 579:Drivers/STM32G0xx_HAL_Driver/Inc/stm32g0xx_ll_exti.h ****   *         @arg @ref LL_EXTI_LINE_8
 580:Drivers/STM32G0xx_HAL_Driver/Inc/stm32g0xx_ll_exti.h ****   *         @arg @ref LL_EXTI_LINE_9
 581:Drivers/STM32G0xx_HAL_Driver/Inc/stm32g0xx_ll_exti.h ****   *         @arg @ref LL_EXTI_LINE_10
 582:Drivers/STM32G0xx_HAL_Driver/Inc/stm32g0xx_ll_exti.h ****   *         @arg @ref LL_EXTI_LINE_11
 583:Drivers/STM32G0xx_HAL_Driver/Inc/stm32g0xx_ll_exti.h ****   *         @arg @ref LL_EXTI_LINE_12
 584:Drivers/STM32G0xx_HAL_Driver/Inc/stm32g0xx_ll_exti.h ****   *         @arg @ref LL_EXTI_LINE_13
 585:Drivers/STM32G0xx_HAL_Driver/Inc/stm32g0xx_ll_exti.h ****   *         @arg @ref LL_EXTI_LINE_14
 586:Drivers/STM32G0xx_HAL_Driver/Inc/stm32g0xx_ll_exti.h ****   *         @arg @ref LL_EXTI_LINE_15
 587:Drivers/STM32G0xx_HAL_Driver/Inc/stm32g0xx_ll_exti.h ****   *         @arg @ref LL_EXTI_LINE_16
 588:Drivers/STM32G0xx_HAL_Driver/Inc/stm32g0xx_ll_exti.h ****   *         @arg @ref LL_EXTI_LINE_17
 589:Drivers/STM32G0xx_HAL_Driver/Inc/stm32g0xx_ll_exti.h ****   *         @arg @ref LL_EXTI_LINE_18
 590:Drivers/STM32G0xx_HAL_Driver/Inc/stm32g0xx_ll_exti.h ****   *         @arg @ref LL_EXTI_LINE_19
 591:Drivers/STM32G0xx_HAL_Driver/Inc/stm32g0xx_ll_exti.h ****   *         @arg @ref LL_EXTI_LINE_21
 592:Drivers/STM32G0xx_HAL_Driver/Inc/stm32g0xx_ll_exti.h ****   *         @arg @ref LL_EXTI_LINE_23
 593:Drivers/STM32G0xx_HAL_Driver/Inc/stm32g0xx_ll_exti.h ****   *         @arg @ref LL_EXTI_LINE_25
 594:Drivers/STM32G0xx_HAL_Driver/Inc/stm32g0xx_ll_exti.h ****   *         @arg @ref LL_EXTI_LINE_26
 595:Drivers/STM32G0xx_HAL_Driver/Inc/stm32g0xx_ll_exti.h ****   *         @arg @ref LL_EXTI_LINE_27
 596:Drivers/STM32G0xx_HAL_Driver/Inc/stm32g0xx_ll_exti.h ****   *         @arg @ref LL_EXTI_LINE_28
 597:Drivers/STM32G0xx_HAL_Driver/Inc/stm32g0xx_ll_exti.h ****   *         @arg @ref LL_EXTI_LINE_29
 598:Drivers/STM32G0xx_HAL_Driver/Inc/stm32g0xx_ll_exti.h ****   *         @arg @ref LL_EXTI_LINE_30
 599:Drivers/STM32G0xx_HAL_Driver/Inc/stm32g0xx_ll_exti.h ****   *         @arg @ref LL_EXTI_LINE_31
 600:Drivers/STM32G0xx_HAL_Driver/Inc/stm32g0xx_ll_exti.h ****   *         @arg @ref LL_EXTI_LINE_ALL_0_31
 601:Drivers/STM32G0xx_HAL_Driver/Inc/stm32g0xx_ll_exti.h ****   * @note   Please check each device line mapping for EXTI Line availability
 602:Drivers/STM32G0xx_HAL_Driver/Inc/stm32g0xx_ll_exti.h ****   * @retval None
 603:Drivers/STM32G0xx_HAL_Driver/Inc/stm32g0xx_ll_exti.h ****   */
 604:Drivers/STM32G0xx_HAL_Driver/Inc/stm32g0xx_ll_exti.h **** __STATIC_INLINE void LL_EXTI_DisableEvent_0_31(uint32_t ExtiLine)
 142              		.loc 2 604 22 view .LVU35
 143              	.LBB47:
 605:Drivers/STM32G0xx_HAL_Driver/Inc/stm32g0xx_ll_exti.h **** {
ARM GAS  /tmp/ccXPwwLX.s 			page 17


 606:Drivers/STM32G0xx_HAL_Driver/Inc/stm32g0xx_ll_exti.h ****   CLEAR_BIT(EXTI->EMR1, ExtiLine);
 144              		.loc 2 606 3 view .LVU36
 145 0020 554A     		ldr	r2, .L18
 146 0022 8421     		movs	r1, #132
 147 0024 8C46     		mov	ip, r1
 148 0026 5158     		ldr	r1, [r2, r1]
 149 0028 8143     		bics	r1, r0
 150 002a 6046     		mov	r0, ip
 151              	.LVL4:
 152              		.loc 2 606 3 is_stmt 0 view .LVU37
 153 002c 1150     		str	r1, [r2, r0]
 154              	.LVL5:
 155              		.loc 2 606 3 view .LVU38
 156              	.LBE47:
 157              	.LBE46:
 168:Drivers/STM32G0xx_HAL_Driver/Src/stm32g0xx_ll_exti.c ****           /* Then Enable IT on provided Lines */
 169:Drivers/STM32G0xx_HAL_Driver/Src/stm32g0xx_ll_exti.c ****           LL_EXTI_EnableIT_0_31(EXTI_InitStruct->Line_0_31);
 158              		.loc 1 169 11 is_stmt 1 view .LVU39
 159 002e 1968     		ldr	r1, [r3]
 160              	.LVL6:
 161              	.LBB48:
 162              	.LBI48:
 334:Drivers/STM32G0xx_HAL_Driver/Inc/stm32g0xx_ll_exti.h **** {
 163              		.loc 2 334 22 view .LVU40
 164              	.LBB49:
 336:Drivers/STM32G0xx_HAL_Driver/Inc/stm32g0xx_ll_exti.h **** }
 165              		.loc 2 336 3 view .LVU41
 166 0030 0438     		subs	r0, r0, #4
 167 0032 1458     		ldr	r4, [r2, r0]
 168 0034 2143     		orrs	r1, r4
 169              	.LVL7:
 336:Drivers/STM32G0xx_HAL_Driver/Inc/stm32g0xx_ll_exti.h **** }
 170              		.loc 2 336 3 is_stmt 0 view .LVU42
 171 0036 1150     		str	r1, [r2, r0]
 172              	.LVL8:
 336:Drivers/STM32G0xx_HAL_Driver/Inc/stm32g0xx_ll_exti.h **** }
 173              		.loc 2 336 3 view .LVU43
 174              	.LBE49:
 175              	.LBE48:
 170:Drivers/STM32G0xx_HAL_Driver/Src/stm32g0xx_ll_exti.c ****           break;
 176              		.loc 1 170 11 is_stmt 1 view .LVU44
 145:Drivers/STM32G0xx_HAL_Driver/Src/stm32g0xx_ll_exti.c **** 
 177              		.loc 1 145 12 is_stmt 0 view .LVU45
 178 0038 0020     		movs	r0, #0
 179              	.L9:
 180              	.LVL9:
 171:Drivers/STM32G0xx_HAL_Driver/Src/stm32g0xx_ll_exti.c ****         case LL_EXTI_MODE_EVENT:
 172:Drivers/STM32G0xx_HAL_Driver/Src/stm32g0xx_ll_exti.c ****           /* First Disable IT on provided Lines */
 173:Drivers/STM32G0xx_HAL_Driver/Src/stm32g0xx_ll_exti.c ****           LL_EXTI_DisableIT_0_31(EXTI_InitStruct->Line_0_31);
 174:Drivers/STM32G0xx_HAL_Driver/Src/stm32g0xx_ll_exti.c ****           /* Then Enable Event on provided Lines */
 175:Drivers/STM32G0xx_HAL_Driver/Src/stm32g0xx_ll_exti.c ****           LL_EXTI_EnableEvent_0_31(EXTI_InitStruct->Line_0_31);
 176:Drivers/STM32G0xx_HAL_Driver/Src/stm32g0xx_ll_exti.c ****           break;
 177:Drivers/STM32G0xx_HAL_Driver/Src/stm32g0xx_ll_exti.c ****         case LL_EXTI_MODE_IT_EVENT:
 178:Drivers/STM32G0xx_HAL_Driver/Src/stm32g0xx_ll_exti.c ****           /* Directly Enable IT & Event on provided Lines */
 179:Drivers/STM32G0xx_HAL_Driver/Src/stm32g0xx_ll_exti.c ****           LL_EXTI_EnableIT_0_31(EXTI_InitStruct->Line_0_31);
 180:Drivers/STM32G0xx_HAL_Driver/Src/stm32g0xx_ll_exti.c ****           LL_EXTI_EnableEvent_0_31(EXTI_InitStruct->Line_0_31);
 181:Drivers/STM32G0xx_HAL_Driver/Src/stm32g0xx_ll_exti.c ****           break;
ARM GAS  /tmp/ccXPwwLX.s 			page 18


 182:Drivers/STM32G0xx_HAL_Driver/Src/stm32g0xx_ll_exti.c ****         default:
 183:Drivers/STM32G0xx_HAL_Driver/Src/stm32g0xx_ll_exti.c ****           status = 0x01u;
 184:Drivers/STM32G0xx_HAL_Driver/Src/stm32g0xx_ll_exti.c ****           break;
 185:Drivers/STM32G0xx_HAL_Driver/Src/stm32g0xx_ll_exti.c ****       }
 186:Drivers/STM32G0xx_HAL_Driver/Src/stm32g0xx_ll_exti.c ****       if (EXTI_InitStruct->Trigger != LL_EXTI_TRIGGER_NONE)
 181              		.loc 1 186 7 is_stmt 1 view .LVU46
 182              		.loc 1 186 26 is_stmt 0 view .LVU47
 183 003a 9A7A     		ldrb	r2, [r3, #10]
 184              		.loc 1 186 10 view .LVU48
 185 003c 002A     		cmp	r2, #0
 186 003e 10D0     		beq	.L6
 187:Drivers/STM32G0xx_HAL_Driver/Src/stm32g0xx_ll_exti.c ****       {
 188:Drivers/STM32G0xx_HAL_Driver/Src/stm32g0xx_ll_exti.c ****         switch (EXTI_InitStruct->Trigger)
 187              		.loc 1 188 9 is_stmt 1 view .LVU49
 188 0040 022A     		cmp	r2, #2
 189 0042 45D0     		beq	.L10
 190 0044 032A     		cmp	r2, #3
 191 0046 4FD0     		beq	.L11
 192 0048 012A     		cmp	r2, #1
 193 004a 57D1     		bne	.L12
 189:Drivers/STM32G0xx_HAL_Driver/Src/stm32g0xx_ll_exti.c ****         {
 190:Drivers/STM32G0xx_HAL_Driver/Src/stm32g0xx_ll_exti.c ****           case LL_EXTI_TRIGGER_RISING:
 191:Drivers/STM32G0xx_HAL_Driver/Src/stm32g0xx_ll_exti.c ****             /* First Disable Falling Trigger on provided Lines */
 192:Drivers/STM32G0xx_HAL_Driver/Src/stm32g0xx_ll_exti.c ****             LL_EXTI_DisableFallingTrig_0_31(EXTI_InitStruct->Line_0_31);
 194              		.loc 1 192 13 view .LVU50
 195 004c 1A68     		ldr	r2, [r3]
 196 004e 9446     		mov	ip, r2
 197              	.LVL10:
 198              	.LBB50:
 199              	.LBI50:
 607:Drivers/STM32G0xx_HAL_Driver/Inc/stm32g0xx_ll_exti.h **** }
 608:Drivers/STM32G0xx_HAL_Driver/Inc/stm32g0xx_ll_exti.h **** 
 609:Drivers/STM32G0xx_HAL_Driver/Inc/stm32g0xx_ll_exti.h **** #if defined(STM32G081xx) || defined(STM32G071xx) || defined(STM32G0C1xx) || defined(STM32G0B1xx) ||
 610:Drivers/STM32G0xx_HAL_Driver/Inc/stm32g0xx_ll_exti.h **** /**
 611:Drivers/STM32G0xx_HAL_Driver/Inc/stm32g0xx_ll_exti.h ****   * @brief  Disable ExtiLine Event request for Lines in range 32 to 63
 612:Drivers/STM32G0xx_HAL_Driver/Inc/stm32g0xx_ll_exti.h ****   * @rmtoll EMR2         EMx           LL_EXTI_DisableEvent_32_63
 613:Drivers/STM32G0xx_HAL_Driver/Inc/stm32g0xx_ll_exti.h ****   * @param  ExtiLine This parameter can be a combination of the following values:
 614:Drivers/STM32G0xx_HAL_Driver/Inc/stm32g0xx_ll_exti.h ****   *         @arg @ref LL_EXTI_LINE_32
 615:Drivers/STM32G0xx_HAL_Driver/Inc/stm32g0xx_ll_exti.h ****   *         @arg @ref LL_EXTI_LINE_33
 616:Drivers/STM32G0xx_HAL_Driver/Inc/stm32g0xx_ll_exti.h ****   *         @arg @ref LL_EXTI_LINE_34
 617:Drivers/STM32G0xx_HAL_Driver/Inc/stm32g0xx_ll_exti.h ****   *         @arg @ref LL_EXTI_LINE_35
 618:Drivers/STM32G0xx_HAL_Driver/Inc/stm32g0xx_ll_exti.h ****   *         @arg @ref LL_EXTI_LINE_36
 619:Drivers/STM32G0xx_HAL_Driver/Inc/stm32g0xx_ll_exti.h ****   *         @arg @ref LL_EXTI_LINE_ALL_32_63
 620:Drivers/STM32G0xx_HAL_Driver/Inc/stm32g0xx_ll_exti.h ****   * @note   Please check each device line mapping for EXTI Line availability
 621:Drivers/STM32G0xx_HAL_Driver/Inc/stm32g0xx_ll_exti.h ****   * @retval None
 622:Drivers/STM32G0xx_HAL_Driver/Inc/stm32g0xx_ll_exti.h ****   */
 623:Drivers/STM32G0xx_HAL_Driver/Inc/stm32g0xx_ll_exti.h **** __STATIC_INLINE void LL_EXTI_DisableEvent_32_63(uint32_t ExtiLine)
 624:Drivers/STM32G0xx_HAL_Driver/Inc/stm32g0xx_ll_exti.h **** {
 625:Drivers/STM32G0xx_HAL_Driver/Inc/stm32g0xx_ll_exti.h ****   CLEAR_BIT(EXTI->EMR2, ExtiLine);
 626:Drivers/STM32G0xx_HAL_Driver/Inc/stm32g0xx_ll_exti.h **** }
 627:Drivers/STM32G0xx_HAL_Driver/Inc/stm32g0xx_ll_exti.h **** #endif
 628:Drivers/STM32G0xx_HAL_Driver/Inc/stm32g0xx_ll_exti.h **** /**
 629:Drivers/STM32G0xx_HAL_Driver/Inc/stm32g0xx_ll_exti.h ****   * @brief  Indicate if ExtiLine Event request is enabled for Lines in range 0 to 31
 630:Drivers/STM32G0xx_HAL_Driver/Inc/stm32g0xx_ll_exti.h ****   * @rmtoll EMR1         EMx           LL_EXTI_IsEnabledEvent_0_31
 631:Drivers/STM32G0xx_HAL_Driver/Inc/stm32g0xx_ll_exti.h ****   * @param  ExtiLine This parameter can be one of the following values:
 632:Drivers/STM32G0xx_HAL_Driver/Inc/stm32g0xx_ll_exti.h ****   *         @arg @ref LL_EXTI_LINE_0
 633:Drivers/STM32G0xx_HAL_Driver/Inc/stm32g0xx_ll_exti.h ****   *         @arg @ref LL_EXTI_LINE_1
ARM GAS  /tmp/ccXPwwLX.s 			page 19


 634:Drivers/STM32G0xx_HAL_Driver/Inc/stm32g0xx_ll_exti.h ****   *         @arg @ref LL_EXTI_LINE_2
 635:Drivers/STM32G0xx_HAL_Driver/Inc/stm32g0xx_ll_exti.h ****   *         @arg @ref LL_EXTI_LINE_3
 636:Drivers/STM32G0xx_HAL_Driver/Inc/stm32g0xx_ll_exti.h ****   *         @arg @ref LL_EXTI_LINE_4
 637:Drivers/STM32G0xx_HAL_Driver/Inc/stm32g0xx_ll_exti.h ****   *         @arg @ref LL_EXTI_LINE_5
 638:Drivers/STM32G0xx_HAL_Driver/Inc/stm32g0xx_ll_exti.h ****   *         @arg @ref LL_EXTI_LINE_6
 639:Drivers/STM32G0xx_HAL_Driver/Inc/stm32g0xx_ll_exti.h ****   *         @arg @ref LL_EXTI_LINE_7
 640:Drivers/STM32G0xx_HAL_Driver/Inc/stm32g0xx_ll_exti.h ****   *         @arg @ref LL_EXTI_LINE_8
 641:Drivers/STM32G0xx_HAL_Driver/Inc/stm32g0xx_ll_exti.h ****   *         @arg @ref LL_EXTI_LINE_9
 642:Drivers/STM32G0xx_HAL_Driver/Inc/stm32g0xx_ll_exti.h ****   *         @arg @ref LL_EXTI_LINE_10
 643:Drivers/STM32G0xx_HAL_Driver/Inc/stm32g0xx_ll_exti.h ****   *         @arg @ref LL_EXTI_LINE_11
 644:Drivers/STM32G0xx_HAL_Driver/Inc/stm32g0xx_ll_exti.h ****   *         @arg @ref LL_EXTI_LINE_12
 645:Drivers/STM32G0xx_HAL_Driver/Inc/stm32g0xx_ll_exti.h ****   *         @arg @ref LL_EXTI_LINE_13
 646:Drivers/STM32G0xx_HAL_Driver/Inc/stm32g0xx_ll_exti.h ****   *         @arg @ref LL_EXTI_LINE_14
 647:Drivers/STM32G0xx_HAL_Driver/Inc/stm32g0xx_ll_exti.h ****   *         @arg @ref LL_EXTI_LINE_15
 648:Drivers/STM32G0xx_HAL_Driver/Inc/stm32g0xx_ll_exti.h ****   *         @arg @ref LL_EXTI_LINE_16
 649:Drivers/STM32G0xx_HAL_Driver/Inc/stm32g0xx_ll_exti.h ****   *         @arg @ref LL_EXTI_LINE_17
 650:Drivers/STM32G0xx_HAL_Driver/Inc/stm32g0xx_ll_exti.h ****   *         @arg @ref LL_EXTI_LINE_18
 651:Drivers/STM32G0xx_HAL_Driver/Inc/stm32g0xx_ll_exti.h ****   *         @arg @ref LL_EXTI_LINE_19
 652:Drivers/STM32G0xx_HAL_Driver/Inc/stm32g0xx_ll_exti.h ****   *         @arg @ref LL_EXTI_LINE_21
 653:Drivers/STM32G0xx_HAL_Driver/Inc/stm32g0xx_ll_exti.h ****   *         @arg @ref LL_EXTI_LINE_23
 654:Drivers/STM32G0xx_HAL_Driver/Inc/stm32g0xx_ll_exti.h ****   *         @arg @ref LL_EXTI_LINE_25
 655:Drivers/STM32G0xx_HAL_Driver/Inc/stm32g0xx_ll_exti.h ****   *         @arg @ref LL_EXTI_LINE_26
 656:Drivers/STM32G0xx_HAL_Driver/Inc/stm32g0xx_ll_exti.h ****   *         @arg @ref LL_EXTI_LINE_27
 657:Drivers/STM32G0xx_HAL_Driver/Inc/stm32g0xx_ll_exti.h ****   *         @arg @ref LL_EXTI_LINE_28
 658:Drivers/STM32G0xx_HAL_Driver/Inc/stm32g0xx_ll_exti.h ****   *         @arg @ref LL_EXTI_LINE_29
 659:Drivers/STM32G0xx_HAL_Driver/Inc/stm32g0xx_ll_exti.h ****   *         @arg @ref LL_EXTI_LINE_30
 660:Drivers/STM32G0xx_HAL_Driver/Inc/stm32g0xx_ll_exti.h ****   *         @arg @ref LL_EXTI_LINE_31
 661:Drivers/STM32G0xx_HAL_Driver/Inc/stm32g0xx_ll_exti.h ****   *         @arg @ref LL_EXTI_LINE_ALL_0_31
 662:Drivers/STM32G0xx_HAL_Driver/Inc/stm32g0xx_ll_exti.h ****   * @note   Please check each device line mapping for EXTI Line availability
 663:Drivers/STM32G0xx_HAL_Driver/Inc/stm32g0xx_ll_exti.h ****   * @retval State of bit (1 or 0).
 664:Drivers/STM32G0xx_HAL_Driver/Inc/stm32g0xx_ll_exti.h ****   */
 665:Drivers/STM32G0xx_HAL_Driver/Inc/stm32g0xx_ll_exti.h **** __STATIC_INLINE uint32_t LL_EXTI_IsEnabledEvent_0_31(uint32_t ExtiLine)
 666:Drivers/STM32G0xx_HAL_Driver/Inc/stm32g0xx_ll_exti.h **** {
 667:Drivers/STM32G0xx_HAL_Driver/Inc/stm32g0xx_ll_exti.h ****   return ((READ_BIT(EXTI->EMR1, ExtiLine) == (ExtiLine)) ? 1UL : 0UL);
 668:Drivers/STM32G0xx_HAL_Driver/Inc/stm32g0xx_ll_exti.h **** }
 669:Drivers/STM32G0xx_HAL_Driver/Inc/stm32g0xx_ll_exti.h **** 
 670:Drivers/STM32G0xx_HAL_Driver/Inc/stm32g0xx_ll_exti.h **** #if defined(STM32G081xx) || defined(STM32G071xx) || defined(STM32G0C1xx) || defined(STM32G0B1xx) ||
 671:Drivers/STM32G0xx_HAL_Driver/Inc/stm32g0xx_ll_exti.h **** /**
 672:Drivers/STM32G0xx_HAL_Driver/Inc/stm32g0xx_ll_exti.h ****   * @brief  Indicate if ExtiLine Event request is enabled for Lines in range 32 to 63
 673:Drivers/STM32G0xx_HAL_Driver/Inc/stm32g0xx_ll_exti.h ****   * @rmtoll EMR2         EMx           LL_EXTI_IsEnabledEvent_32_63
 674:Drivers/STM32G0xx_HAL_Driver/Inc/stm32g0xx_ll_exti.h ****   * @param  ExtiLine This parameter can be a combination of the following values:
 675:Drivers/STM32G0xx_HAL_Driver/Inc/stm32g0xx_ll_exti.h ****   *         @arg @ref LL_EXTI_LINE_32
 676:Drivers/STM32G0xx_HAL_Driver/Inc/stm32g0xx_ll_exti.h ****   *         @arg @ref LL_EXTI_LINE_33
 677:Drivers/STM32G0xx_HAL_Driver/Inc/stm32g0xx_ll_exti.h ****   *         @arg @ref LL_EXTI_LINE_34
 678:Drivers/STM32G0xx_HAL_Driver/Inc/stm32g0xx_ll_exti.h ****   *         @arg @ref LL_EXTI_LINE_35
 679:Drivers/STM32G0xx_HAL_Driver/Inc/stm32g0xx_ll_exti.h ****   *         @arg @ref LL_EXTI_LINE_36
 680:Drivers/STM32G0xx_HAL_Driver/Inc/stm32g0xx_ll_exti.h ****   *         @arg @ref LL_EXTI_LINE_ALL_32_63
 681:Drivers/STM32G0xx_HAL_Driver/Inc/stm32g0xx_ll_exti.h ****   * @note   Please check each device line mapping for EXTI Line availability
 682:Drivers/STM32G0xx_HAL_Driver/Inc/stm32g0xx_ll_exti.h ****   * @retval State of bit (1 or 0).
 683:Drivers/STM32G0xx_HAL_Driver/Inc/stm32g0xx_ll_exti.h ****   */
 684:Drivers/STM32G0xx_HAL_Driver/Inc/stm32g0xx_ll_exti.h **** __STATIC_INLINE uint32_t LL_EXTI_IsEnabledEvent_32_63(uint32_t ExtiLine)
 685:Drivers/STM32G0xx_HAL_Driver/Inc/stm32g0xx_ll_exti.h **** {
 686:Drivers/STM32G0xx_HAL_Driver/Inc/stm32g0xx_ll_exti.h ****   return ((READ_BIT(EXTI->EMR2, ExtiLine) == (ExtiLine)) ? 1UL : 0UL);
 687:Drivers/STM32G0xx_HAL_Driver/Inc/stm32g0xx_ll_exti.h **** }
 688:Drivers/STM32G0xx_HAL_Driver/Inc/stm32g0xx_ll_exti.h **** #endif /* STM32G081xx || STM32G071xx || STM32G0C1xx || STM32G0B1xx || STM32G0B0xx */
 689:Drivers/STM32G0xx_HAL_Driver/Inc/stm32g0xx_ll_exti.h **** 
 690:Drivers/STM32G0xx_HAL_Driver/Inc/stm32g0xx_ll_exti.h **** /**
ARM GAS  /tmp/ccXPwwLX.s 			page 20


 691:Drivers/STM32G0xx_HAL_Driver/Inc/stm32g0xx_ll_exti.h ****   * @}
 692:Drivers/STM32G0xx_HAL_Driver/Inc/stm32g0xx_ll_exti.h ****   */
 693:Drivers/STM32G0xx_HAL_Driver/Inc/stm32g0xx_ll_exti.h **** 
 694:Drivers/STM32G0xx_HAL_Driver/Inc/stm32g0xx_ll_exti.h **** /** @defgroup EXTI_LL_EF_Rising_Trigger_Management Rising_Trigger_Management
 695:Drivers/STM32G0xx_HAL_Driver/Inc/stm32g0xx_ll_exti.h ****   * @{
 696:Drivers/STM32G0xx_HAL_Driver/Inc/stm32g0xx_ll_exti.h ****   */
 697:Drivers/STM32G0xx_HAL_Driver/Inc/stm32g0xx_ll_exti.h **** 
 698:Drivers/STM32G0xx_HAL_Driver/Inc/stm32g0xx_ll_exti.h **** /**
 699:Drivers/STM32G0xx_HAL_Driver/Inc/stm32g0xx_ll_exti.h ****   * @brief  Enable ExtiLine Rising Edge Trigger for Lines in range 0 to 31
 700:Drivers/STM32G0xx_HAL_Driver/Inc/stm32g0xx_ll_exti.h ****   * @note The configurable wakeup lines are edge-triggered. No glitch must be
 701:Drivers/STM32G0xx_HAL_Driver/Inc/stm32g0xx_ll_exti.h ****   *       generated on these lines. If a rising edge on a configurable interrupt
 702:Drivers/STM32G0xx_HAL_Driver/Inc/stm32g0xx_ll_exti.h ****   *       line occurs during a write operation in the EXTI_RTSR register, the
 703:Drivers/STM32G0xx_HAL_Driver/Inc/stm32g0xx_ll_exti.h ****   *       pending bit is not set.
 704:Drivers/STM32G0xx_HAL_Driver/Inc/stm32g0xx_ll_exti.h ****   *       Rising and falling edge triggers can be set for
 705:Drivers/STM32G0xx_HAL_Driver/Inc/stm32g0xx_ll_exti.h ****   *       the same interrupt line. In this case, both generate a trigger
 706:Drivers/STM32G0xx_HAL_Driver/Inc/stm32g0xx_ll_exti.h ****   *       condition.
 707:Drivers/STM32G0xx_HAL_Driver/Inc/stm32g0xx_ll_exti.h ****   * @rmtoll RTSR1        RTx           LL_EXTI_EnableRisingTrig_0_31
 708:Drivers/STM32G0xx_HAL_Driver/Inc/stm32g0xx_ll_exti.h ****   * @param  ExtiLine This parameter can be a combination of the following values:
 709:Drivers/STM32G0xx_HAL_Driver/Inc/stm32g0xx_ll_exti.h ****   *         @arg @ref LL_EXTI_LINE_0
 710:Drivers/STM32G0xx_HAL_Driver/Inc/stm32g0xx_ll_exti.h ****   *         @arg @ref LL_EXTI_LINE_1
 711:Drivers/STM32G0xx_HAL_Driver/Inc/stm32g0xx_ll_exti.h ****   *         @arg @ref LL_EXTI_LINE_2
 712:Drivers/STM32G0xx_HAL_Driver/Inc/stm32g0xx_ll_exti.h ****   *         @arg @ref LL_EXTI_LINE_3
 713:Drivers/STM32G0xx_HAL_Driver/Inc/stm32g0xx_ll_exti.h ****   *         @arg @ref LL_EXTI_LINE_4
 714:Drivers/STM32G0xx_HAL_Driver/Inc/stm32g0xx_ll_exti.h ****   *         @arg @ref LL_EXTI_LINE_5
 715:Drivers/STM32G0xx_HAL_Driver/Inc/stm32g0xx_ll_exti.h ****   *         @arg @ref LL_EXTI_LINE_6
 716:Drivers/STM32G0xx_HAL_Driver/Inc/stm32g0xx_ll_exti.h ****   *         @arg @ref LL_EXTI_LINE_7
 717:Drivers/STM32G0xx_HAL_Driver/Inc/stm32g0xx_ll_exti.h ****   *         @arg @ref LL_EXTI_LINE_8
 718:Drivers/STM32G0xx_HAL_Driver/Inc/stm32g0xx_ll_exti.h ****   *         @arg @ref LL_EXTI_LINE_9
 719:Drivers/STM32G0xx_HAL_Driver/Inc/stm32g0xx_ll_exti.h ****   *         @arg @ref LL_EXTI_LINE_10
 720:Drivers/STM32G0xx_HAL_Driver/Inc/stm32g0xx_ll_exti.h ****   *         @arg @ref LL_EXTI_LINE_11
 721:Drivers/STM32G0xx_HAL_Driver/Inc/stm32g0xx_ll_exti.h ****   *         @arg @ref LL_EXTI_LINE_12
 722:Drivers/STM32G0xx_HAL_Driver/Inc/stm32g0xx_ll_exti.h ****   *         @arg @ref LL_EXTI_LINE_13
 723:Drivers/STM32G0xx_HAL_Driver/Inc/stm32g0xx_ll_exti.h ****   *         @arg @ref LL_EXTI_LINE_14
 724:Drivers/STM32G0xx_HAL_Driver/Inc/stm32g0xx_ll_exti.h ****   *         @arg @ref LL_EXTI_LINE_15
 725:Drivers/STM32G0xx_HAL_Driver/Inc/stm32g0xx_ll_exti.h ****   *         @arg @ref LL_EXTI_LINE_16
 726:Drivers/STM32G0xx_HAL_Driver/Inc/stm32g0xx_ll_exti.h ****   *         @arg @ref LL_EXTI_LINE_17
 727:Drivers/STM32G0xx_HAL_Driver/Inc/stm32g0xx_ll_exti.h ****   *         @arg @ref LL_EXTI_LINE_18
 728:Drivers/STM32G0xx_HAL_Driver/Inc/stm32g0xx_ll_exti.h ****   *         @arg @ref LL_EXTI_LINE_20
 729:Drivers/STM32G0xx_HAL_Driver/Inc/stm32g0xx_ll_exti.h ****   * @note   Please check each device line mapping for EXTI Line availability
 730:Drivers/STM32G0xx_HAL_Driver/Inc/stm32g0xx_ll_exti.h ****   * @retval None
 731:Drivers/STM32G0xx_HAL_Driver/Inc/stm32g0xx_ll_exti.h ****   */
 732:Drivers/STM32G0xx_HAL_Driver/Inc/stm32g0xx_ll_exti.h **** __STATIC_INLINE void LL_EXTI_EnableRisingTrig_0_31(uint32_t ExtiLine)
 733:Drivers/STM32G0xx_HAL_Driver/Inc/stm32g0xx_ll_exti.h **** {
 734:Drivers/STM32G0xx_HAL_Driver/Inc/stm32g0xx_ll_exti.h ****   SET_BIT(EXTI->RTSR1, ExtiLine);
 735:Drivers/STM32G0xx_HAL_Driver/Inc/stm32g0xx_ll_exti.h **** 
 736:Drivers/STM32G0xx_HAL_Driver/Inc/stm32g0xx_ll_exti.h **** }
 737:Drivers/STM32G0xx_HAL_Driver/Inc/stm32g0xx_ll_exti.h **** #if defined(STM32G0C1xx) || defined(STM32G0B1xx)
 738:Drivers/STM32G0xx_HAL_Driver/Inc/stm32g0xx_ll_exti.h **** /**
 739:Drivers/STM32G0xx_HAL_Driver/Inc/stm32g0xx_ll_exti.h ****   * @brief  Enable ExtiLine Rising Edge Trigger for Lines in range 32 to 63
 740:Drivers/STM32G0xx_HAL_Driver/Inc/stm32g0xx_ll_exti.h ****   * @note The configurable wakeup lines are edge-triggered. No glitch must be
 741:Drivers/STM32G0xx_HAL_Driver/Inc/stm32g0xx_ll_exti.h ****   *       generated on these lines. If a rising edge on a configurable interrupt
 742:Drivers/STM32G0xx_HAL_Driver/Inc/stm32g0xx_ll_exti.h ****   *       line occurs during a write operation in the EXTI_RTSR register, the
 743:Drivers/STM32G0xx_HAL_Driver/Inc/stm32g0xx_ll_exti.h ****   *       pending bit is not set.
 744:Drivers/STM32G0xx_HAL_Driver/Inc/stm32g0xx_ll_exti.h ****   *       Rising and falling edge triggers can be set for
 745:Drivers/STM32G0xx_HAL_Driver/Inc/stm32g0xx_ll_exti.h ****   *       the same interrupt line. In this case, both generate a trigger
 746:Drivers/STM32G0xx_HAL_Driver/Inc/stm32g0xx_ll_exti.h ****   *       condition.
 747:Drivers/STM32G0xx_HAL_Driver/Inc/stm32g0xx_ll_exti.h ****   * @rmtoll RTSR2        RTx           LL_EXTI_EnableRisingTrig_32_63
ARM GAS  /tmp/ccXPwwLX.s 			page 21


 748:Drivers/STM32G0xx_HAL_Driver/Inc/stm32g0xx_ll_exti.h ****   * @param  ExtiLine This parameter can be a combination of the following values:
 749:Drivers/STM32G0xx_HAL_Driver/Inc/stm32g0xx_ll_exti.h ****   *         @arg @ref LL_EXTI_LINE_34
 750:Drivers/STM32G0xx_HAL_Driver/Inc/stm32g0xx_ll_exti.h ****   * @note   Please check each device line mapping for EXTI Line availability
 751:Drivers/STM32G0xx_HAL_Driver/Inc/stm32g0xx_ll_exti.h ****   * @retval None
 752:Drivers/STM32G0xx_HAL_Driver/Inc/stm32g0xx_ll_exti.h ****   */
 753:Drivers/STM32G0xx_HAL_Driver/Inc/stm32g0xx_ll_exti.h **** __STATIC_INLINE void LL_EXTI_EnableRisingTrig_32_63(uint32_t ExtiLine)
 754:Drivers/STM32G0xx_HAL_Driver/Inc/stm32g0xx_ll_exti.h **** {
 755:Drivers/STM32G0xx_HAL_Driver/Inc/stm32g0xx_ll_exti.h ****   SET_BIT(EXTI->RTSR2, ExtiLine);
 756:Drivers/STM32G0xx_HAL_Driver/Inc/stm32g0xx_ll_exti.h **** 
 757:Drivers/STM32G0xx_HAL_Driver/Inc/stm32g0xx_ll_exti.h **** }
 758:Drivers/STM32G0xx_HAL_Driver/Inc/stm32g0xx_ll_exti.h **** #endif /* STM32G0C1xx || STM32G0B1xx */
 759:Drivers/STM32G0xx_HAL_Driver/Inc/stm32g0xx_ll_exti.h **** 
 760:Drivers/STM32G0xx_HAL_Driver/Inc/stm32g0xx_ll_exti.h **** /**
 761:Drivers/STM32G0xx_HAL_Driver/Inc/stm32g0xx_ll_exti.h ****   * @brief  Disable ExtiLine Rising Edge Trigger for Lines in range 0 to 31
 762:Drivers/STM32G0xx_HAL_Driver/Inc/stm32g0xx_ll_exti.h ****   * @note The configurable wakeup lines are edge-triggered. No glitch must be
 763:Drivers/STM32G0xx_HAL_Driver/Inc/stm32g0xx_ll_exti.h ****   *       generated on these lines. If a rising edge on a configurable interrupt
 764:Drivers/STM32G0xx_HAL_Driver/Inc/stm32g0xx_ll_exti.h ****   *       line occurs during a write operation in the EXTI_RTSR register, the
 765:Drivers/STM32G0xx_HAL_Driver/Inc/stm32g0xx_ll_exti.h ****   *       pending bit is not set.
 766:Drivers/STM32G0xx_HAL_Driver/Inc/stm32g0xx_ll_exti.h ****   *       Rising and falling edge triggers can be set for
 767:Drivers/STM32G0xx_HAL_Driver/Inc/stm32g0xx_ll_exti.h ****   *       the same interrupt line. In this case, both generate a trigger
 768:Drivers/STM32G0xx_HAL_Driver/Inc/stm32g0xx_ll_exti.h ****   *       condition.
 769:Drivers/STM32G0xx_HAL_Driver/Inc/stm32g0xx_ll_exti.h ****   * @rmtoll RTSR1        RTx           LL_EXTI_DisableRisingTrig_0_31
 770:Drivers/STM32G0xx_HAL_Driver/Inc/stm32g0xx_ll_exti.h ****   * @param  ExtiLine This parameter can be a combination of the following values:
 771:Drivers/STM32G0xx_HAL_Driver/Inc/stm32g0xx_ll_exti.h ****   *         @arg @ref LL_EXTI_LINE_0
 772:Drivers/STM32G0xx_HAL_Driver/Inc/stm32g0xx_ll_exti.h ****   *         @arg @ref LL_EXTI_LINE_1
 773:Drivers/STM32G0xx_HAL_Driver/Inc/stm32g0xx_ll_exti.h ****   *         @arg @ref LL_EXTI_LINE_2
 774:Drivers/STM32G0xx_HAL_Driver/Inc/stm32g0xx_ll_exti.h ****   *         @arg @ref LL_EXTI_LINE_3
 775:Drivers/STM32G0xx_HAL_Driver/Inc/stm32g0xx_ll_exti.h ****   *         @arg @ref LL_EXTI_LINE_4
 776:Drivers/STM32G0xx_HAL_Driver/Inc/stm32g0xx_ll_exti.h ****   *         @arg @ref LL_EXTI_LINE_5
 777:Drivers/STM32G0xx_HAL_Driver/Inc/stm32g0xx_ll_exti.h ****   *         @arg @ref LL_EXTI_LINE_6
 778:Drivers/STM32G0xx_HAL_Driver/Inc/stm32g0xx_ll_exti.h ****   *         @arg @ref LL_EXTI_LINE_7
 779:Drivers/STM32G0xx_HAL_Driver/Inc/stm32g0xx_ll_exti.h ****   *         @arg @ref LL_EXTI_LINE_8
 780:Drivers/STM32G0xx_HAL_Driver/Inc/stm32g0xx_ll_exti.h ****   *         @arg @ref LL_EXTI_LINE_9
 781:Drivers/STM32G0xx_HAL_Driver/Inc/stm32g0xx_ll_exti.h ****   *         @arg @ref LL_EXTI_LINE_10
 782:Drivers/STM32G0xx_HAL_Driver/Inc/stm32g0xx_ll_exti.h ****   *         @arg @ref LL_EXTI_LINE_11
 783:Drivers/STM32G0xx_HAL_Driver/Inc/stm32g0xx_ll_exti.h ****   *         @arg @ref LL_EXTI_LINE_12
 784:Drivers/STM32G0xx_HAL_Driver/Inc/stm32g0xx_ll_exti.h ****   *         @arg @ref LL_EXTI_LINE_13
 785:Drivers/STM32G0xx_HAL_Driver/Inc/stm32g0xx_ll_exti.h ****   *         @arg @ref LL_EXTI_LINE_14
 786:Drivers/STM32G0xx_HAL_Driver/Inc/stm32g0xx_ll_exti.h ****   *         @arg @ref LL_EXTI_LINE_15
 787:Drivers/STM32G0xx_HAL_Driver/Inc/stm32g0xx_ll_exti.h ****   *         @arg @ref LL_EXTI_LINE_16
 788:Drivers/STM32G0xx_HAL_Driver/Inc/stm32g0xx_ll_exti.h ****   *         @arg @ref LL_EXTI_LINE_17
 789:Drivers/STM32G0xx_HAL_Driver/Inc/stm32g0xx_ll_exti.h ****   *         @arg @ref LL_EXTI_LINE_18
 790:Drivers/STM32G0xx_HAL_Driver/Inc/stm32g0xx_ll_exti.h ****   *         @arg @ref LL_EXTI_LINE_20
 791:Drivers/STM32G0xx_HAL_Driver/Inc/stm32g0xx_ll_exti.h ****   * @note   Please check each device line mapping for EXTI Line availability
 792:Drivers/STM32G0xx_HAL_Driver/Inc/stm32g0xx_ll_exti.h ****   * @retval None
 793:Drivers/STM32G0xx_HAL_Driver/Inc/stm32g0xx_ll_exti.h ****   */
 794:Drivers/STM32G0xx_HAL_Driver/Inc/stm32g0xx_ll_exti.h **** __STATIC_INLINE void LL_EXTI_DisableRisingTrig_0_31(uint32_t ExtiLine)
 795:Drivers/STM32G0xx_HAL_Driver/Inc/stm32g0xx_ll_exti.h **** {
 796:Drivers/STM32G0xx_HAL_Driver/Inc/stm32g0xx_ll_exti.h ****   CLEAR_BIT(EXTI->RTSR1, ExtiLine);
 797:Drivers/STM32G0xx_HAL_Driver/Inc/stm32g0xx_ll_exti.h **** 
 798:Drivers/STM32G0xx_HAL_Driver/Inc/stm32g0xx_ll_exti.h **** }
 799:Drivers/STM32G0xx_HAL_Driver/Inc/stm32g0xx_ll_exti.h **** 
 800:Drivers/STM32G0xx_HAL_Driver/Inc/stm32g0xx_ll_exti.h **** #if defined(STM32G0C1xx) || defined(STM32G0B1xx)
 801:Drivers/STM32G0xx_HAL_Driver/Inc/stm32g0xx_ll_exti.h **** /**
 802:Drivers/STM32G0xx_HAL_Driver/Inc/stm32g0xx_ll_exti.h ****   * @brief  Disable ExtiLine Rising Edge Trigger for Lines in range 32 to 63
 803:Drivers/STM32G0xx_HAL_Driver/Inc/stm32g0xx_ll_exti.h ****   * @note The configurable wakeup lines are edge-triggered. No glitch must be
 804:Drivers/STM32G0xx_HAL_Driver/Inc/stm32g0xx_ll_exti.h ****   *       generated on these lines. If a rising edge on a configurable interrupt
ARM GAS  /tmp/ccXPwwLX.s 			page 22


 805:Drivers/STM32G0xx_HAL_Driver/Inc/stm32g0xx_ll_exti.h ****   *       line occurs during a write operation in the EXTI_RTSR register, the
 806:Drivers/STM32G0xx_HAL_Driver/Inc/stm32g0xx_ll_exti.h ****   *       pending bit is not set.
 807:Drivers/STM32G0xx_HAL_Driver/Inc/stm32g0xx_ll_exti.h ****   *       Rising and falling edge triggers can be set for
 808:Drivers/STM32G0xx_HAL_Driver/Inc/stm32g0xx_ll_exti.h ****   *       the same interrupt line. In this case, both generate a trigger
 809:Drivers/STM32G0xx_HAL_Driver/Inc/stm32g0xx_ll_exti.h ****   *       condition.
 810:Drivers/STM32G0xx_HAL_Driver/Inc/stm32g0xx_ll_exti.h ****   * @rmtoll RTSR2        RTx           LL_EXTI_DisableRisingTrig_32_63
 811:Drivers/STM32G0xx_HAL_Driver/Inc/stm32g0xx_ll_exti.h ****   * @param  ExtiLine This parameter can be a combination of the following values:
 812:Drivers/STM32G0xx_HAL_Driver/Inc/stm32g0xx_ll_exti.h ****   *         @arg @ref LL_EXTI_LINE_34
 813:Drivers/STM32G0xx_HAL_Driver/Inc/stm32g0xx_ll_exti.h ****   * @note   Please check each device line mapping for EXTI Line availability
 814:Drivers/STM32G0xx_HAL_Driver/Inc/stm32g0xx_ll_exti.h ****   * @retval None
 815:Drivers/STM32G0xx_HAL_Driver/Inc/stm32g0xx_ll_exti.h ****   */
 816:Drivers/STM32G0xx_HAL_Driver/Inc/stm32g0xx_ll_exti.h **** __STATIC_INLINE void LL_EXTI_DisableRisingTrig_32_63(uint32_t ExtiLine)
 817:Drivers/STM32G0xx_HAL_Driver/Inc/stm32g0xx_ll_exti.h **** {
 818:Drivers/STM32G0xx_HAL_Driver/Inc/stm32g0xx_ll_exti.h ****   CLEAR_BIT(EXTI->RTSR2, ExtiLine);
 819:Drivers/STM32G0xx_HAL_Driver/Inc/stm32g0xx_ll_exti.h **** 
 820:Drivers/STM32G0xx_HAL_Driver/Inc/stm32g0xx_ll_exti.h **** }
 821:Drivers/STM32G0xx_HAL_Driver/Inc/stm32g0xx_ll_exti.h **** #endif /* STM32G0C1xx || STM32G0B1xx */
 822:Drivers/STM32G0xx_HAL_Driver/Inc/stm32g0xx_ll_exti.h **** 
 823:Drivers/STM32G0xx_HAL_Driver/Inc/stm32g0xx_ll_exti.h **** /**
 824:Drivers/STM32G0xx_HAL_Driver/Inc/stm32g0xx_ll_exti.h ****   * @brief  Check if rising edge trigger is enabled for Lines in range 0 to 31
 825:Drivers/STM32G0xx_HAL_Driver/Inc/stm32g0xx_ll_exti.h ****   * @rmtoll RTSR1        RTx           LL_EXTI_IsEnabledRisingTrig_0_31
 826:Drivers/STM32G0xx_HAL_Driver/Inc/stm32g0xx_ll_exti.h ****   * @param  ExtiLine This parameter can be a combination of the following values:
 827:Drivers/STM32G0xx_HAL_Driver/Inc/stm32g0xx_ll_exti.h ****   *         @arg @ref LL_EXTI_LINE_0
 828:Drivers/STM32G0xx_HAL_Driver/Inc/stm32g0xx_ll_exti.h ****   *         @arg @ref LL_EXTI_LINE_1
 829:Drivers/STM32G0xx_HAL_Driver/Inc/stm32g0xx_ll_exti.h ****   *         @arg @ref LL_EXTI_LINE_2
 830:Drivers/STM32G0xx_HAL_Driver/Inc/stm32g0xx_ll_exti.h ****   *         @arg @ref LL_EXTI_LINE_3
 831:Drivers/STM32G0xx_HAL_Driver/Inc/stm32g0xx_ll_exti.h ****   *         @arg @ref LL_EXTI_LINE_4
 832:Drivers/STM32G0xx_HAL_Driver/Inc/stm32g0xx_ll_exti.h ****   *         @arg @ref LL_EXTI_LINE_5
 833:Drivers/STM32G0xx_HAL_Driver/Inc/stm32g0xx_ll_exti.h ****   *         @arg @ref LL_EXTI_LINE_6
 834:Drivers/STM32G0xx_HAL_Driver/Inc/stm32g0xx_ll_exti.h ****   *         @arg @ref LL_EXTI_LINE_7
 835:Drivers/STM32G0xx_HAL_Driver/Inc/stm32g0xx_ll_exti.h ****   *         @arg @ref LL_EXTI_LINE_8
 836:Drivers/STM32G0xx_HAL_Driver/Inc/stm32g0xx_ll_exti.h ****   *         @arg @ref LL_EXTI_LINE_9
 837:Drivers/STM32G0xx_HAL_Driver/Inc/stm32g0xx_ll_exti.h ****   *         @arg @ref LL_EXTI_LINE_10
 838:Drivers/STM32G0xx_HAL_Driver/Inc/stm32g0xx_ll_exti.h ****   *         @arg @ref LL_EXTI_LINE_11
 839:Drivers/STM32G0xx_HAL_Driver/Inc/stm32g0xx_ll_exti.h ****   *         @arg @ref LL_EXTI_LINE_12
 840:Drivers/STM32G0xx_HAL_Driver/Inc/stm32g0xx_ll_exti.h ****   *         @arg @ref LL_EXTI_LINE_13
 841:Drivers/STM32G0xx_HAL_Driver/Inc/stm32g0xx_ll_exti.h ****   *         @arg @ref LL_EXTI_LINE_14
 842:Drivers/STM32G0xx_HAL_Driver/Inc/stm32g0xx_ll_exti.h ****   *         @arg @ref LL_EXTI_LINE_15
 843:Drivers/STM32G0xx_HAL_Driver/Inc/stm32g0xx_ll_exti.h ****   *         @arg @ref LL_EXTI_LINE_16
 844:Drivers/STM32G0xx_HAL_Driver/Inc/stm32g0xx_ll_exti.h ****   *         @arg @ref LL_EXTI_LINE_17
 845:Drivers/STM32G0xx_HAL_Driver/Inc/stm32g0xx_ll_exti.h ****   *         @arg @ref LL_EXTI_LINE_20
 846:Drivers/STM32G0xx_HAL_Driver/Inc/stm32g0xx_ll_exti.h ****   * @note   Please check each device line mapping for EXTI Line availability
 847:Drivers/STM32G0xx_HAL_Driver/Inc/stm32g0xx_ll_exti.h ****   * @retval State of bit (1 or 0).
 848:Drivers/STM32G0xx_HAL_Driver/Inc/stm32g0xx_ll_exti.h ****   */
 849:Drivers/STM32G0xx_HAL_Driver/Inc/stm32g0xx_ll_exti.h **** __STATIC_INLINE uint32_t LL_EXTI_IsEnabledRisingTrig_0_31(uint32_t ExtiLine)
 850:Drivers/STM32G0xx_HAL_Driver/Inc/stm32g0xx_ll_exti.h **** {
 851:Drivers/STM32G0xx_HAL_Driver/Inc/stm32g0xx_ll_exti.h ****   return ((READ_BIT(EXTI->RTSR1, ExtiLine) == (ExtiLine)) ? 1UL : 0UL);
 852:Drivers/STM32G0xx_HAL_Driver/Inc/stm32g0xx_ll_exti.h **** }
 853:Drivers/STM32G0xx_HAL_Driver/Inc/stm32g0xx_ll_exti.h **** 
 854:Drivers/STM32G0xx_HAL_Driver/Inc/stm32g0xx_ll_exti.h **** #if defined(STM32G0C1xx) || defined(STM32G0B1xx)
 855:Drivers/STM32G0xx_HAL_Driver/Inc/stm32g0xx_ll_exti.h **** /**
 856:Drivers/STM32G0xx_HAL_Driver/Inc/stm32g0xx_ll_exti.h ****   * @brief  Check if rising edge trigger is enabled for Lines in range 32 to 63
 857:Drivers/STM32G0xx_HAL_Driver/Inc/stm32g0xx_ll_exti.h ****   * @rmtoll RTSR2        RTx           LL_EXTI_IsEnabledRisingTrig_32_63
 858:Drivers/STM32G0xx_HAL_Driver/Inc/stm32g0xx_ll_exti.h ****   * @param  ExtiLine This parameter can be a combination of the following values:
 859:Drivers/STM32G0xx_HAL_Driver/Inc/stm32g0xx_ll_exti.h ****   *         @arg @ref LL_EXTI_LINE_34
 860:Drivers/STM32G0xx_HAL_Driver/Inc/stm32g0xx_ll_exti.h ****   * @note   Please check each device line mapping for EXTI Line availability
 861:Drivers/STM32G0xx_HAL_Driver/Inc/stm32g0xx_ll_exti.h ****   * @retval State of bit (1 or 0).
ARM GAS  /tmp/ccXPwwLX.s 			page 23


 862:Drivers/STM32G0xx_HAL_Driver/Inc/stm32g0xx_ll_exti.h ****   */
 863:Drivers/STM32G0xx_HAL_Driver/Inc/stm32g0xx_ll_exti.h **** __STATIC_INLINE uint32_t LL_EXTI_IsEnabledRisingTrig_32_63(uint32_t ExtiLine)
 864:Drivers/STM32G0xx_HAL_Driver/Inc/stm32g0xx_ll_exti.h **** {
 865:Drivers/STM32G0xx_HAL_Driver/Inc/stm32g0xx_ll_exti.h ****   return ((READ_BIT(EXTI->RTSR2, ExtiLine) == (ExtiLine)) ? 1UL : 0UL);
 866:Drivers/STM32G0xx_HAL_Driver/Inc/stm32g0xx_ll_exti.h **** }
 867:Drivers/STM32G0xx_HAL_Driver/Inc/stm32g0xx_ll_exti.h **** #endif /* STM32G0C1xx || STM32G0B1xx */
 868:Drivers/STM32G0xx_HAL_Driver/Inc/stm32g0xx_ll_exti.h **** 
 869:Drivers/STM32G0xx_HAL_Driver/Inc/stm32g0xx_ll_exti.h **** /**
 870:Drivers/STM32G0xx_HAL_Driver/Inc/stm32g0xx_ll_exti.h ****   * @}
 871:Drivers/STM32G0xx_HAL_Driver/Inc/stm32g0xx_ll_exti.h ****   */
 872:Drivers/STM32G0xx_HAL_Driver/Inc/stm32g0xx_ll_exti.h **** 
 873:Drivers/STM32G0xx_HAL_Driver/Inc/stm32g0xx_ll_exti.h **** /** @defgroup EXTI_LL_EF_Falling_Trigger_Management Falling_Trigger_Management
 874:Drivers/STM32G0xx_HAL_Driver/Inc/stm32g0xx_ll_exti.h ****   * @{
 875:Drivers/STM32G0xx_HAL_Driver/Inc/stm32g0xx_ll_exti.h ****   */
 876:Drivers/STM32G0xx_HAL_Driver/Inc/stm32g0xx_ll_exti.h **** 
 877:Drivers/STM32G0xx_HAL_Driver/Inc/stm32g0xx_ll_exti.h **** /**
 878:Drivers/STM32G0xx_HAL_Driver/Inc/stm32g0xx_ll_exti.h ****   * @brief  Enable ExtiLine Falling Edge Trigger for Lines in range 0 to 31
 879:Drivers/STM32G0xx_HAL_Driver/Inc/stm32g0xx_ll_exti.h ****   * @note The configurable wakeup lines are edge-triggered. No glitch must be
 880:Drivers/STM32G0xx_HAL_Driver/Inc/stm32g0xx_ll_exti.h ****   *       generated on these lines. If a falling edge on a configurable interrupt
 881:Drivers/STM32G0xx_HAL_Driver/Inc/stm32g0xx_ll_exti.h ****   *       line occurs during a write operation in the EXTI_FTSR register, the
 882:Drivers/STM32G0xx_HAL_Driver/Inc/stm32g0xx_ll_exti.h ****   *       pending bit is not set.
 883:Drivers/STM32G0xx_HAL_Driver/Inc/stm32g0xx_ll_exti.h ****   *       Rising and falling edge triggers can be set for
 884:Drivers/STM32G0xx_HAL_Driver/Inc/stm32g0xx_ll_exti.h ****   *       the same interrupt line. In this case, both generate a trigger
 885:Drivers/STM32G0xx_HAL_Driver/Inc/stm32g0xx_ll_exti.h ****   *       condition.
 886:Drivers/STM32G0xx_HAL_Driver/Inc/stm32g0xx_ll_exti.h ****   * @rmtoll FTSR1        FTx           LL_EXTI_EnableFallingTrig_0_31
 887:Drivers/STM32G0xx_HAL_Driver/Inc/stm32g0xx_ll_exti.h ****   * @param  ExtiLine This parameter can be a combination of the following values:
 888:Drivers/STM32G0xx_HAL_Driver/Inc/stm32g0xx_ll_exti.h ****   *         @arg @ref LL_EXTI_LINE_0
 889:Drivers/STM32G0xx_HAL_Driver/Inc/stm32g0xx_ll_exti.h ****   *         @arg @ref LL_EXTI_LINE_1
 890:Drivers/STM32G0xx_HAL_Driver/Inc/stm32g0xx_ll_exti.h ****   *         @arg @ref LL_EXTI_LINE_2
 891:Drivers/STM32G0xx_HAL_Driver/Inc/stm32g0xx_ll_exti.h ****   *         @arg @ref LL_EXTI_LINE_3
 892:Drivers/STM32G0xx_HAL_Driver/Inc/stm32g0xx_ll_exti.h ****   *         @arg @ref LL_EXTI_LINE_4
 893:Drivers/STM32G0xx_HAL_Driver/Inc/stm32g0xx_ll_exti.h ****   *         @arg @ref LL_EXTI_LINE_5
 894:Drivers/STM32G0xx_HAL_Driver/Inc/stm32g0xx_ll_exti.h ****   *         @arg @ref LL_EXTI_LINE_6
 895:Drivers/STM32G0xx_HAL_Driver/Inc/stm32g0xx_ll_exti.h ****   *         @arg @ref LL_EXTI_LINE_7
 896:Drivers/STM32G0xx_HAL_Driver/Inc/stm32g0xx_ll_exti.h ****   *         @arg @ref LL_EXTI_LINE_8
 897:Drivers/STM32G0xx_HAL_Driver/Inc/stm32g0xx_ll_exti.h ****   *         @arg @ref LL_EXTI_LINE_9
 898:Drivers/STM32G0xx_HAL_Driver/Inc/stm32g0xx_ll_exti.h ****   *         @arg @ref LL_EXTI_LINE_10
 899:Drivers/STM32G0xx_HAL_Driver/Inc/stm32g0xx_ll_exti.h ****   *         @arg @ref LL_EXTI_LINE_11
 900:Drivers/STM32G0xx_HAL_Driver/Inc/stm32g0xx_ll_exti.h ****   *         @arg @ref LL_EXTI_LINE_12
 901:Drivers/STM32G0xx_HAL_Driver/Inc/stm32g0xx_ll_exti.h ****   *         @arg @ref LL_EXTI_LINE_13
 902:Drivers/STM32G0xx_HAL_Driver/Inc/stm32g0xx_ll_exti.h ****   *         @arg @ref LL_EXTI_LINE_14
 903:Drivers/STM32G0xx_HAL_Driver/Inc/stm32g0xx_ll_exti.h ****   *         @arg @ref LL_EXTI_LINE_15
 904:Drivers/STM32G0xx_HAL_Driver/Inc/stm32g0xx_ll_exti.h ****   *         @arg @ref LL_EXTI_LINE_16
 905:Drivers/STM32G0xx_HAL_Driver/Inc/stm32g0xx_ll_exti.h ****   *         @arg @ref LL_EXTI_LINE_17
 906:Drivers/STM32G0xx_HAL_Driver/Inc/stm32g0xx_ll_exti.h ****   *         @arg @ref LL_EXTI_LINE_18
 907:Drivers/STM32G0xx_HAL_Driver/Inc/stm32g0xx_ll_exti.h ****   *         @arg @ref LL_EXTI_LINE_20
 908:Drivers/STM32G0xx_HAL_Driver/Inc/stm32g0xx_ll_exti.h ****   * @note   Please check each device line mapping for EXTI Line availability
 909:Drivers/STM32G0xx_HAL_Driver/Inc/stm32g0xx_ll_exti.h ****   * @retval None
 910:Drivers/STM32G0xx_HAL_Driver/Inc/stm32g0xx_ll_exti.h ****   */
 911:Drivers/STM32G0xx_HAL_Driver/Inc/stm32g0xx_ll_exti.h **** __STATIC_INLINE void LL_EXTI_EnableFallingTrig_0_31(uint32_t ExtiLine)
 912:Drivers/STM32G0xx_HAL_Driver/Inc/stm32g0xx_ll_exti.h **** {
 913:Drivers/STM32G0xx_HAL_Driver/Inc/stm32g0xx_ll_exti.h ****   SET_BIT(EXTI->FTSR1, ExtiLine);
 914:Drivers/STM32G0xx_HAL_Driver/Inc/stm32g0xx_ll_exti.h **** }
 915:Drivers/STM32G0xx_HAL_Driver/Inc/stm32g0xx_ll_exti.h **** 
 916:Drivers/STM32G0xx_HAL_Driver/Inc/stm32g0xx_ll_exti.h **** #if defined(STM32G0C1xx) || defined(STM32G0B1xx)
 917:Drivers/STM32G0xx_HAL_Driver/Inc/stm32g0xx_ll_exti.h **** /**
 918:Drivers/STM32G0xx_HAL_Driver/Inc/stm32g0xx_ll_exti.h ****   * @brief  Enable ExtiLine Falling Edge Trigger for Lines in range 32 to 63
ARM GAS  /tmp/ccXPwwLX.s 			page 24


 919:Drivers/STM32G0xx_HAL_Driver/Inc/stm32g0xx_ll_exti.h ****   * @note The configurable wakeup lines are edge-triggered. No glitch must be
 920:Drivers/STM32G0xx_HAL_Driver/Inc/stm32g0xx_ll_exti.h ****   *       generated on these lines. If a falling edge on a configurable interrupt
 921:Drivers/STM32G0xx_HAL_Driver/Inc/stm32g0xx_ll_exti.h ****   *       line occurs during a write operation in the EXTI_FTSR register, the
 922:Drivers/STM32G0xx_HAL_Driver/Inc/stm32g0xx_ll_exti.h ****   *       pending bit is not set.
 923:Drivers/STM32G0xx_HAL_Driver/Inc/stm32g0xx_ll_exti.h ****   *       Rising and falling edge triggers can be set for
 924:Drivers/STM32G0xx_HAL_Driver/Inc/stm32g0xx_ll_exti.h ****   *       the same interrupt line. In this case, both generate a trigger
 925:Drivers/STM32G0xx_HAL_Driver/Inc/stm32g0xx_ll_exti.h ****   *       condition.
 926:Drivers/STM32G0xx_HAL_Driver/Inc/stm32g0xx_ll_exti.h ****   * @rmtoll FTSR2        FTx           LL_EXTI_EnableFallingTrig_32_63
 927:Drivers/STM32G0xx_HAL_Driver/Inc/stm32g0xx_ll_exti.h ****   * @param  ExtiLine This parameter can be a combination of the following values:
 928:Drivers/STM32G0xx_HAL_Driver/Inc/stm32g0xx_ll_exti.h ****   *         @arg @ref LL_EXTI_LINE_34
 929:Drivers/STM32G0xx_HAL_Driver/Inc/stm32g0xx_ll_exti.h ****   * @note   Please check each device line mapping for EXTI Line availability
 930:Drivers/STM32G0xx_HAL_Driver/Inc/stm32g0xx_ll_exti.h ****   * @retval None
 931:Drivers/STM32G0xx_HAL_Driver/Inc/stm32g0xx_ll_exti.h ****   */
 932:Drivers/STM32G0xx_HAL_Driver/Inc/stm32g0xx_ll_exti.h **** __STATIC_INLINE void LL_EXTI_EnableFallingTrig_32_63(uint32_t ExtiLine)
 933:Drivers/STM32G0xx_HAL_Driver/Inc/stm32g0xx_ll_exti.h **** {
 934:Drivers/STM32G0xx_HAL_Driver/Inc/stm32g0xx_ll_exti.h ****   SET_BIT(EXTI->FTSR2, ExtiLine);
 935:Drivers/STM32G0xx_HAL_Driver/Inc/stm32g0xx_ll_exti.h **** }
 936:Drivers/STM32G0xx_HAL_Driver/Inc/stm32g0xx_ll_exti.h **** #endif /* STM32G0C1xx || STM32G0B1xx */
 937:Drivers/STM32G0xx_HAL_Driver/Inc/stm32g0xx_ll_exti.h **** 
 938:Drivers/STM32G0xx_HAL_Driver/Inc/stm32g0xx_ll_exti.h **** /**
 939:Drivers/STM32G0xx_HAL_Driver/Inc/stm32g0xx_ll_exti.h ****   * @brief  Disable ExtiLine Falling Edge Trigger for Lines in range 0 to 31
 940:Drivers/STM32G0xx_HAL_Driver/Inc/stm32g0xx_ll_exti.h ****   * @note The configurable wakeup lines are edge-triggered. No glitch must be
 941:Drivers/STM32G0xx_HAL_Driver/Inc/stm32g0xx_ll_exti.h ****   *       generated on these lines. If a Falling edge on a configurable interrupt
 942:Drivers/STM32G0xx_HAL_Driver/Inc/stm32g0xx_ll_exti.h ****   *       line occurs during a write operation in the EXTI_FTSR register, the
 943:Drivers/STM32G0xx_HAL_Driver/Inc/stm32g0xx_ll_exti.h ****   *       pending bit is not set.
 944:Drivers/STM32G0xx_HAL_Driver/Inc/stm32g0xx_ll_exti.h ****   *       Rising and falling edge triggers can be set for the same interrupt line.
 945:Drivers/STM32G0xx_HAL_Driver/Inc/stm32g0xx_ll_exti.h ****   *       In this case, both generate a trigger condition.
 946:Drivers/STM32G0xx_HAL_Driver/Inc/stm32g0xx_ll_exti.h ****   * @rmtoll FTSR1        FTx           LL_EXTI_DisableFallingTrig_0_31
 947:Drivers/STM32G0xx_HAL_Driver/Inc/stm32g0xx_ll_exti.h ****   * @param  ExtiLine This parameter can be a combination of the following values:
 948:Drivers/STM32G0xx_HAL_Driver/Inc/stm32g0xx_ll_exti.h ****   *         @arg @ref LL_EXTI_LINE_0
 949:Drivers/STM32G0xx_HAL_Driver/Inc/stm32g0xx_ll_exti.h ****   *         @arg @ref LL_EXTI_LINE_1
 950:Drivers/STM32G0xx_HAL_Driver/Inc/stm32g0xx_ll_exti.h ****   *         @arg @ref LL_EXTI_LINE_2
 951:Drivers/STM32G0xx_HAL_Driver/Inc/stm32g0xx_ll_exti.h ****   *         @arg @ref LL_EXTI_LINE_3
 952:Drivers/STM32G0xx_HAL_Driver/Inc/stm32g0xx_ll_exti.h ****   *         @arg @ref LL_EXTI_LINE_4
 953:Drivers/STM32G0xx_HAL_Driver/Inc/stm32g0xx_ll_exti.h ****   *         @arg @ref LL_EXTI_LINE_5
 954:Drivers/STM32G0xx_HAL_Driver/Inc/stm32g0xx_ll_exti.h ****   *         @arg @ref LL_EXTI_LINE_6
 955:Drivers/STM32G0xx_HAL_Driver/Inc/stm32g0xx_ll_exti.h ****   *         @arg @ref LL_EXTI_LINE_7
 956:Drivers/STM32G0xx_HAL_Driver/Inc/stm32g0xx_ll_exti.h ****   *         @arg @ref LL_EXTI_LINE_8
 957:Drivers/STM32G0xx_HAL_Driver/Inc/stm32g0xx_ll_exti.h ****   *         @arg @ref LL_EXTI_LINE_9
 958:Drivers/STM32G0xx_HAL_Driver/Inc/stm32g0xx_ll_exti.h ****   *         @arg @ref LL_EXTI_LINE_10
 959:Drivers/STM32G0xx_HAL_Driver/Inc/stm32g0xx_ll_exti.h ****   *         @arg @ref LL_EXTI_LINE_11
 960:Drivers/STM32G0xx_HAL_Driver/Inc/stm32g0xx_ll_exti.h ****   *         @arg @ref LL_EXTI_LINE_12
 961:Drivers/STM32G0xx_HAL_Driver/Inc/stm32g0xx_ll_exti.h ****   *         @arg @ref LL_EXTI_LINE_13
 962:Drivers/STM32G0xx_HAL_Driver/Inc/stm32g0xx_ll_exti.h ****   *         @arg @ref LL_EXTI_LINE_14
 963:Drivers/STM32G0xx_HAL_Driver/Inc/stm32g0xx_ll_exti.h ****   *         @arg @ref LL_EXTI_LINE_15
 964:Drivers/STM32G0xx_HAL_Driver/Inc/stm32g0xx_ll_exti.h ****   *         @arg @ref LL_EXTI_LINE_16
 965:Drivers/STM32G0xx_HAL_Driver/Inc/stm32g0xx_ll_exti.h ****   *         @arg @ref LL_EXTI_LINE_17
 966:Drivers/STM32G0xx_HAL_Driver/Inc/stm32g0xx_ll_exti.h ****   *         @arg @ref LL_EXTI_LINE_18
 967:Drivers/STM32G0xx_HAL_Driver/Inc/stm32g0xx_ll_exti.h ****   *         @arg @ref LL_EXTI_LINE_20
 968:Drivers/STM32G0xx_HAL_Driver/Inc/stm32g0xx_ll_exti.h ****   * @note   Please check each device line mapping for EXTI Line availability
 969:Drivers/STM32G0xx_HAL_Driver/Inc/stm32g0xx_ll_exti.h ****   * @retval None
 970:Drivers/STM32G0xx_HAL_Driver/Inc/stm32g0xx_ll_exti.h ****   */
 971:Drivers/STM32G0xx_HAL_Driver/Inc/stm32g0xx_ll_exti.h **** __STATIC_INLINE void LL_EXTI_DisableFallingTrig_0_31(uint32_t ExtiLine)
 200              		.loc 2 971 22 view .LVU51
 201              	.LBB51:
 972:Drivers/STM32G0xx_HAL_Driver/Inc/stm32g0xx_ll_exti.h **** {
 973:Drivers/STM32G0xx_HAL_Driver/Inc/stm32g0xx_ll_exti.h ****   CLEAR_BIT(EXTI->FTSR1, ExtiLine);
ARM GAS  /tmp/ccXPwwLX.s 			page 25


 202              		.loc 2 973 3 view .LVU52
 203 0050 494A     		ldr	r2, .L18
 204              	.LVL11:
 205              		.loc 2 973 3 is_stmt 0 view .LVU53
 206 0052 5168     		ldr	r1, [r2, #4]
 207 0054 6446     		mov	r4, ip
 208 0056 A143     		bics	r1, r4
 209 0058 5160     		str	r1, [r2, #4]
 210              	.LVL12:
 211              		.loc 2 973 3 view .LVU54
 212              	.LBE51:
 213              	.LBE50:
 193:Drivers/STM32G0xx_HAL_Driver/Src/stm32g0xx_ll_exti.c ****             /* Then Enable Rising Trigger on provided Lines */
 194:Drivers/STM32G0xx_HAL_Driver/Src/stm32g0xx_ll_exti.c ****             LL_EXTI_EnableRisingTrig_0_31(EXTI_InitStruct->Line_0_31);
 214              		.loc 1 194 13 is_stmt 1 view .LVU55
 215 005a 1968     		ldr	r1, [r3]
 216              	.LVL13:
 217              	.LBB52:
 218              	.LBI52:
 732:Drivers/STM32G0xx_HAL_Driver/Inc/stm32g0xx_ll_exti.h **** {
 219              		.loc 2 732 22 view .LVU56
 220              	.LBB53:
 734:Drivers/STM32G0xx_HAL_Driver/Inc/stm32g0xx_ll_exti.h **** 
 221              		.loc 2 734 3 view .LVU57
 222 005c 1468     		ldr	r4, [r2]
 223 005e 2143     		orrs	r1, r4
 224              	.LVL14:
 734:Drivers/STM32G0xx_HAL_Driver/Inc/stm32g0xx_ll_exti.h **** 
 225              		.loc 2 734 3 is_stmt 0 view .LVU58
 226 0060 1160     		str	r1, [r2]
 227              	.LVL15:
 734:Drivers/STM32G0xx_HAL_Driver/Inc/stm32g0xx_ll_exti.h **** 
 228              		.loc 2 734 3 view .LVU59
 229              	.LBE53:
 230              	.LBE52:
 195:Drivers/STM32G0xx_HAL_Driver/Src/stm32g0xx_ll_exti.c ****             break;
 231              		.loc 1 195 13 is_stmt 1 view .LVU60
 232              	.L6:
 196:Drivers/STM32G0xx_HAL_Driver/Src/stm32g0xx_ll_exti.c ****           case LL_EXTI_TRIGGER_FALLING:
 197:Drivers/STM32G0xx_HAL_Driver/Src/stm32g0xx_ll_exti.c ****             /* First Disable Rising Trigger on provided Lines */
 198:Drivers/STM32G0xx_HAL_Driver/Src/stm32g0xx_ll_exti.c ****             LL_EXTI_DisableRisingTrig_0_31(EXTI_InitStruct->Line_0_31);
 199:Drivers/STM32G0xx_HAL_Driver/Src/stm32g0xx_ll_exti.c ****             /* Then Enable Falling Trigger on provided Lines */
 200:Drivers/STM32G0xx_HAL_Driver/Src/stm32g0xx_ll_exti.c ****             LL_EXTI_EnableFallingTrig_0_31(EXTI_InitStruct->Line_0_31);
 201:Drivers/STM32G0xx_HAL_Driver/Src/stm32g0xx_ll_exti.c ****             break;
 202:Drivers/STM32G0xx_HAL_Driver/Src/stm32g0xx_ll_exti.c ****           case LL_EXTI_TRIGGER_RISING_FALLING:
 203:Drivers/STM32G0xx_HAL_Driver/Src/stm32g0xx_ll_exti.c ****             LL_EXTI_EnableRisingTrig_0_31(EXTI_InitStruct->Line_0_31);
 204:Drivers/STM32G0xx_HAL_Driver/Src/stm32g0xx_ll_exti.c ****             LL_EXTI_EnableFallingTrig_0_31(EXTI_InitStruct->Line_0_31);
 205:Drivers/STM32G0xx_HAL_Driver/Src/stm32g0xx_ll_exti.c ****             break;
 206:Drivers/STM32G0xx_HAL_Driver/Src/stm32g0xx_ll_exti.c ****           default:
 207:Drivers/STM32G0xx_HAL_Driver/Src/stm32g0xx_ll_exti.c ****             status |= 0x02u;
 208:Drivers/STM32G0xx_HAL_Driver/Src/stm32g0xx_ll_exti.c ****             break;
 209:Drivers/STM32G0xx_HAL_Driver/Src/stm32g0xx_ll_exti.c ****         }
 210:Drivers/STM32G0xx_HAL_Driver/Src/stm32g0xx_ll_exti.c ****       }
 211:Drivers/STM32G0xx_HAL_Driver/Src/stm32g0xx_ll_exti.c ****     }
 212:Drivers/STM32G0xx_HAL_Driver/Src/stm32g0xx_ll_exti.c **** #if defined(STM32G081xx) || defined(STM32G071xx) || defined(STM32G0C1xx) || defined(STM32G0B1xx) ||
 213:Drivers/STM32G0xx_HAL_Driver/Src/stm32g0xx_ll_exti.c ****     /* Configure EXTI Lines in range from 32 to 63 */
 214:Drivers/STM32G0xx_HAL_Driver/Src/stm32g0xx_ll_exti.c ****     if (EXTI_InitStruct->Line_32_63 != LL_EXTI_LINE_NONE)
ARM GAS  /tmp/ccXPwwLX.s 			page 26


 233              		.loc 1 214 5 view .LVU61
 234              		.loc 1 214 24 is_stmt 0 view .LVU62
 235 0062 5A68     		ldr	r2, [r3, #4]
 236              		.loc 1 214 8 view .LVU63
 237 0064 002A     		cmp	r2, #0
 238 0066 00D1     		bne	.LCB187
 239 0068 85E0     		b	.L4	@long jump
 240              	.LCB187:
 215:Drivers/STM32G0xx_HAL_Driver/Src/stm32g0xx_ll_exti.c ****     {
 216:Drivers/STM32G0xx_HAL_Driver/Src/stm32g0xx_ll_exti.c ****       switch (EXTI_InitStruct->Mode)
 241              		.loc 1 216 7 is_stmt 1 view .LVU64
 242              		.loc 1 216 30 is_stmt 0 view .LVU65
 243 006a 597A     		ldrb	r1, [r3, #9]
 244              		.loc 1 216 7 view .LVU66
 245 006c 0129     		cmp	r1, #1
 246 006e 48D0     		beq	.L14
 247 0070 0229     		cmp	r1, #2
 248 0072 54D0     		beq	.L15
 249 0074 0029     		cmp	r1, #0
 250 0076 5FD1     		bne	.L16
 217:Drivers/STM32G0xx_HAL_Driver/Src/stm32g0xx_ll_exti.c ****       {
 218:Drivers/STM32G0xx_HAL_Driver/Src/stm32g0xx_ll_exti.c ****         case LL_EXTI_MODE_IT:
 219:Drivers/STM32G0xx_HAL_Driver/Src/stm32g0xx_ll_exti.c ****           /* First Disable Event on provided Lines */
 220:Drivers/STM32G0xx_HAL_Driver/Src/stm32g0xx_ll_exti.c ****           LL_EXTI_DisableEvent_32_63(EXTI_InitStruct->Line_32_63);
 251              		.loc 1 220 11 is_stmt 1 view .LVU67
 252              	.LVL16:
 253              	.LBB54:
 254              	.LBI54:
 623:Drivers/STM32G0xx_HAL_Driver/Inc/stm32g0xx_ll_exti.h **** {
 255              		.loc 2 623 22 view .LVU68
 256              	.LBB55:
 625:Drivers/STM32G0xx_HAL_Driver/Inc/stm32g0xx_ll_exti.h **** }
 257              		.loc 2 625 3 view .LVU69
 258 0078 3F49     		ldr	r1, .L18
 259 007a 9424     		movs	r4, #148
 260 007c A446     		mov	ip, r4
 261 007e 0C59     		ldr	r4, [r1, r4]
 262 0080 9443     		bics	r4, r2
 263 0082 2200     		movs	r2, r4
 264              	.LVL17:
 625:Drivers/STM32G0xx_HAL_Driver/Inc/stm32g0xx_ll_exti.h **** }
 265              		.loc 2 625 3 is_stmt 0 view .LVU70
 266 0084 6446     		mov	r4, ip
 267 0086 0A51     		str	r2, [r1, r4]
 268              	.LVL18:
 625:Drivers/STM32G0xx_HAL_Driver/Inc/stm32g0xx_ll_exti.h **** }
 269              		.loc 2 625 3 view .LVU71
 270              	.LBE55:
 271              	.LBE54:
 221:Drivers/STM32G0xx_HAL_Driver/Src/stm32g0xx_ll_exti.c ****           /* Then Enable IT on provided Lines */
 222:Drivers/STM32G0xx_HAL_Driver/Src/stm32g0xx_ll_exti.c ****           LL_EXTI_EnableIT_32_63(EXTI_InitStruct->Line_32_63);
 272              		.loc 1 222 11 is_stmt 1 view .LVU72
 273 0088 5B68     		ldr	r3, [r3, #4]
 274              	.LVL19:
 275              	.LBB56:
 276              	.LBI56:
 356:Drivers/STM32G0xx_HAL_Driver/Inc/stm32g0xx_ll_exti.h **** {
ARM GAS  /tmp/ccXPwwLX.s 			page 27


 277              		.loc 2 356 22 view .LVU73
 278              	.LBB57:
 358:Drivers/STM32G0xx_HAL_Driver/Inc/stm32g0xx_ll_exti.h **** }
 279              		.loc 2 358 3 view .LVU74
 280 008a 9022     		movs	r2, #144
 281 008c 8C58     		ldr	r4, [r1, r2]
 282 008e 2343     		orrs	r3, r4
 283              	.LVL20:
 358:Drivers/STM32G0xx_HAL_Driver/Inc/stm32g0xx_ll_exti.h **** }
 284              		.loc 2 358 3 is_stmt 0 view .LVU75
 285 0090 8B50     		str	r3, [r1, r2]
 286              	.LVL21:
 358:Drivers/STM32G0xx_HAL_Driver/Inc/stm32g0xx_ll_exti.h **** }
 287              		.loc 2 358 3 view .LVU76
 288              	.LBE57:
 289              	.LBE56:
 223:Drivers/STM32G0xx_HAL_Driver/Src/stm32g0xx_ll_exti.c ****           break;
 290              		.loc 1 223 11 is_stmt 1 view .LVU77
 291              	.LBB59:
 292              	.LBB58:
 359:Drivers/STM32G0xx_HAL_Driver/Inc/stm32g0xx_ll_exti.h **** #endif /* STM32G081xx || STM32G071xx || STM32G0C1xx || STM32G0B1xx || STM32G0B0xx */
 293              		.loc 2 359 1 is_stmt 0 view .LVU78
 294 0092 70E0     		b	.L4
 295              	.LVL22:
 296              	.L7:
 359:Drivers/STM32G0xx_HAL_Driver/Inc/stm32g0xx_ll_exti.h **** #endif /* STM32G081xx || STM32G071xx || STM32G0C1xx || STM32G0B1xx || STM32G0B0xx */
 297              		.loc 2 359 1 view .LVU79
 298              	.LBE58:
 299              	.LBE59:
 173:Drivers/STM32G0xx_HAL_Driver/Src/stm32g0xx_ll_exti.c ****           /* Then Enable Event on provided Lines */
 300              		.loc 1 173 11 is_stmt 1 view .LVU80
 301              	.LBB60:
 302              	.LBI60:
 402:Drivers/STM32G0xx_HAL_Driver/Inc/stm32g0xx_ll_exti.h **** {
 303              		.loc 2 402 22 view .LVU81
 304              	.LBB61:
 404:Drivers/STM32G0xx_HAL_Driver/Inc/stm32g0xx_ll_exti.h **** }
 305              		.loc 2 404 3 view .LVU82
 306 0094 384A     		ldr	r2, .L18
 307 0096 8021     		movs	r1, #128
 308 0098 8C46     		mov	ip, r1
 309 009a 5158     		ldr	r1, [r2, r1]
 310 009c 8143     		bics	r1, r0
 311 009e 6046     		mov	r0, ip
 312              	.LVL23:
 404:Drivers/STM32G0xx_HAL_Driver/Inc/stm32g0xx_ll_exti.h **** }
 313              		.loc 2 404 3 is_stmt 0 view .LVU83
 314 00a0 1150     		str	r1, [r2, r0]
 315              	.LVL24:
 404:Drivers/STM32G0xx_HAL_Driver/Inc/stm32g0xx_ll_exti.h **** }
 316              		.loc 2 404 3 view .LVU84
 317              	.LBE61:
 318              	.LBE60:
 175:Drivers/STM32G0xx_HAL_Driver/Src/stm32g0xx_ll_exti.c ****           break;
 319              		.loc 1 175 11 is_stmt 1 view .LVU85
 320 00a2 1968     		ldr	r1, [r3]
 321              	.LVL25:
ARM GAS  /tmp/ccXPwwLX.s 			page 28


 322              	.LBB62:
 323              	.LBI62:
 542:Drivers/STM32G0xx_HAL_Driver/Inc/stm32g0xx_ll_exti.h **** {
 324              		.loc 2 542 22 view .LVU86
 325              	.LBB63:
 544:Drivers/STM32G0xx_HAL_Driver/Inc/stm32g0xx_ll_exti.h **** 
 326              		.loc 2 544 3 view .LVU87
 327 00a4 0430     		adds	r0, r0, #4
 328 00a6 1458     		ldr	r4, [r2, r0]
 329 00a8 2143     		orrs	r1, r4
 330              	.LVL26:
 544:Drivers/STM32G0xx_HAL_Driver/Inc/stm32g0xx_ll_exti.h **** 
 331              		.loc 2 544 3 is_stmt 0 view .LVU88
 332 00aa 1150     		str	r1, [r2, r0]
 333              	.LVL27:
 544:Drivers/STM32G0xx_HAL_Driver/Inc/stm32g0xx_ll_exti.h **** 
 334              		.loc 2 544 3 view .LVU89
 335              	.LBE63:
 336              	.LBE62:
 176:Drivers/STM32G0xx_HAL_Driver/Src/stm32g0xx_ll_exti.c ****         case LL_EXTI_MODE_IT_EVENT:
 337              		.loc 1 176 11 is_stmt 1 view .LVU90
 145:Drivers/STM32G0xx_HAL_Driver/Src/stm32g0xx_ll_exti.c **** 
 338              		.loc 1 145 12 is_stmt 0 view .LVU91
 339 00ac 0020     		movs	r0, #0
 340              	.LBB65:
 341              	.LBB64:
 546:Drivers/STM32G0xx_HAL_Driver/Inc/stm32g0xx_ll_exti.h **** 
 342              		.loc 2 546 1 view .LVU92
 343 00ae C4E7     		b	.L9
 344              	.L8:
 546:Drivers/STM32G0xx_HAL_Driver/Inc/stm32g0xx_ll_exti.h **** 
 345              		.loc 2 546 1 view .LVU93
 346              	.LBE64:
 347              	.LBE65:
 179:Drivers/STM32G0xx_HAL_Driver/Src/stm32g0xx_ll_exti.c ****           LL_EXTI_EnableEvent_0_31(EXTI_InitStruct->Line_0_31);
 348              		.loc 1 179 11 is_stmt 1 view .LVU94
 349              	.LVL28:
 350              	.LBB66:
 351              	.LBI66:
 334:Drivers/STM32G0xx_HAL_Driver/Inc/stm32g0xx_ll_exti.h **** {
 352              		.loc 2 334 22 view .LVU95
 353              	.LBB67:
 336:Drivers/STM32G0xx_HAL_Driver/Inc/stm32g0xx_ll_exti.h **** }
 354              		.loc 2 336 3 view .LVU96
 355 00b0 314A     		ldr	r2, .L18
 356 00b2 8021     		movs	r1, #128
 357 00b4 8C46     		mov	ip, r1
 358 00b6 5158     		ldr	r1, [r2, r1]
 359 00b8 0143     		orrs	r1, r0
 360 00ba 6046     		mov	r0, ip
 361              	.LVL29:
 336:Drivers/STM32G0xx_HAL_Driver/Inc/stm32g0xx_ll_exti.h **** }
 362              		.loc 2 336 3 is_stmt 0 view .LVU97
 363 00bc 1150     		str	r1, [r2, r0]
 364              	.LVL30:
 336:Drivers/STM32G0xx_HAL_Driver/Inc/stm32g0xx_ll_exti.h **** }
 365              		.loc 2 336 3 view .LVU98
ARM GAS  /tmp/ccXPwwLX.s 			page 29


 366              	.LBE67:
 367              	.LBE66:
 180:Drivers/STM32G0xx_HAL_Driver/Src/stm32g0xx_ll_exti.c ****           break;
 368              		.loc 1 180 11 is_stmt 1 view .LVU99
 369 00be 1968     		ldr	r1, [r3]
 370              	.LVL31:
 371              	.LBB68:
 372              	.LBI68:
 542:Drivers/STM32G0xx_HAL_Driver/Inc/stm32g0xx_ll_exti.h **** {
 373              		.loc 2 542 22 view .LVU100
 374              	.LBB69:
 544:Drivers/STM32G0xx_HAL_Driver/Inc/stm32g0xx_ll_exti.h **** 
 375              		.loc 2 544 3 view .LVU101
 376 00c0 0430     		adds	r0, r0, #4
 377 00c2 1458     		ldr	r4, [r2, r0]
 378 00c4 2143     		orrs	r1, r4
 379              	.LVL32:
 544:Drivers/STM32G0xx_HAL_Driver/Inc/stm32g0xx_ll_exti.h **** 
 380              		.loc 2 544 3 is_stmt 0 view .LVU102
 381 00c6 1150     		str	r1, [r2, r0]
 382              	.LVL33:
 544:Drivers/STM32G0xx_HAL_Driver/Inc/stm32g0xx_ll_exti.h **** 
 383              		.loc 2 544 3 view .LVU103
 384              	.LBE69:
 385              	.LBE68:
 181:Drivers/STM32G0xx_HAL_Driver/Src/stm32g0xx_ll_exti.c ****         default:
 386              		.loc 1 181 11 is_stmt 1 view .LVU104
 145:Drivers/STM32G0xx_HAL_Driver/Src/stm32g0xx_ll_exti.c **** 
 387              		.loc 1 145 12 is_stmt 0 view .LVU105
 388 00c8 0020     		movs	r0, #0
 389              	.LBB71:
 390              	.LBB70:
 546:Drivers/STM32G0xx_HAL_Driver/Inc/stm32g0xx_ll_exti.h **** 
 391              		.loc 2 546 1 view .LVU106
 392 00ca B6E7     		b	.L9
 393              	.L17:
 546:Drivers/STM32G0xx_HAL_Driver/Inc/stm32g0xx_ll_exti.h **** 
 394              		.loc 2 546 1 view .LVU107
 395              	.LBE70:
 396              	.LBE71:
 163:Drivers/STM32G0xx_HAL_Driver/Src/stm32g0xx_ll_exti.c ****       {
 397              		.loc 1 163 7 view .LVU108
 398 00cc 0120     		movs	r0, #1
 399 00ce B4E7     		b	.L9
 400              	.LVL34:
 401              	.L10:
 198:Drivers/STM32G0xx_HAL_Driver/Src/stm32g0xx_ll_exti.c ****             /* Then Enable Falling Trigger on provided Lines */
 402              		.loc 1 198 13 is_stmt 1 view .LVU109
 403 00d0 1A68     		ldr	r2, [r3]
 404 00d2 9446     		mov	ip, r2
 405              	.LVL35:
 406              	.LBB72:
 407              	.LBI72:
 794:Drivers/STM32G0xx_HAL_Driver/Inc/stm32g0xx_ll_exti.h **** {
 408              		.loc 2 794 22 view .LVU110
 409              	.LBB73:
 796:Drivers/STM32G0xx_HAL_Driver/Inc/stm32g0xx_ll_exti.h **** 
ARM GAS  /tmp/ccXPwwLX.s 			page 30


 410              		.loc 2 796 3 view .LVU111
 411 00d4 284A     		ldr	r2, .L18
 412              	.LVL36:
 796:Drivers/STM32G0xx_HAL_Driver/Inc/stm32g0xx_ll_exti.h **** 
 413              		.loc 2 796 3 is_stmt 0 view .LVU112
 414 00d6 1168     		ldr	r1, [r2]
 415 00d8 6446     		mov	r4, ip
 416 00da A143     		bics	r1, r4
 417 00dc 1160     		str	r1, [r2]
 418              	.LVL37:
 796:Drivers/STM32G0xx_HAL_Driver/Inc/stm32g0xx_ll_exti.h **** 
 419              		.loc 2 796 3 view .LVU113
 420              	.LBE73:
 421              	.LBE72:
 200:Drivers/STM32G0xx_HAL_Driver/Src/stm32g0xx_ll_exti.c ****             break;
 422              		.loc 1 200 13 is_stmt 1 view .LVU114
 423 00de 1968     		ldr	r1, [r3]
 424              	.LVL38:
 425              	.LBB74:
 426              	.LBI74:
 911:Drivers/STM32G0xx_HAL_Driver/Inc/stm32g0xx_ll_exti.h **** {
 427              		.loc 2 911 22 view .LVU115
 428              	.LBB75:
 913:Drivers/STM32G0xx_HAL_Driver/Inc/stm32g0xx_ll_exti.h **** }
 429              		.loc 2 913 3 view .LVU116
 430 00e0 5468     		ldr	r4, [r2, #4]
 431 00e2 2143     		orrs	r1, r4
 432              	.LVL39:
 913:Drivers/STM32G0xx_HAL_Driver/Inc/stm32g0xx_ll_exti.h **** }
 433              		.loc 2 913 3 is_stmt 0 view .LVU117
 434 00e4 5160     		str	r1, [r2, #4]
 435              	.LVL40:
 913:Drivers/STM32G0xx_HAL_Driver/Inc/stm32g0xx_ll_exti.h **** }
 436              		.loc 2 913 3 view .LVU118
 437              	.LBE75:
 438              	.LBE74:
 201:Drivers/STM32G0xx_HAL_Driver/Src/stm32g0xx_ll_exti.c ****           case LL_EXTI_TRIGGER_RISING_FALLING:
 439              		.loc 1 201 13 is_stmt 1 view .LVU119
 440              	.LBB77:
 441              	.LBB76:
 914:Drivers/STM32G0xx_HAL_Driver/Inc/stm32g0xx_ll_exti.h **** 
 442              		.loc 2 914 1 is_stmt 0 view .LVU120
 443 00e6 BCE7     		b	.L6
 444              	.L11:
 914:Drivers/STM32G0xx_HAL_Driver/Inc/stm32g0xx_ll_exti.h **** 
 445              		.loc 2 914 1 view .LVU121
 446              	.LBE76:
 447              	.LBE77:
 203:Drivers/STM32G0xx_HAL_Driver/Src/stm32g0xx_ll_exti.c ****             LL_EXTI_EnableFallingTrig_0_31(EXTI_InitStruct->Line_0_31);
 448              		.loc 1 203 13 is_stmt 1 view .LVU122
 449 00e8 1968     		ldr	r1, [r3]
 450              	.LVL41:
 451              	.LBB78:
 452              	.LBI78:
 732:Drivers/STM32G0xx_HAL_Driver/Inc/stm32g0xx_ll_exti.h **** {
 453              		.loc 2 732 22 view .LVU123
 454              	.LBB79:
ARM GAS  /tmp/ccXPwwLX.s 			page 31


 734:Drivers/STM32G0xx_HAL_Driver/Inc/stm32g0xx_ll_exti.h **** 
 455              		.loc 2 734 3 view .LVU124
 456 00ea 234A     		ldr	r2, .L18
 457 00ec 1468     		ldr	r4, [r2]
 458 00ee 2143     		orrs	r1, r4
 459              	.LVL42:
 734:Drivers/STM32G0xx_HAL_Driver/Inc/stm32g0xx_ll_exti.h **** 
 460              		.loc 2 734 3 is_stmt 0 view .LVU125
 461 00f0 1160     		str	r1, [r2]
 462              	.LVL43:
 734:Drivers/STM32G0xx_HAL_Driver/Inc/stm32g0xx_ll_exti.h **** 
 463              		.loc 2 734 3 view .LVU126
 464              	.LBE79:
 465              	.LBE78:
 204:Drivers/STM32G0xx_HAL_Driver/Src/stm32g0xx_ll_exti.c ****             break;
 466              		.loc 1 204 13 is_stmt 1 view .LVU127
 467 00f2 1968     		ldr	r1, [r3]
 468              	.LVL44:
 469              	.LBB80:
 470              	.LBI80:
 911:Drivers/STM32G0xx_HAL_Driver/Inc/stm32g0xx_ll_exti.h **** {
 471              		.loc 2 911 22 view .LVU128
 472              	.LBB81:
 913:Drivers/STM32G0xx_HAL_Driver/Inc/stm32g0xx_ll_exti.h **** }
 473              		.loc 2 913 3 view .LVU129
 474 00f4 5468     		ldr	r4, [r2, #4]
 475 00f6 2143     		orrs	r1, r4
 476              	.LVL45:
 913:Drivers/STM32G0xx_HAL_Driver/Inc/stm32g0xx_ll_exti.h **** }
 477              		.loc 2 913 3 is_stmt 0 view .LVU130
 478 00f8 5160     		str	r1, [r2, #4]
 479              	.LVL46:
 913:Drivers/STM32G0xx_HAL_Driver/Inc/stm32g0xx_ll_exti.h **** }
 480              		.loc 2 913 3 view .LVU131
 481              	.LBE81:
 482              	.LBE80:
 205:Drivers/STM32G0xx_HAL_Driver/Src/stm32g0xx_ll_exti.c ****           default:
 483              		.loc 1 205 13 is_stmt 1 view .LVU132
 484              	.LBB83:
 485              	.LBB82:
 914:Drivers/STM32G0xx_HAL_Driver/Inc/stm32g0xx_ll_exti.h **** 
 486              		.loc 2 914 1 is_stmt 0 view .LVU133
 487 00fa B2E7     		b	.L6
 488              	.L12:
 914:Drivers/STM32G0xx_HAL_Driver/Inc/stm32g0xx_ll_exti.h **** 
 489              		.loc 2 914 1 view .LVU134
 490              	.LBE82:
 491              	.LBE83:
 207:Drivers/STM32G0xx_HAL_Driver/Src/stm32g0xx_ll_exti.c ****             break;
 492              		.loc 1 207 13 is_stmt 1 view .LVU135
 207:Drivers/STM32G0xx_HAL_Driver/Src/stm32g0xx_ll_exti.c ****             break;
 493              		.loc 1 207 20 is_stmt 0 view .LVU136
 494 00fc 0222     		movs	r2, #2
 495 00fe 1043     		orrs	r0, r2
 496              	.LVL47:
 208:Drivers/STM32G0xx_HAL_Driver/Src/stm32g0xx_ll_exti.c ****         }
 497              		.loc 1 208 13 is_stmt 1 view .LVU137
ARM GAS  /tmp/ccXPwwLX.s 			page 32


 498 0100 AFE7     		b	.L6
 499              	.L14:
 224:Drivers/STM32G0xx_HAL_Driver/Src/stm32g0xx_ll_exti.c ****         case LL_EXTI_MODE_EVENT:
 225:Drivers/STM32G0xx_HAL_Driver/Src/stm32g0xx_ll_exti.c ****           /* First Disable IT on provided Lines */
 226:Drivers/STM32G0xx_HAL_Driver/Src/stm32g0xx_ll_exti.c ****           LL_EXTI_DisableIT_32_63(EXTI_InitStruct->Line_32_63);
 500              		.loc 1 226 11 view .LVU138
 501              	.LVL48:
 502              	.LBB84:
 503              	.LBI84:
 424:Drivers/STM32G0xx_HAL_Driver/Inc/stm32g0xx_ll_exti.h **** {
 504              		.loc 2 424 22 view .LVU139
 505              	.LBB85:
 426:Drivers/STM32G0xx_HAL_Driver/Inc/stm32g0xx_ll_exti.h **** }
 506              		.loc 2 426 3 view .LVU140
 507 0102 1D49     		ldr	r1, .L18
 508 0104 9024     		movs	r4, #144
 509 0106 A446     		mov	ip, r4
 510 0108 0C59     		ldr	r4, [r1, r4]
 511 010a 9443     		bics	r4, r2
 512 010c 2200     		movs	r2, r4
 513              	.LVL49:
 426:Drivers/STM32G0xx_HAL_Driver/Inc/stm32g0xx_ll_exti.h **** }
 514              		.loc 2 426 3 is_stmt 0 view .LVU141
 515 010e 6446     		mov	r4, ip
 516 0110 0A51     		str	r2, [r1, r4]
 517              	.LVL50:
 426:Drivers/STM32G0xx_HAL_Driver/Inc/stm32g0xx_ll_exti.h **** }
 518              		.loc 2 426 3 view .LVU142
 519              	.LBE85:
 520              	.LBE84:
 227:Drivers/STM32G0xx_HAL_Driver/Src/stm32g0xx_ll_exti.c ****           /* Then Enable Event on provided Lines */
 228:Drivers/STM32G0xx_HAL_Driver/Src/stm32g0xx_ll_exti.c ****           LL_EXTI_EnableEvent_32_63(EXTI_InitStruct->Line_32_63);
 521              		.loc 1 228 11 is_stmt 1 view .LVU143
 522 0112 5B68     		ldr	r3, [r3, #4]
 523              	.LVL51:
 524              	.LBB86:
 525              	.LBI86:
 562:Drivers/STM32G0xx_HAL_Driver/Inc/stm32g0xx_ll_exti.h **** {
 526              		.loc 2 562 22 view .LVU144
 527              	.LBB87:
 564:Drivers/STM32G0xx_HAL_Driver/Inc/stm32g0xx_ll_exti.h **** }
 528              		.loc 2 564 3 view .LVU145
 529 0114 9422     		movs	r2, #148
 530 0116 8C58     		ldr	r4, [r1, r2]
 531 0118 2343     		orrs	r3, r4
 532              	.LVL52:
 564:Drivers/STM32G0xx_HAL_Driver/Inc/stm32g0xx_ll_exti.h **** }
 533              		.loc 2 564 3 is_stmt 0 view .LVU146
 534 011a 8B50     		str	r3, [r1, r2]
 535              	.LVL53:
 564:Drivers/STM32G0xx_HAL_Driver/Inc/stm32g0xx_ll_exti.h **** }
 536              		.loc 2 564 3 view .LVU147
 537              	.LBE87:
 538              	.LBE86:
 229:Drivers/STM32G0xx_HAL_Driver/Src/stm32g0xx_ll_exti.c ****           break;
 539              		.loc 1 229 11 is_stmt 1 view .LVU148
 540              	.LBB89:
ARM GAS  /tmp/ccXPwwLX.s 			page 33


 541              	.LBB88:
 565:Drivers/STM32G0xx_HAL_Driver/Inc/stm32g0xx_ll_exti.h **** #endif /* STM32G081xx || STM32G071xx || STM32G0C1xx || STM32G0B1xx || STM32G0B0xx */
 542              		.loc 2 565 1 is_stmt 0 view .LVU149
 543 011c 2BE0     		b	.L4
 544              	.LVL54:
 545              	.L15:
 565:Drivers/STM32G0xx_HAL_Driver/Inc/stm32g0xx_ll_exti.h **** #endif /* STM32G081xx || STM32G071xx || STM32G0C1xx || STM32G0B1xx || STM32G0B0xx */
 546              		.loc 2 565 1 view .LVU150
 547              	.LBE88:
 548              	.LBE89:
 230:Drivers/STM32G0xx_HAL_Driver/Src/stm32g0xx_ll_exti.c ****         case LL_EXTI_MODE_IT_EVENT:
 231:Drivers/STM32G0xx_HAL_Driver/Src/stm32g0xx_ll_exti.c ****           /* Directly Enable IT & Event on provided Lines */
 232:Drivers/STM32G0xx_HAL_Driver/Src/stm32g0xx_ll_exti.c ****           LL_EXTI_EnableIT_32_63(EXTI_InitStruct->Line_32_63);
 549              		.loc 1 232 11 is_stmt 1 view .LVU151
 550              	.LBB90:
 551              	.LBI90:
 356:Drivers/STM32G0xx_HAL_Driver/Inc/stm32g0xx_ll_exti.h **** {
 552              		.loc 2 356 22 view .LVU152
 553              	.LBB91:
 358:Drivers/STM32G0xx_HAL_Driver/Inc/stm32g0xx_ll_exti.h **** }
 554              		.loc 2 358 3 view .LVU153
 555 011e 1649     		ldr	r1, .L18
 556 0120 9024     		movs	r4, #144
 557 0122 A446     		mov	ip, r4
 558 0124 0C59     		ldr	r4, [r1, r4]
 559 0126 2243     		orrs	r2, r4
 560              	.LVL55:
 358:Drivers/STM32G0xx_HAL_Driver/Inc/stm32g0xx_ll_exti.h **** }
 561              		.loc 2 358 3 is_stmt 0 view .LVU154
 562 0128 6446     		mov	r4, ip
 563 012a 0A51     		str	r2, [r1, r4]
 564              	.LVL56:
 358:Drivers/STM32G0xx_HAL_Driver/Inc/stm32g0xx_ll_exti.h **** }
 565              		.loc 2 358 3 view .LVU155
 566              	.LBE91:
 567              	.LBE90:
 233:Drivers/STM32G0xx_HAL_Driver/Src/stm32g0xx_ll_exti.c ****           LL_EXTI_EnableEvent_32_63(EXTI_InitStruct->Line_32_63);
 568              		.loc 1 233 11 is_stmt 1 view .LVU156
 569 012c 5B68     		ldr	r3, [r3, #4]
 570              	.LVL57:
 571              	.LBB92:
 572              	.LBI92:
 562:Drivers/STM32G0xx_HAL_Driver/Inc/stm32g0xx_ll_exti.h **** {
 573              		.loc 2 562 22 view .LVU157
 574              	.LBB93:
 564:Drivers/STM32G0xx_HAL_Driver/Inc/stm32g0xx_ll_exti.h **** }
 575              		.loc 2 564 3 view .LVU158
 576 012e 9422     		movs	r2, #148
 577 0130 8C58     		ldr	r4, [r1, r2]
 578 0132 2343     		orrs	r3, r4
 579              	.LVL58:
 564:Drivers/STM32G0xx_HAL_Driver/Inc/stm32g0xx_ll_exti.h **** }
 580              		.loc 2 564 3 is_stmt 0 view .LVU159
 581 0134 8B50     		str	r3, [r1, r2]
 582              	.LVL59:
 564:Drivers/STM32G0xx_HAL_Driver/Inc/stm32g0xx_ll_exti.h **** }
 583              		.loc 2 564 3 view .LVU160
ARM GAS  /tmp/ccXPwwLX.s 			page 34


 584              	.LBE93:
 585              	.LBE92:
 234:Drivers/STM32G0xx_HAL_Driver/Src/stm32g0xx_ll_exti.c ****           break;
 586              		.loc 1 234 11 is_stmt 1 view .LVU161
 587              	.LBB95:
 588              	.LBB94:
 565:Drivers/STM32G0xx_HAL_Driver/Inc/stm32g0xx_ll_exti.h **** #endif /* STM32G081xx || STM32G071xx || STM32G0C1xx || STM32G0B1xx || STM32G0B0xx */
 589              		.loc 2 565 1 is_stmt 0 view .LVU162
 590 0136 1EE0     		b	.L4
 591              	.LVL60:
 592              	.L16:
 565:Drivers/STM32G0xx_HAL_Driver/Inc/stm32g0xx_ll_exti.h **** #endif /* STM32G081xx || STM32G071xx || STM32G0C1xx || STM32G0B1xx || STM32G0B0xx */
 593              		.loc 2 565 1 view .LVU163
 594              	.LBE94:
 595              	.LBE95:
 235:Drivers/STM32G0xx_HAL_Driver/Src/stm32g0xx_ll_exti.c ****         default:
 236:Drivers/STM32G0xx_HAL_Driver/Src/stm32g0xx_ll_exti.c ****           status |= 0x04u;
 596              		.loc 1 236 11 is_stmt 1 view .LVU164
 597              		.loc 1 236 18 is_stmt 0 view .LVU165
 598 0138 0423     		movs	r3, #4
 599              	.LVL61:
 600              		.loc 1 236 18 view .LVU166
 601 013a 1843     		orrs	r0, r3
 602              	.LVL62:
 237:Drivers/STM32G0xx_HAL_Driver/Src/stm32g0xx_ll_exti.c ****           break;
 603              		.loc 1 237 11 is_stmt 1 view .LVU167
 604 013c 1BE0     		b	.L4
 605              	.LVL63:
 606              	.L5:
 238:Drivers/STM32G0xx_HAL_Driver/Src/stm32g0xx_ll_exti.c ****       }
 239:Drivers/STM32G0xx_HAL_Driver/Src/stm32g0xx_ll_exti.c ****     }
 240:Drivers/STM32G0xx_HAL_Driver/Src/stm32g0xx_ll_exti.c **** #endif /* STM32G081xx || STM32G071xx || STM32G0C1xx || STM32G0B1xx || STM32G0B0xx */
 241:Drivers/STM32G0xx_HAL_Driver/Src/stm32g0xx_ll_exti.c ****   }
 242:Drivers/STM32G0xx_HAL_Driver/Src/stm32g0xx_ll_exti.c ****   /* DISABLE LineCommand */
 243:Drivers/STM32G0xx_HAL_Driver/Src/stm32g0xx_ll_exti.c ****   else
 244:Drivers/STM32G0xx_HAL_Driver/Src/stm32g0xx_ll_exti.c ****   {
 245:Drivers/STM32G0xx_HAL_Driver/Src/stm32g0xx_ll_exti.c ****     /* De-configure EXTI Lines in range from 0 to 31 */
 246:Drivers/STM32G0xx_HAL_Driver/Src/stm32g0xx_ll_exti.c ****     LL_EXTI_DisableIT_0_31(EXTI_InitStruct->Line_0_31);
 607              		.loc 1 246 5 view .LVU168
 608 013e 0268     		ldr	r2, [r0]
 609 0140 9446     		mov	ip, r2
 610              	.LVL64:
 611              	.LBB96:
 612              	.LBI96:
 402:Drivers/STM32G0xx_HAL_Driver/Inc/stm32g0xx_ll_exti.h **** {
 613              		.loc 2 402 22 view .LVU169
 614              	.LBB97:
 404:Drivers/STM32G0xx_HAL_Driver/Inc/stm32g0xx_ll_exti.h **** }
 615              		.loc 2 404 3 view .LVU170
 616 0142 0D49     		ldr	r1, .L18
 617 0144 8020     		movs	r0, #128
 618              	.LVL65:
 404:Drivers/STM32G0xx_HAL_Driver/Inc/stm32g0xx_ll_exti.h **** }
 619              		.loc 2 404 3 is_stmt 0 view .LVU171
 620 0146 0A58     		ldr	r2, [r1, r0]
 621              	.LVL66:
 404:Drivers/STM32G0xx_HAL_Driver/Inc/stm32g0xx_ll_exti.h **** }
ARM GAS  /tmp/ccXPwwLX.s 			page 35


 622              		.loc 2 404 3 view .LVU172
 623 0148 6446     		mov	r4, ip
 624 014a A243     		bics	r2, r4
 625 014c 0A50     		str	r2, [r1, r0]
 626              	.LVL67:
 404:Drivers/STM32G0xx_HAL_Driver/Inc/stm32g0xx_ll_exti.h **** }
 627              		.loc 2 404 3 view .LVU173
 628              	.LBE97:
 629              	.LBE96:
 247:Drivers/STM32G0xx_HAL_Driver/Src/stm32g0xx_ll_exti.c ****     LL_EXTI_DisableEvent_0_31(EXTI_InitStruct->Line_0_31);
 630              		.loc 1 247 5 is_stmt 1 view .LVU174
 631 014e 1A68     		ldr	r2, [r3]
 632 0150 9446     		mov	ip, r2
 633              	.LVL68:
 634              	.LBB98:
 635              	.LBI98:
 604:Drivers/STM32G0xx_HAL_Driver/Inc/stm32g0xx_ll_exti.h **** {
 636              		.loc 2 604 22 view .LVU175
 637              	.LBB99:
 606:Drivers/STM32G0xx_HAL_Driver/Inc/stm32g0xx_ll_exti.h **** }
 638              		.loc 2 606 3 view .LVU176
 639 0152 0430     		adds	r0, r0, #4
 640 0154 0A58     		ldr	r2, [r1, r0]
 641              	.LVL69:
 606:Drivers/STM32G0xx_HAL_Driver/Inc/stm32g0xx_ll_exti.h **** }
 642              		.loc 2 606 3 is_stmt 0 view .LVU177
 643 0156 6446     		mov	r4, ip
 644 0158 A243     		bics	r2, r4
 645 015a 0A50     		str	r2, [r1, r0]
 646              	.LVL70:
 606:Drivers/STM32G0xx_HAL_Driver/Inc/stm32g0xx_ll_exti.h **** }
 647              		.loc 2 606 3 view .LVU178
 648              	.LBE99:
 649              	.LBE98:
 248:Drivers/STM32G0xx_HAL_Driver/Src/stm32g0xx_ll_exti.c **** #if defined(STM32G081xx) || defined(STM32G071xx) || defined(STM32G0C1xx) || defined(STM32G0B1xx) ||
 249:Drivers/STM32G0xx_HAL_Driver/Src/stm32g0xx_ll_exti.c ****     /* De-configure EXTI Lines in range from 32 to 63 */
 250:Drivers/STM32G0xx_HAL_Driver/Src/stm32g0xx_ll_exti.c ****     LL_EXTI_DisableIT_32_63(EXTI_InitStruct->Line_32_63);
 650              		.loc 1 250 5 is_stmt 1 view .LVU179
 651 015c 5A68     		ldr	r2, [r3, #4]
 652 015e 9446     		mov	ip, r2
 653              	.LVL71:
 654              	.LBB100:
 655              	.LBI100:
 424:Drivers/STM32G0xx_HAL_Driver/Inc/stm32g0xx_ll_exti.h **** {
 656              		.loc 2 424 22 view .LVU180
 657              	.LBB101:
 426:Drivers/STM32G0xx_HAL_Driver/Inc/stm32g0xx_ll_exti.h **** }
 658              		.loc 2 426 3 view .LVU181
 659 0160 0C30     		adds	r0, r0, #12
 660 0162 0A58     		ldr	r2, [r1, r0]
 661              	.LVL72:
 426:Drivers/STM32G0xx_HAL_Driver/Inc/stm32g0xx_ll_exti.h **** }
 662              		.loc 2 426 3 is_stmt 0 view .LVU182
 663 0164 6446     		mov	r4, ip
 664 0166 A243     		bics	r2, r4
 665 0168 0A50     		str	r2, [r1, r0]
 666              	.LVL73:
ARM GAS  /tmp/ccXPwwLX.s 			page 36


 426:Drivers/STM32G0xx_HAL_Driver/Inc/stm32g0xx_ll_exti.h **** }
 667              		.loc 2 426 3 view .LVU183
 668              	.LBE101:
 669              	.LBE100:
 251:Drivers/STM32G0xx_HAL_Driver/Src/stm32g0xx_ll_exti.c ****     LL_EXTI_DisableEvent_32_63(EXTI_InitStruct->Line_32_63);
 670              		.loc 1 251 5 is_stmt 1 view .LVU184
 671 016a 5868     		ldr	r0, [r3, #4]
 672              	.LVL74:
 673              	.LBB102:
 674              	.LBI102:
 623:Drivers/STM32G0xx_HAL_Driver/Inc/stm32g0xx_ll_exti.h **** {
 675              		.loc 2 623 22 view .LVU185
 676              	.LBB103:
 625:Drivers/STM32G0xx_HAL_Driver/Inc/stm32g0xx_ll_exti.h **** }
 677              		.loc 2 625 3 view .LVU186
 678 016c 9422     		movs	r2, #148
 679 016e 8B58     		ldr	r3, [r1, r2]
 680              	.LVL75:
 625:Drivers/STM32G0xx_HAL_Driver/Inc/stm32g0xx_ll_exti.h **** }
 681              		.loc 2 625 3 is_stmt 0 view .LVU187
 682 0170 8343     		bics	r3, r0
 683 0172 8B50     		str	r3, [r1, r2]
 684              	.LVL76:
 625:Drivers/STM32G0xx_HAL_Driver/Inc/stm32g0xx_ll_exti.h **** }
 685              		.loc 2 625 3 view .LVU188
 686              	.LBE103:
 687              	.LBE102:
 145:Drivers/STM32G0xx_HAL_Driver/Src/stm32g0xx_ll_exti.c **** 
 688              		.loc 1 145 12 view .LVU189
 689 0174 0020     		movs	r0, #0
 252:Drivers/STM32G0xx_HAL_Driver/Src/stm32g0xx_ll_exti.c **** #endif /* STM32G081xx || STM32G071xx || STM32G0C1xx || STM32G0B1xx || STM32G0B0xx */
 253:Drivers/STM32G0xx_HAL_Driver/Src/stm32g0xx_ll_exti.c ****   }
 254:Drivers/STM32G0xx_HAL_Driver/Src/stm32g0xx_ll_exti.c **** 
 255:Drivers/STM32G0xx_HAL_Driver/Src/stm32g0xx_ll_exti.c ****   return status;
 690              		.loc 1 255 3 is_stmt 1 view .LVU190
 691              	.LVL77:
 692              	.L4:
 256:Drivers/STM32G0xx_HAL_Driver/Src/stm32g0xx_ll_exti.c **** }
 693              		.loc 1 256 1 is_stmt 0 view .LVU191
 694              		@ sp needed
 695 0176 10BD     		pop	{r4, pc}
 696              	.L19:
 697              		.align	2
 698              	.L18:
 699 0178 00180240 		.word	1073879040
 700              		.cfi_endproc
 701              	.LFE90:
 703              		.section	.text.LL_EXTI_StructInit,"ax",%progbits
 704              		.align	1
 705              		.global	LL_EXTI_StructInit
 706              		.syntax unified
 707              		.code	16
 708              		.thumb_func
 710              	LL_EXTI_StructInit:
 711              	.LVL78:
 712              	.LFB91:
 257:Drivers/STM32G0xx_HAL_Driver/Src/stm32g0xx_ll_exti.c **** 
ARM GAS  /tmp/ccXPwwLX.s 			page 37


 258:Drivers/STM32G0xx_HAL_Driver/Src/stm32g0xx_ll_exti.c **** /**
 259:Drivers/STM32G0xx_HAL_Driver/Src/stm32g0xx_ll_exti.c ****   * @brief  Set each @ref LL_EXTI_InitTypeDef field to default value.
 260:Drivers/STM32G0xx_HAL_Driver/Src/stm32g0xx_ll_exti.c ****   * @param  EXTI_InitStruct Pointer to a @ref LL_EXTI_InitTypeDef structure.
 261:Drivers/STM32G0xx_HAL_Driver/Src/stm32g0xx_ll_exti.c ****   * @retval None
 262:Drivers/STM32G0xx_HAL_Driver/Src/stm32g0xx_ll_exti.c ****   */
 263:Drivers/STM32G0xx_HAL_Driver/Src/stm32g0xx_ll_exti.c **** void LL_EXTI_StructInit(LL_EXTI_InitTypeDef *EXTI_InitStruct)
 264:Drivers/STM32G0xx_HAL_Driver/Src/stm32g0xx_ll_exti.c **** {
 713              		.loc 1 264 1 is_stmt 1 view -0
 714              		.cfi_startproc
 715              		@ args = 0, pretend = 0, frame = 0
 716              		@ frame_needed = 0, uses_anonymous_args = 0
 717              		@ link register save eliminated.
 265:Drivers/STM32G0xx_HAL_Driver/Src/stm32g0xx_ll_exti.c ****   EXTI_InitStruct->Line_0_31      = LL_EXTI_LINE_NONE;
 718              		.loc 1 265 3 view .LVU193
 719              		.loc 1 265 35 is_stmt 0 view .LVU194
 720 0000 0023     		movs	r3, #0
 721 0002 0360     		str	r3, [r0]
 266:Drivers/STM32G0xx_HAL_Driver/Src/stm32g0xx_ll_exti.c **** #if defined(STM32G081xx) || defined(STM32G071xx) || defined(STM32G0C1xx) || defined(STM32G0B1xx) ||
 267:Drivers/STM32G0xx_HAL_Driver/Src/stm32g0xx_ll_exti.c ****   EXTI_InitStruct->Line_32_63     = LL_EXTI_LINE_NONE;
 722              		.loc 1 267 3 is_stmt 1 view .LVU195
 723              		.loc 1 267 35 is_stmt 0 view .LVU196
 724 0004 4360     		str	r3, [r0, #4]
 268:Drivers/STM32G0xx_HAL_Driver/Src/stm32g0xx_ll_exti.c **** #endif /* STM32G081xx || STM32G071xx || STM32G0C1xx || STM32G0B1xx || STM32G0B0xx */
 269:Drivers/STM32G0xx_HAL_Driver/Src/stm32g0xx_ll_exti.c ****   EXTI_InitStruct->LineCommand    = DISABLE;
 725              		.loc 1 269 3 is_stmt 1 view .LVU197
 726              		.loc 1 269 35 is_stmt 0 view .LVU198
 727 0006 0372     		strb	r3, [r0, #8]
 270:Drivers/STM32G0xx_HAL_Driver/Src/stm32g0xx_ll_exti.c ****   EXTI_InitStruct->Mode           = LL_EXTI_MODE_IT;
 728              		.loc 1 270 3 is_stmt 1 view .LVU199
 729              		.loc 1 270 35 is_stmt 0 view .LVU200
 730 0008 4372     		strb	r3, [r0, #9]
 271:Drivers/STM32G0xx_HAL_Driver/Src/stm32g0xx_ll_exti.c ****   EXTI_InitStruct->Trigger        = LL_EXTI_TRIGGER_FALLING;
 731              		.loc 1 271 3 is_stmt 1 view .LVU201
 732              		.loc 1 271 35 is_stmt 0 view .LVU202
 733 000a 0233     		adds	r3, r3, #2
 734 000c 8372     		strb	r3, [r0, #10]
 272:Drivers/STM32G0xx_HAL_Driver/Src/stm32g0xx_ll_exti.c **** }
 735              		.loc 1 272 1 view .LVU203
 736              		@ sp needed
 737 000e 7047     		bx	lr
 738              		.cfi_endproc
 739              	.LFE91:
 741              		.text
 742              	.Letext0:
 743              		.file 3 "/usr/arm-none-eabi/include/machine/_default_types.h"
 744              		.file 4 "/usr/arm-none-eabi/include/sys/_stdint.h"
 745              		.file 5 "Drivers/CMSIS/Device/ST/STM32G0xx/Include/stm32g0b1xx.h"
 746              		.file 6 "Drivers/CMSIS/Device/ST/STM32G0xx/Include/stm32g0xx.h"
ARM GAS  /tmp/ccXPwwLX.s 			page 38


DEFINED SYMBOLS
                            *ABS*:00000000 stm32g0xx_ll_exti.c
     /tmp/ccXPwwLX.s:19     .text.LL_EXTI_DeInit:00000000 $t
     /tmp/ccXPwwLX.s:25     .text.LL_EXTI_DeInit:00000000 LL_EXTI_DeInit
     /tmp/ccXPwwLX.s:78     .text.LL_EXTI_DeInit:00000034 $d
     /tmp/ccXPwwLX.s:85     .text.LL_EXTI_Init:00000000 $t
     /tmp/ccXPwwLX.s:91     .text.LL_EXTI_Init:00000000 LL_EXTI_Init
     /tmp/ccXPwwLX.s:699    .text.LL_EXTI_Init:00000178 $d
     /tmp/ccXPwwLX.s:704    .text.LL_EXTI_StructInit:00000000 $t
     /tmp/ccXPwwLX.s:710    .text.LL_EXTI_StructInit:00000000 LL_EXTI_StructInit

NO UNDEFINED SYMBOLS
