ARM GAS  /tmp/ccCGQMHS.s 			page 1


   1              		.cpu cortex-m0plus
   2              		.arch armv6s-m
   3              		.fpu softvfp
   4              		.eabi_attribute 20, 1
   5              		.eabi_attribute 21, 1
   6              		.eabi_attribute 23, 3
   7              		.eabi_attribute 24, 1
   8              		.eabi_attribute 25, 1
   9              		.eabi_attribute 26, 1
  10              		.eabi_attribute 30, 1
  11              		.eabi_attribute 34, 0
  12              		.eabi_attribute 18, 4
  13              		.file	"system_stm32g0xx.c"
  14              		.text
  15              	.Ltext0:
  16              		.cfi_sections	.debug_frame
  17              		.file 1 "Core/Src/system_stm32g0xx.c"
  18              		.section	.text.SystemInit,"ax",%progbits
  19              		.align	1
  20              		.global	SystemInit
  21              		.syntax unified
  22              		.code	16
  23              		.thumb_func
  25              	SystemInit:
  26              	.LFB49:
   1:Core/Src/system_stm32g0xx.c **** /**
   2:Core/Src/system_stm32g0xx.c ****   ******************************************************************************
   3:Core/Src/system_stm32g0xx.c ****   * @file    system_stm32g0xx.c
   4:Core/Src/system_stm32g0xx.c ****   * @author  MCD Application Team
   5:Core/Src/system_stm32g0xx.c ****   * @brief   CMSIS Cortex-M0+ Device Peripheral Access Layer System Source File
   6:Core/Src/system_stm32g0xx.c ****   *
   7:Core/Src/system_stm32g0xx.c ****   *   This file provides two functions and one global variable to be called from
   8:Core/Src/system_stm32g0xx.c ****   *   user application:
   9:Core/Src/system_stm32g0xx.c ****   *      - SystemInit(): This function is called at startup just after reset and
  10:Core/Src/system_stm32g0xx.c ****   *                      before branch to main program. This call is made inside
  11:Core/Src/system_stm32g0xx.c ****   *                      the "startup_stm32g0xx.s" file.
  12:Core/Src/system_stm32g0xx.c ****   *
  13:Core/Src/system_stm32g0xx.c ****   *      - SystemCoreClock variable: Contains the core clock (HCLK), it can be used
  14:Core/Src/system_stm32g0xx.c ****   *                                  by the user application to setup the SysTick
  15:Core/Src/system_stm32g0xx.c ****   *                                  timer or configure other parameters.
  16:Core/Src/system_stm32g0xx.c ****   *
  17:Core/Src/system_stm32g0xx.c ****   *      - SystemCoreClockUpdate(): Updates the variable SystemCoreClock and must
  18:Core/Src/system_stm32g0xx.c ****   *                                 be called whenever the core clock is changed
  19:Core/Src/system_stm32g0xx.c ****   *                                 during program execution.
  20:Core/Src/system_stm32g0xx.c ****   *
  21:Core/Src/system_stm32g0xx.c ****   *   After each device reset the HSI (8 MHz then 16 MHz) is used as system clock source.
  22:Core/Src/system_stm32g0xx.c ****   *   Then SystemInit() function is called, in "startup_stm32g0xx.s" file, to
  23:Core/Src/system_stm32g0xx.c ****   *   configure the system clock before to branch to main program.
  24:Core/Src/system_stm32g0xx.c ****   *
  25:Core/Src/system_stm32g0xx.c ****   *   This file configures the system clock as follows:
  26:Core/Src/system_stm32g0xx.c ****   *=============================================================================
  27:Core/Src/system_stm32g0xx.c ****   *-----------------------------------------------------------------------------
  28:Core/Src/system_stm32g0xx.c ****   *        System Clock source                    | HSI
  29:Core/Src/system_stm32g0xx.c ****   *-----------------------------------------------------------------------------
  30:Core/Src/system_stm32g0xx.c ****   *        SYSCLK(Hz)                             | 16000000
  31:Core/Src/system_stm32g0xx.c ****   *-----------------------------------------------------------------------------
  32:Core/Src/system_stm32g0xx.c ****   *        HCLK(Hz)                               | 16000000
ARM GAS  /tmp/ccCGQMHS.s 			page 2


  33:Core/Src/system_stm32g0xx.c ****   *-----------------------------------------------------------------------------
  34:Core/Src/system_stm32g0xx.c ****   *        AHB Prescaler                          | 1
  35:Core/Src/system_stm32g0xx.c ****   *-----------------------------------------------------------------------------
  36:Core/Src/system_stm32g0xx.c ****   *        APB Prescaler                          | 1
  37:Core/Src/system_stm32g0xx.c ****   *-----------------------------------------------------------------------------
  38:Core/Src/system_stm32g0xx.c ****   *        HSI Division factor                    | 1
  39:Core/Src/system_stm32g0xx.c ****   *-----------------------------------------------------------------------------
  40:Core/Src/system_stm32g0xx.c ****   *        PLL_M                                  | 1
  41:Core/Src/system_stm32g0xx.c ****   *-----------------------------------------------------------------------------
  42:Core/Src/system_stm32g0xx.c ****   *        PLL_N                                  | 8
  43:Core/Src/system_stm32g0xx.c ****   *-----------------------------------------------------------------------------
  44:Core/Src/system_stm32g0xx.c ****   *        PLL_P                                  | 7
  45:Core/Src/system_stm32g0xx.c ****   *-----------------------------------------------------------------------------
  46:Core/Src/system_stm32g0xx.c ****   *        PLL_Q                                  | 2
  47:Core/Src/system_stm32g0xx.c ****   *-----------------------------------------------------------------------------
  48:Core/Src/system_stm32g0xx.c ****   *        PLL_R                                  | 2
  49:Core/Src/system_stm32g0xx.c ****   *-----------------------------------------------------------------------------
  50:Core/Src/system_stm32g0xx.c ****   *        Require 48MHz for RNG                  | Disabled
  51:Core/Src/system_stm32g0xx.c ****   *-----------------------------------------------------------------------------
  52:Core/Src/system_stm32g0xx.c ****   *=============================================================================
  53:Core/Src/system_stm32g0xx.c ****   ******************************************************************************
  54:Core/Src/system_stm32g0xx.c ****   * @attention
  55:Core/Src/system_stm32g0xx.c ****   *
  56:Core/Src/system_stm32g0xx.c ****   * Copyright (c) 2018-2021 STMicroelectronics.
  57:Core/Src/system_stm32g0xx.c ****   * All rights reserved.
  58:Core/Src/system_stm32g0xx.c ****   *
  59:Core/Src/system_stm32g0xx.c ****   * This software is licensed under terms that can be found in the LICENSE file
  60:Core/Src/system_stm32g0xx.c ****   * in the root directory of this software component.
  61:Core/Src/system_stm32g0xx.c ****   * If no LICENSE file comes with this software, it is provided AS-IS.
  62:Core/Src/system_stm32g0xx.c ****   *
  63:Core/Src/system_stm32g0xx.c ****   ******************************************************************************
  64:Core/Src/system_stm32g0xx.c ****   */
  65:Core/Src/system_stm32g0xx.c **** /** @addtogroup CMSIS
  66:Core/Src/system_stm32g0xx.c ****   * @{
  67:Core/Src/system_stm32g0xx.c ****   */
  68:Core/Src/system_stm32g0xx.c **** 
  69:Core/Src/system_stm32g0xx.c **** /** @addtogroup stm32g0xx_system
  70:Core/Src/system_stm32g0xx.c ****   * @{
  71:Core/Src/system_stm32g0xx.c ****   */
  72:Core/Src/system_stm32g0xx.c **** 
  73:Core/Src/system_stm32g0xx.c **** /** @addtogroup STM32G0xx_System_Private_Includes
  74:Core/Src/system_stm32g0xx.c ****   * @{
  75:Core/Src/system_stm32g0xx.c ****   */
  76:Core/Src/system_stm32g0xx.c **** 
  77:Core/Src/system_stm32g0xx.c **** #include "stm32g0xx.h"
  78:Core/Src/system_stm32g0xx.c **** 
  79:Core/Src/system_stm32g0xx.c **** #if !defined  (HSE_VALUE)
  80:Core/Src/system_stm32g0xx.c **** #define HSE_VALUE    (8000000UL)    /*!< Value of the External oscillator in Hz */
  81:Core/Src/system_stm32g0xx.c **** #endif /* HSE_VALUE */
  82:Core/Src/system_stm32g0xx.c **** 
  83:Core/Src/system_stm32g0xx.c **** #if !defined  (HSI_VALUE)
  84:Core/Src/system_stm32g0xx.c ****   #define HSI_VALUE  (16000000UL)   /*!< Value of the Internal oscillator in Hz*/
  85:Core/Src/system_stm32g0xx.c **** #endif /* HSI_VALUE */
  86:Core/Src/system_stm32g0xx.c **** 
  87:Core/Src/system_stm32g0xx.c **** #if !defined  (LSI_VALUE)
  88:Core/Src/system_stm32g0xx.c ****  #define LSI_VALUE   (32000UL)     /*!< Value of LSI in Hz*/
  89:Core/Src/system_stm32g0xx.c **** #endif /* LSI_VALUE */
ARM GAS  /tmp/ccCGQMHS.s 			page 3


  90:Core/Src/system_stm32g0xx.c **** 
  91:Core/Src/system_stm32g0xx.c **** #if !defined  (LSE_VALUE)
  92:Core/Src/system_stm32g0xx.c ****   #define LSE_VALUE  (32768UL)      /*!< Value of LSE in Hz*/
  93:Core/Src/system_stm32g0xx.c **** #endif /* LSE_VALUE */
  94:Core/Src/system_stm32g0xx.c **** 
  95:Core/Src/system_stm32g0xx.c **** /**
  96:Core/Src/system_stm32g0xx.c ****   * @}
  97:Core/Src/system_stm32g0xx.c ****   */
  98:Core/Src/system_stm32g0xx.c **** 
  99:Core/Src/system_stm32g0xx.c **** /** @addtogroup STM32G0xx_System_Private_TypesDefinitions
 100:Core/Src/system_stm32g0xx.c ****   * @{
 101:Core/Src/system_stm32g0xx.c ****   */
 102:Core/Src/system_stm32g0xx.c **** 
 103:Core/Src/system_stm32g0xx.c **** /**
 104:Core/Src/system_stm32g0xx.c ****   * @}
 105:Core/Src/system_stm32g0xx.c ****   */
 106:Core/Src/system_stm32g0xx.c **** 
 107:Core/Src/system_stm32g0xx.c **** /** @addtogroup STM32G0xx_System_Private_Defines
 108:Core/Src/system_stm32g0xx.c ****   * @{
 109:Core/Src/system_stm32g0xx.c ****   */
 110:Core/Src/system_stm32g0xx.c **** 
 111:Core/Src/system_stm32g0xx.c **** /************************* Miscellaneous Configuration ************************/
 112:Core/Src/system_stm32g0xx.c **** /* Note: Following vector table addresses must be defined in line with linker
 113:Core/Src/system_stm32g0xx.c ****          configuration. */
 114:Core/Src/system_stm32g0xx.c **** /*!< Uncomment the following line if you need to relocate the vector table
 115:Core/Src/system_stm32g0xx.c ****      anywhere in Flash or Sram, else the vector table is kept at the automatic
 116:Core/Src/system_stm32g0xx.c ****      remap of boot address selected */
 117:Core/Src/system_stm32g0xx.c **** /* #define USER_VECT_TAB_ADDRESS */
 118:Core/Src/system_stm32g0xx.c **** 
 119:Core/Src/system_stm32g0xx.c **** #if defined(USER_VECT_TAB_ADDRESS)
 120:Core/Src/system_stm32g0xx.c **** /*!< Uncomment the following line if you need to relocate your vector Table
 121:Core/Src/system_stm32g0xx.c ****      in Sram else user remap will be done in Flash. */
 122:Core/Src/system_stm32g0xx.c **** /* #define VECT_TAB_SRAM */
 123:Core/Src/system_stm32g0xx.c **** #if defined(VECT_TAB_SRAM)
 124:Core/Src/system_stm32g0xx.c **** #define VECT_TAB_BASE_ADDRESS   SRAM_BASE       /*!< Vector Table base address field.
 125:Core/Src/system_stm32g0xx.c ****                                                      This value must be a multiple of 0x200. */
 126:Core/Src/system_stm32g0xx.c **** #else
 127:Core/Src/system_stm32g0xx.c **** #define VECT_TAB_BASE_ADDRESS   FLASH_BASE      /*!< Vector Table base address field.
 128:Core/Src/system_stm32g0xx.c ****                                                      This value must be a multiple of 0x200. */
 129:Core/Src/system_stm32g0xx.c **** #endif /* VECT_TAB_SRAM */
 130:Core/Src/system_stm32g0xx.c **** 
 131:Core/Src/system_stm32g0xx.c **** #if !defined(VECT_TAB_OFFSET)
 132:Core/Src/system_stm32g0xx.c **** #define VECT_TAB_OFFSET         0x00000000U     /*!< Vector Table offset field.
 133:Core/Src/system_stm32g0xx.c ****                                                      This value must be a multiple of 0x200. */
 134:Core/Src/system_stm32g0xx.c **** #endif /* VECT_TAB_OFFSET */
 135:Core/Src/system_stm32g0xx.c **** 
 136:Core/Src/system_stm32g0xx.c **** #endif /* USER_VECT_TAB_ADDRESS */
 137:Core/Src/system_stm32g0xx.c **** /******************************************************************************/
 138:Core/Src/system_stm32g0xx.c **** /**
 139:Core/Src/system_stm32g0xx.c ****   * @}
 140:Core/Src/system_stm32g0xx.c ****   */
 141:Core/Src/system_stm32g0xx.c **** 
 142:Core/Src/system_stm32g0xx.c **** /** @addtogroup STM32G0xx_System_Private_Macros
 143:Core/Src/system_stm32g0xx.c ****   * @{
 144:Core/Src/system_stm32g0xx.c ****   */
 145:Core/Src/system_stm32g0xx.c **** 
 146:Core/Src/system_stm32g0xx.c **** /**
ARM GAS  /tmp/ccCGQMHS.s 			page 4


 147:Core/Src/system_stm32g0xx.c ****   * @}
 148:Core/Src/system_stm32g0xx.c ****   */
 149:Core/Src/system_stm32g0xx.c **** 
 150:Core/Src/system_stm32g0xx.c **** /** @addtogroup STM32G0xx_System_Private_Variables
 151:Core/Src/system_stm32g0xx.c ****   * @{
 152:Core/Src/system_stm32g0xx.c ****   */
 153:Core/Src/system_stm32g0xx.c ****   /* The SystemCoreClock variable is updated in three ways:
 154:Core/Src/system_stm32g0xx.c ****       1) by calling CMSIS function SystemCoreClockUpdate()
 155:Core/Src/system_stm32g0xx.c ****       2) by calling HAL API function HAL_RCC_GetHCLKFreq()
 156:Core/Src/system_stm32g0xx.c ****       3) each time HAL_RCC_ClockConfig() is called to configure the system clock frequency
 157:Core/Src/system_stm32g0xx.c ****          Note: If you use this function to configure the system clock; then there
 158:Core/Src/system_stm32g0xx.c ****                is no need to call the 2 first functions listed above, since SystemCoreClock
 159:Core/Src/system_stm32g0xx.c ****                variable is updated automatically.
 160:Core/Src/system_stm32g0xx.c ****   */
 161:Core/Src/system_stm32g0xx.c ****   uint32_t SystemCoreClock = 16000000UL;
 162:Core/Src/system_stm32g0xx.c **** 
 163:Core/Src/system_stm32g0xx.c ****   const uint32_t AHBPrescTable[16UL] = {0UL, 0UL, 0UL, 0UL, 0UL, 0UL, 0UL, 0UL, 1UL, 2UL, 3UL, 4UL,
 164:Core/Src/system_stm32g0xx.c ****   const uint32_t APBPrescTable[8UL] =  {0UL, 0UL, 0UL, 0UL, 1UL, 2UL, 3UL, 4UL};
 165:Core/Src/system_stm32g0xx.c **** 
 166:Core/Src/system_stm32g0xx.c **** /**
 167:Core/Src/system_stm32g0xx.c ****   * @}
 168:Core/Src/system_stm32g0xx.c ****   */
 169:Core/Src/system_stm32g0xx.c **** 
 170:Core/Src/system_stm32g0xx.c **** /** @addtogroup STM32G0xx_System_Private_FunctionPrototypes
 171:Core/Src/system_stm32g0xx.c ****   * @{
 172:Core/Src/system_stm32g0xx.c ****   */
 173:Core/Src/system_stm32g0xx.c **** 
 174:Core/Src/system_stm32g0xx.c **** /**
 175:Core/Src/system_stm32g0xx.c ****   * @}
 176:Core/Src/system_stm32g0xx.c ****   */
 177:Core/Src/system_stm32g0xx.c **** 
 178:Core/Src/system_stm32g0xx.c **** /** @addtogroup STM32G0xx_System_Private_Functions
 179:Core/Src/system_stm32g0xx.c ****   * @{
 180:Core/Src/system_stm32g0xx.c ****   */
 181:Core/Src/system_stm32g0xx.c **** 
 182:Core/Src/system_stm32g0xx.c **** /**
 183:Core/Src/system_stm32g0xx.c ****   * @brief  Setup the microcontroller system.
 184:Core/Src/system_stm32g0xx.c ****   * @param  None
 185:Core/Src/system_stm32g0xx.c ****   * @retval None
 186:Core/Src/system_stm32g0xx.c ****   */
 187:Core/Src/system_stm32g0xx.c **** void SystemInit(void)
 188:Core/Src/system_stm32g0xx.c **** {
  27              		.loc 1 188 1 view -0
  28              		.cfi_startproc
  29              		@ args = 0, pretend = 0, frame = 0
  30              		@ frame_needed = 0, uses_anonymous_args = 0
  31              		@ link register save eliminated.
 189:Core/Src/system_stm32g0xx.c ****   /* Configure the Vector Table location -------------------------------------*/
 190:Core/Src/system_stm32g0xx.c **** #if defined(USER_VECT_TAB_ADDRESS)
 191:Core/Src/system_stm32g0xx.c ****   SCB->VTOR = VECT_TAB_BASE_ADDRESS | VECT_TAB_OFFSET; /* Vector Table Relocation */
 192:Core/Src/system_stm32g0xx.c **** #endif /* USER_VECT_TAB_ADDRESS */
 193:Core/Src/system_stm32g0xx.c **** }
  32              		.loc 1 193 1 view .LVU1
  33              		@ sp needed
  34 0000 7047     		bx	lr
  35              		.cfi_endproc
  36              	.LFE49:
ARM GAS  /tmp/ccCGQMHS.s 			page 5


  38              		.section	.text.SystemCoreClockUpdate,"ax",%progbits
  39              		.align	1
  40              		.global	SystemCoreClockUpdate
  41              		.syntax unified
  42              		.code	16
  43              		.thumb_func
  45              	SystemCoreClockUpdate:
  46              	.LFB50:
 194:Core/Src/system_stm32g0xx.c **** 
 195:Core/Src/system_stm32g0xx.c **** /**
 196:Core/Src/system_stm32g0xx.c ****   * @brief  Update SystemCoreClock variable according to Clock Register Values.
 197:Core/Src/system_stm32g0xx.c ****   *         The SystemCoreClock variable contains the core clock (HCLK), it can
 198:Core/Src/system_stm32g0xx.c ****   *         be used by the user application to setup the SysTick timer or configure
 199:Core/Src/system_stm32g0xx.c ****   *         other parameters.
 200:Core/Src/system_stm32g0xx.c ****   *
 201:Core/Src/system_stm32g0xx.c ****   * @note   Each time the core clock (HCLK) changes, this function must be called
 202:Core/Src/system_stm32g0xx.c ****   *         to update SystemCoreClock variable value. Otherwise, any configuration
 203:Core/Src/system_stm32g0xx.c ****   *         based on this variable will be incorrect.
 204:Core/Src/system_stm32g0xx.c ****   *
 205:Core/Src/system_stm32g0xx.c ****   * @note   - The system frequency computed by this function is not the real
 206:Core/Src/system_stm32g0xx.c ****   *           frequency in the chip. It is calculated based on the predefined
 207:Core/Src/system_stm32g0xx.c ****   *           constant and the selected clock source:
 208:Core/Src/system_stm32g0xx.c ****   *
 209:Core/Src/system_stm32g0xx.c ****   *           - If SYSCLK source is HSI, SystemCoreClock will contain the HSI_VALUE(**) / HSI divis
 210:Core/Src/system_stm32g0xx.c ****   *
 211:Core/Src/system_stm32g0xx.c ****   *           - If SYSCLK source is HSE, SystemCoreClock will contain the HSE_VALUE(***)
 212:Core/Src/system_stm32g0xx.c ****   *
 213:Core/Src/system_stm32g0xx.c ****   *           - If SYSCLK source is LSI, SystemCoreClock will contain the LSI_VALUE
 214:Core/Src/system_stm32g0xx.c ****   *
 215:Core/Src/system_stm32g0xx.c ****   *           - If SYSCLK source is LSE, SystemCoreClock will contain the LSE_VALUE
 216:Core/Src/system_stm32g0xx.c ****   *
 217:Core/Src/system_stm32g0xx.c ****   *           - If SYSCLK source is PLL, SystemCoreClock will contain the HSE_VALUE(***)
 218:Core/Src/system_stm32g0xx.c ****   *             or HSI_VALUE(*) multiplied/divided by the PLL factors.
 219:Core/Src/system_stm32g0xx.c ****   *
 220:Core/Src/system_stm32g0xx.c ****   *         (**) HSI_VALUE is a constant defined in stm32g0xx_hal_conf.h file (default value
 221:Core/Src/system_stm32g0xx.c ****   *              16 MHz) but the real value may vary depending on the variations
 222:Core/Src/system_stm32g0xx.c ****   *              in voltage and temperature.
 223:Core/Src/system_stm32g0xx.c ****   *
 224:Core/Src/system_stm32g0xx.c ****   *         (***) HSE_VALUE is a constant defined in stm32g0xx_hal_conf.h file (default value
 225:Core/Src/system_stm32g0xx.c ****   *              8 MHz), user has to ensure that HSE_VALUE is same as the real
 226:Core/Src/system_stm32g0xx.c ****   *              frequency of the crystal used. Otherwise, this function may
 227:Core/Src/system_stm32g0xx.c ****   *              have wrong result.
 228:Core/Src/system_stm32g0xx.c ****   *
 229:Core/Src/system_stm32g0xx.c ****   *         - The result of this function could be not correct when using fractional
 230:Core/Src/system_stm32g0xx.c ****   *           value for HSE crystal.
 231:Core/Src/system_stm32g0xx.c ****   *
 232:Core/Src/system_stm32g0xx.c ****   * @param  None
 233:Core/Src/system_stm32g0xx.c ****   * @retval None
 234:Core/Src/system_stm32g0xx.c ****   */
 235:Core/Src/system_stm32g0xx.c **** void SystemCoreClockUpdate(void)
 236:Core/Src/system_stm32g0xx.c **** {
  47              		.loc 1 236 1 view -0
  48              		.cfi_startproc
  49              		@ args = 0, pretend = 0, frame = 0
  50              		@ frame_needed = 0, uses_anonymous_args = 0
  51 0000 10B5     		push	{r4, lr}
  52              	.LCFI0:
ARM GAS  /tmp/ccCGQMHS.s 			page 6


  53              		.cfi_def_cfa_offset 8
  54              		.cfi_offset 4, -8
  55              		.cfi_offset 14, -4
 237:Core/Src/system_stm32g0xx.c ****   uint32_t tmp;
  56              		.loc 1 237 3 view .LVU3
 238:Core/Src/system_stm32g0xx.c ****   uint32_t pllvco;
  57              		.loc 1 238 3 view .LVU4
 239:Core/Src/system_stm32g0xx.c ****   uint32_t pllr;
  58              		.loc 1 239 3 view .LVU5
 240:Core/Src/system_stm32g0xx.c ****   uint32_t pllsource;
  59              		.loc 1 240 3 view .LVU6
 241:Core/Src/system_stm32g0xx.c ****   uint32_t pllm;
  60              		.loc 1 241 3 view .LVU7
 242:Core/Src/system_stm32g0xx.c ****   uint32_t hsidiv;
  61              		.loc 1 242 3 view .LVU8
 243:Core/Src/system_stm32g0xx.c **** 
 244:Core/Src/system_stm32g0xx.c ****   /* Get SYSCLK source -------------------------------------------------------*/
 245:Core/Src/system_stm32g0xx.c ****   switch (RCC->CFGR & RCC_CFGR_SWS)
  62              		.loc 1 245 3 view .LVU9
  63              		.loc 1 245 14 is_stmt 0 view .LVU10
  64 0002 284B     		ldr	r3, .L13
  65 0004 9A68     		ldr	r2, [r3, #8]
  66              		.loc 1 245 21 view .LVU11
  67 0006 3823     		movs	r3, #56
  68 0008 1340     		ands	r3, r2
  69              		.loc 1 245 3 view .LVU12
  70 000a 182B     		cmp	r3, #24
  71 000c 37D0     		beq	.L3
  72 000e 1FD8     		bhi	.L4
  73 0010 082B     		cmp	r3, #8
  74 0012 24D0     		beq	.L5
  75 0014 102B     		cmp	r3, #16
  76 0016 3BD1     		bne	.L7
 246:Core/Src/system_stm32g0xx.c ****   {
 247:Core/Src/system_stm32g0xx.c ****     case RCC_CFGR_SWS_0:                /* HSE used as system clock */
 248:Core/Src/system_stm32g0xx.c ****       SystemCoreClock = HSE_VALUE;
 249:Core/Src/system_stm32g0xx.c ****       break;
 250:Core/Src/system_stm32g0xx.c **** 
 251:Core/Src/system_stm32g0xx.c ****     case (RCC_CFGR_SWS_1 | RCC_CFGR_SWS_0):  /* LSI used as system clock */
 252:Core/Src/system_stm32g0xx.c ****       SystemCoreClock = LSI_VALUE;
 253:Core/Src/system_stm32g0xx.c ****       break;
 254:Core/Src/system_stm32g0xx.c **** 
 255:Core/Src/system_stm32g0xx.c ****     case RCC_CFGR_SWS_2:                /* LSE used as system clock */
 256:Core/Src/system_stm32g0xx.c ****       SystemCoreClock = LSE_VALUE;
 257:Core/Src/system_stm32g0xx.c ****       break;
 258:Core/Src/system_stm32g0xx.c **** 
 259:Core/Src/system_stm32g0xx.c ****     case RCC_CFGR_SWS_1:  /* PLL used as system clock */
 260:Core/Src/system_stm32g0xx.c ****       /* PLL_VCO = (HSE_VALUE or HSI_VALUE / PLLM) * PLLN
 261:Core/Src/system_stm32g0xx.c ****          SYSCLK = PLL_VCO / PLLR
 262:Core/Src/system_stm32g0xx.c ****          */
 263:Core/Src/system_stm32g0xx.c ****       pllsource = (RCC->PLLCFGR & RCC_PLLCFGR_PLLSRC);
  77              		.loc 1 263 7 is_stmt 1 view .LVU13
  78              		.loc 1 263 23 is_stmt 0 view .LVU14
  79 0018 224A     		ldr	r2, .L13
  80 001a D168     		ldr	r1, [r2, #12]
  81              		.loc 1 263 17 view .LVU15
  82 001c 0323     		movs	r3, #3
ARM GAS  /tmp/ccCGQMHS.s 			page 7


  83 001e 0B40     		ands	r3, r1
  84              	.LVL0:
 264:Core/Src/system_stm32g0xx.c ****       pllm = ((RCC->PLLCFGR & RCC_PLLCFGR_PLLM) >> RCC_PLLCFGR_PLLM_Pos) + 1UL;
  85              		.loc 1 264 7 is_stmt 1 view .LVU16
  86              		.loc 1 264 19 is_stmt 0 view .LVU17
  87 0020 D268     		ldr	r2, [r2, #12]
  88              		.loc 1 264 49 view .LVU18
  89 0022 1209     		lsrs	r2, r2, #4
  90 0024 0721     		movs	r1, #7
  91 0026 1140     		ands	r1, r2
  92              		.loc 1 264 12 view .LVU19
  93 0028 0131     		adds	r1, r1, #1
  94              	.LVL1:
 265:Core/Src/system_stm32g0xx.c **** 
 266:Core/Src/system_stm32g0xx.c ****       if(pllsource == 0x03UL)           /* HSE used as PLL clock source */
  95              		.loc 1 266 7 is_stmt 1 view .LVU20
  96              		.loc 1 266 9 is_stmt 0 view .LVU21
  97 002a 032B     		cmp	r3, #3
  98 002c 2CD0     		beq	.L12
 267:Core/Src/system_stm32g0xx.c ****       {
 268:Core/Src/system_stm32g0xx.c ****         pllvco = (HSE_VALUE / pllm);
 269:Core/Src/system_stm32g0xx.c ****       }
 270:Core/Src/system_stm32g0xx.c ****       else                              /* HSI used as PLL clock source */
 271:Core/Src/system_stm32g0xx.c ****       {
 272:Core/Src/system_stm32g0xx.c ****           pllvco = (HSI_VALUE / pllm);
  99              		.loc 1 272 11 is_stmt 1 view .LVU22
 100              		.loc 1 272 18 is_stmt 0 view .LVU23
 101 002e 1E48     		ldr	r0, .L13+4
 102 0030 FFF7FEFF 		bl	__aeabi_uidiv
 103              	.LVL2:
 104              	.L11:
 273:Core/Src/system_stm32g0xx.c ****       }
 274:Core/Src/system_stm32g0xx.c ****       pllvco = pllvco * ((RCC->PLLCFGR & RCC_PLLCFGR_PLLN) >> RCC_PLLCFGR_PLLN_Pos);
 105              		.loc 1 274 7 is_stmt 1 view .LVU24
 106              		.loc 1 274 30 is_stmt 0 view .LVU25
 107 0034 1B49     		ldr	r1, .L13
 108 0036 CA68     		ldr	r2, [r1, #12]
 109              		.loc 1 274 60 view .LVU26
 110 0038 120A     		lsrs	r2, r2, #8
 111 003a 7F23     		movs	r3, #127
 112 003c 1340     		ands	r3, r2
 113              		.loc 1 274 14 view .LVU27
 114 003e 5843     		muls	r0, r3
 115              	.LVL3:
 275:Core/Src/system_stm32g0xx.c ****       pllr = (((RCC->PLLCFGR & RCC_PLLCFGR_PLLR) >> RCC_PLLCFGR_PLLR_Pos) + 1UL);
 116              		.loc 1 275 7 is_stmt 1 view .LVU28
 117              		.loc 1 275 20 is_stmt 0 view .LVU29
 118 0040 C968     		ldr	r1, [r1, #12]
 119              		.loc 1 275 50 view .LVU30
 120 0042 490F     		lsrs	r1, r1, #29
 121              		.loc 1 275 12 view .LVU31
 122 0044 0131     		adds	r1, r1, #1
 123              	.LVL4:
 276:Core/Src/system_stm32g0xx.c **** 
 277:Core/Src/system_stm32g0xx.c ****       SystemCoreClock = pllvco/pllr;
 124              		.loc 1 277 7 is_stmt 1 view .LVU32
 125              		.loc 1 277 31 is_stmt 0 view .LVU33
ARM GAS  /tmp/ccCGQMHS.s 			page 8


 126 0046 FFF7FEFF 		bl	__aeabi_uidiv
 127              	.LVL5:
 128              		.loc 1 277 23 view .LVU34
 129 004a 184B     		ldr	r3, .L13+8
 130 004c 1860     		str	r0, [r3]
 278:Core/Src/system_stm32g0xx.c ****       break;
 131              		.loc 1 278 7 is_stmt 1 view .LVU35
 132 004e 09E0     		b	.L9
 133              	.LVL6:
 134              	.L4:
 245:Core/Src/system_stm32g0xx.c ****   {
 135              		.loc 1 245 3 is_stmt 0 view .LVU36
 136 0050 202B     		cmp	r3, #32
 137 0052 1DD1     		bne	.L7
 256:Core/Src/system_stm32g0xx.c ****       break;
 138              		.loc 1 256 7 is_stmt 1 view .LVU37
 256:Core/Src/system_stm32g0xx.c ****       break;
 139              		.loc 1 256 23 is_stmt 0 view .LVU38
 140 0054 154B     		ldr	r3, .L13+8
 141 0056 8022     		movs	r2, #128
 142 0058 1202     		lsls	r2, r2, #8
 143 005a 1A60     		str	r2, [r3]
 257:Core/Src/system_stm32g0xx.c **** 
 144              		.loc 1 257 7 is_stmt 1 view .LVU39
 145 005c 02E0     		b	.L9
 146              	.L5:
 248:Core/Src/system_stm32g0xx.c ****       break;
 147              		.loc 1 248 7 view .LVU40
 248:Core/Src/system_stm32g0xx.c ****       break;
 148              		.loc 1 248 23 is_stmt 0 view .LVU41
 149 005e 134B     		ldr	r3, .L13+8
 150 0060 134A     		ldr	r2, .L13+12
 151 0062 1A60     		str	r2, [r3]
 249:Core/Src/system_stm32g0xx.c **** 
 152              		.loc 1 249 7 is_stmt 1 view .LVU42
 153              	.L9:
 279:Core/Src/system_stm32g0xx.c ****       
 280:Core/Src/system_stm32g0xx.c ****     case 0x00000000U:                   /* HSI used as system clock */
 281:Core/Src/system_stm32g0xx.c ****     default:                            /* HSI used as system clock */
 282:Core/Src/system_stm32g0xx.c ****       hsidiv = (1UL << ((READ_BIT(RCC->CR, RCC_CR_HSIDIV))>> RCC_CR_HSIDIV_Pos));
 283:Core/Src/system_stm32g0xx.c ****       SystemCoreClock = (HSI_VALUE/hsidiv);
 284:Core/Src/system_stm32g0xx.c ****       break;
 285:Core/Src/system_stm32g0xx.c ****   }
 286:Core/Src/system_stm32g0xx.c ****   /* Compute HCLK clock frequency --------------------------------------------*/
 287:Core/Src/system_stm32g0xx.c ****   /* Get HCLK prescaler */
 288:Core/Src/system_stm32g0xx.c ****   tmp = AHBPrescTable[((RCC->CFGR & RCC_CFGR_HPRE) >> RCC_CFGR_HPRE_Pos)];
 154              		.loc 1 288 3 view .LVU43
 155              		.loc 1 288 28 is_stmt 0 view .LVU44
 156 0064 0F4B     		ldr	r3, .L13
 157 0066 9A68     		ldr	r2, [r3, #8]
 158              		.loc 1 288 52 view .LVU45
 159 0068 120A     		lsrs	r2, r2, #8
 160 006a 0F23     		movs	r3, #15
 161 006c 1340     		ands	r3, r2
 162              		.loc 1 288 7 view .LVU46
 163 006e 114A     		ldr	r2, .L13+16
 164 0070 9B00     		lsls	r3, r3, #2
ARM GAS  /tmp/ccCGQMHS.s 			page 9


 165 0072 9958     		ldr	r1, [r3, r2]
 166              	.LVL7:
 289:Core/Src/system_stm32g0xx.c ****   /* HCLK clock frequency */
 290:Core/Src/system_stm32g0xx.c ****   SystemCoreClock >>= tmp;
 167              		.loc 1 290 3 is_stmt 1 view .LVU47
 168              		.loc 1 290 19 is_stmt 0 view .LVU48
 169 0074 0D4A     		ldr	r2, .L13+8
 170 0076 1368     		ldr	r3, [r2]
 171 0078 CB40     		lsrs	r3, r3, r1
 172 007a 1360     		str	r3, [r2]
 291:Core/Src/system_stm32g0xx.c **** }
 173              		.loc 1 291 1 view .LVU49
 174              		@ sp needed
 175 007c 10BD     		pop	{r4, pc}
 176              	.LVL8:
 177              	.L3:
 252:Core/Src/system_stm32g0xx.c ****       break;
 178              		.loc 1 252 7 is_stmt 1 view .LVU50
 252:Core/Src/system_stm32g0xx.c ****       break;
 179              		.loc 1 252 23 is_stmt 0 view .LVU51
 180 007e 0B4B     		ldr	r3, .L13+8
 181 0080 FA22     		movs	r2, #250
 182 0082 D201     		lsls	r2, r2, #7
 183 0084 1A60     		str	r2, [r3]
 253:Core/Src/system_stm32g0xx.c **** 
 184              		.loc 1 253 7 is_stmt 1 view .LVU52
 185 0086 EDE7     		b	.L9
 186              	.LVL9:
 187              	.L12:
 268:Core/Src/system_stm32g0xx.c ****       }
 188              		.loc 1 268 9 view .LVU53
 268:Core/Src/system_stm32g0xx.c ****       }
 189              		.loc 1 268 16 is_stmt 0 view .LVU54
 190 0088 0948     		ldr	r0, .L13+12
 191 008a FFF7FEFF 		bl	__aeabi_uidiv
 192              	.LVL10:
 268:Core/Src/system_stm32g0xx.c ****       }
 193              		.loc 1 268 16 view .LVU55
 194 008e D1E7     		b	.L11
 195              	.LVL11:
 196              	.L7:
 282:Core/Src/system_stm32g0xx.c ****       SystemCoreClock = (HSI_VALUE/hsidiv);
 197              		.loc 1 282 7 is_stmt 1 view .LVU56
 282:Core/Src/system_stm32g0xx.c ****       SystemCoreClock = (HSI_VALUE/hsidiv);
 198              		.loc 1 282 26 is_stmt 0 view .LVU57
 199 0090 044B     		ldr	r3, .L13
 200 0092 1B68     		ldr	r3, [r3]
 282:Core/Src/system_stm32g0xx.c ****       SystemCoreClock = (HSI_VALUE/hsidiv);
 201              		.loc 1 282 59 view .LVU58
 202 0094 DB0A     		lsrs	r3, r3, #11
 203 0096 0722     		movs	r2, #7
 204 0098 1A40     		ands	r2, r3
 205              	.LVL12:
 283:Core/Src/system_stm32g0xx.c ****       break;
 206              		.loc 1 283 7 is_stmt 1 view .LVU59
 283:Core/Src/system_stm32g0xx.c ****       break;
 207              		.loc 1 283 35 is_stmt 0 view .LVU60
ARM GAS  /tmp/ccCGQMHS.s 			page 10


 208 009a 034B     		ldr	r3, .L13+4
 209 009c D340     		lsrs	r3, r3, r2
 283:Core/Src/system_stm32g0xx.c ****       break;
 210              		.loc 1 283 23 view .LVU61
 211 009e 034A     		ldr	r2, .L13+8
 212              	.LVL13:
 283:Core/Src/system_stm32g0xx.c ****       break;
 213              		.loc 1 283 23 view .LVU62
 214 00a0 1360     		str	r3, [r2]
 284:Core/Src/system_stm32g0xx.c ****   }
 215              		.loc 1 284 7 is_stmt 1 view .LVU63
 216 00a2 DFE7     		b	.L9
 217              	.L14:
 218              		.align	2
 219              	.L13:
 220 00a4 00100240 		.word	1073876992
 221 00a8 0024F400 		.word	16000000
 222 00ac 00000000 		.word	SystemCoreClock
 223 00b0 00127A00 		.word	8000000
 224 00b4 00000000 		.word	AHBPrescTable
 225              		.cfi_endproc
 226              	.LFE50:
 228              		.global	APBPrescTable
 229              		.section	.rodata.APBPrescTable,"a"
 230              		.align	2
 233              	APBPrescTable:
 234 0000 00000000 		.word	0
 235 0004 00000000 		.word	0
 236 0008 00000000 		.word	0
 237 000c 00000000 		.word	0
 238 0010 01000000 		.word	1
 239 0014 02000000 		.word	2
 240 0018 03000000 		.word	3
 241 001c 04000000 		.word	4
 242              		.global	AHBPrescTable
 243              		.section	.rodata.AHBPrescTable,"a"
 244              		.align	2
 247              	AHBPrescTable:
 248 0000 00000000 		.word	0
 249 0004 00000000 		.word	0
 250 0008 00000000 		.word	0
 251 000c 00000000 		.word	0
 252 0010 00000000 		.word	0
 253 0014 00000000 		.word	0
 254 0018 00000000 		.word	0
 255 001c 00000000 		.word	0
 256 0020 01000000 		.word	1
 257 0024 02000000 		.word	2
 258 0028 03000000 		.word	3
 259 002c 04000000 		.word	4
 260 0030 06000000 		.word	6
 261 0034 07000000 		.word	7
 262 0038 08000000 		.word	8
 263 003c 09000000 		.word	9
 264              		.global	SystemCoreClock
 265              		.section	.data.SystemCoreClock,"aw"
 266              		.align	2
ARM GAS  /tmp/ccCGQMHS.s 			page 11


 269              	SystemCoreClock:
 270 0000 0024F400 		.word	16000000
 271              		.text
 272              	.Letext0:
 273              		.file 2 "/usr/arm-none-eabi/include/machine/_default_types.h"
 274              		.file 3 "/usr/arm-none-eabi/include/sys/_stdint.h"
 275              		.file 4 "Drivers/CMSIS/Device/ST/STM32G0xx/Include/system_stm32g0xx.h"
 276              		.file 5 "Drivers/CMSIS/Device/ST/STM32G0xx/Include/stm32g0b1xx.h"
ARM GAS  /tmp/ccCGQMHS.s 			page 12


DEFINED SYMBOLS
                            *ABS*:00000000 system_stm32g0xx.c
     /tmp/ccCGQMHS.s:19     .text.SystemInit:00000000 $t
     /tmp/ccCGQMHS.s:25     .text.SystemInit:00000000 SystemInit
     /tmp/ccCGQMHS.s:39     .text.SystemCoreClockUpdate:00000000 $t
     /tmp/ccCGQMHS.s:45     .text.SystemCoreClockUpdate:00000000 SystemCoreClockUpdate
     /tmp/ccCGQMHS.s:220    .text.SystemCoreClockUpdate:000000a4 $d
     /tmp/ccCGQMHS.s:269    .data.SystemCoreClock:00000000 SystemCoreClock
     /tmp/ccCGQMHS.s:247    .rodata.AHBPrescTable:00000000 AHBPrescTable
     /tmp/ccCGQMHS.s:233    .rodata.APBPrescTable:00000000 APBPrescTable
     /tmp/ccCGQMHS.s:230    .rodata.APBPrescTable:00000000 $d
     /tmp/ccCGQMHS.s:244    .rodata.AHBPrescTable:00000000 $d
     /tmp/ccCGQMHS.s:266    .data.SystemCoreClock:00000000 $d

UNDEFINED SYMBOLS
__aeabi_uidiv
